

Microchip MPLAB XC8 Assembler V2.40 build 20220703182018 
                                                                                               Thu Jun 01 14:19:53 2023

Microchip MPLAB XC8 C Compiler v2.40 (Free license) build 20220703182018 Og1 
     1                           	processor	16F887
     2                           	pagewidth 120
     3                           	opt	flic
     4                           	psect	idataBANK1,global,class=CODE,delta=2,noexec
     5                           	psect	cinit,global,class=CODE,merge=1,delta=2
     6                           	psect	bssBANK1,global,class=BANK1,space=1,delta=1,noexec
     7                           	psect	dataBANK1,global,class=BANK1,space=1,delta=1,noexec
     8                           	psect	clrtext,global,class=CODE,delta=2
     9                           	psect	cstackBANK3,global,class=BANK3,space=1,delta=1,noexec
    10                           	psect	cstackBANK1,global,class=BANK1,space=1,delta=1,noexec
    11                           	psect	cstackCOMMON,global,class=COMMON,space=1,delta=1,noexec
    12                           	psect	cstackBANK0,global,class=BANK0,space=1,delta=1,noexec
    13                           	psect	maintext,global,class=CODE,split=1,delta=2
    14                           	psect	text1,local,class=CODE,merge=1,delta=2
    15                           	psect	text2,local,class=CODE,merge=1,delta=2
    16                           	psect	text3,local,class=CODE,merge=1,delta=2
    17                           	psect	text4,local,class=CODE,merge=1,delta=2
    18                           	psect	intentry,global,class=CODE,delta=2
    19                           	psect	text5,local,class=CODE,merge=1,delta=2
    20                           	psect	text6,local,class=CODE,merge=1,delta=2,group=1
    21                           	psect	text7,local,class=CODE,merge=1,delta=2,group=1
    22                           	psect	text8,local,class=CODE,merge=1,delta=2,group=1
    23                           	psect	text9,local,class=CODE,merge=1,delta=2,group=1
    24                           	psect	text10,local,class=CODE,merge=1,delta=2,group=1
    25                           	psect	text11,local,class=CODE,merge=1,delta=2,group=1
    26                           	psect	idloc,global,abs,ovrld,class=IDLOC,space=5,delta=2,noexec
    27                           	psect	config,global,abs,ovrld,class=CONFIG,space=4,delta=2,noexec
    28                           	dabs	1,0x7E,2
    29     0000                     
    30                           ; Version 2.40
    31                           ; Generated 17/11/2021 GMT
    32                           ; 
    33                           ; Copyright © 2021, Microchip Technology Inc. and its subsidiaries ("Microchip")
    34                           ; All rights reserved.
    35                           ; 
    36                           ; This software is developed by Microchip Technology Inc. and its subsidiaries ("Microch
      +                          ip").
    37                           ; 
    38                           ; Redistribution and use in source and binary forms, with or without modification, are
    39                           ; permitted provided that the following conditions are met:
    40                           ; 
    41                           ;     1. Redistributions of source code must retain the above copyright notice, this lis
      +                          t of
    42                           ;        conditions and the following disclaimer.
    43                           ; 
    44                           ;     2. Redistributions in binary form must reproduce the above copyright notice, this 
      +                          list
    45                           ;        of conditions and the following disclaimer in the documentation and/or other
    46                           ;        materials provided with the distribution. Publication is not required when
    47                           ;        this file is used in an embedded application.
    48                           ; 
    49                           ;     3. Microchip's name may not be used to endorse or promote products derived from th
      +                          is
    50                           ;        software without specific prior written permission.
    51                           ; 
    52                           ; THIS SOFTWARE IS PROVIDED BY MICROCHIP "AS IS" AND ANY EXPRESS OR IMPLIED WARRANTIES,
    53                           ; INCLUDING, BUT NOT LIMITED TO, THE IMPLIED WARRANTIES OF MERCHANTABILITY AND FITNESS F
      +                          OR
    54                           ; PURPOSE ARE DISCLAIMED.  IN NO EVENT SHALL MICROCHIP BE LIABLE FOR ANY DIRECT, INDIREC
      +                          T,
    55                           ; INCIDENTAL, SPECIAL, EXEMPLARY, OR CONSEQUENTIAL DAMAGES (INCLUDING BUT NOT LIMITED TO
    56                           ; PROCUREMENT OF SUBSTITUTE GOODS OR SERVICES; LOSS OF USE, DATA OR PROFITS; OR BUSINESS
    57                           ; INTERRUPTION) HOWSOEVER CAUSED AND ON ANY THEORY OF LIABILITY, WHETHER IN CONTRACT, ST
      +                          RICT
    58                           ; LIABILITY, OR TORT (INCLUDING NEGLIGENCE OR OTHERWISE) ARISING IN ANY WAY OUT OF THE U
      +                          SE OF
    59                           ; THIS SOFTWARE, EVEN IF ADVISED OF THE POSSIBILITY OF SUCH DAMAGE.
    60                           ; 
    61                           ; 
    62                           ; Code-generator required, PIC16F887 Definitions
    63                           ; 
    64                           ; SFR Addresses
    65     0000                     	;# 
    66     0001                     	;# 
    67     0002                     	;# 
    68     0003                     	;# 
    69     0004                     	;# 
    70     0005                     	;# 
    71     0006                     	;# 
    72     0007                     	;# 
    73     0008                     	;# 
    74     0009                     	;# 
    75     000A                     	;# 
    76     000B                     	;# 
    77     000C                     	;# 
    78     000D                     	;# 
    79     000E                     	;# 
    80     000E                     	;# 
    81     000F                     	;# 
    82     0010                     	;# 
    83     0011                     	;# 
    84     0012                     	;# 
    85     0013                     	;# 
    86     0014                     	;# 
    87     0015                     	;# 
    88     0015                     	;# 
    89     0016                     	;# 
    90     0017                     	;# 
    91     0018                     	;# 
    92     0019                     	;# 
    93     001A                     	;# 
    94     001B                     	;# 
    95     001B                     	;# 
    96     001C                     	;# 
    97     001D                     	;# 
    98     001E                     	;# 
    99     001F                     	;# 
   100     0081                     	;# 
   101     0085                     	;# 
   102     0086                     	;# 
   103     0087                     	;# 
   104     0088                     	;# 
   105     0089                     	;# 
   106     008C                     	;# 
   107     008D                     	;# 
   108     008E                     	;# 
   109     008F                     	;# 
   110     0090                     	;# 
   111     0091                     	;# 
   112     0092                     	;# 
   113     0093                     	;# 
   114     0093                     	;# 
   115     0093                     	;# 
   116     0094                     	;# 
   117     0095                     	;# 
   118     0096                     	;# 
   119     0097                     	;# 
   120     0098                     	;# 
   121     0099                     	;# 
   122     009A                     	;# 
   123     009B                     	;# 
   124     009C                     	;# 
   125     009D                     	;# 
   126     009E                     	;# 
   127     009F                     	;# 
   128     0105                     	;# 
   129     0107                     	;# 
   130     0108                     	;# 
   131     0109                     	;# 
   132     010C                     	;# 
   133     010C                     	;# 
   134     010D                     	;# 
   135     010E                     	;# 
   136     010F                     	;# 
   137     0185                     	;# 
   138     0187                     	;# 
   139     0188                     	;# 
   140     0189                     	;# 
   141     018C                     	;# 
   142     018D                     	;# 
   143     0000                     	;# 
   144     0001                     	;# 
   145     0002                     	;# 
   146     0003                     	;# 
   147     0004                     	;# 
   148     0005                     	;# 
   149     0006                     	;# 
   150     0007                     	;# 
   151     0008                     	;# 
   152     0009                     	;# 
   153     000A                     	;# 
   154     000B                     	;# 
   155     000C                     	;# 
   156     000D                     	;# 
   157     000E                     	;# 
   158     000E                     	;# 
   159     000F                     	;# 
   160     0010                     	;# 
   161     0011                     	;# 
   162     0012                     	;# 
   163     0013                     	;# 
   164     0014                     	;# 
   165     0015                     	;# 
   166     0015                     	;# 
   167     0016                     	;# 
   168     0017                     	;# 
   169     0018                     	;# 
   170     0019                     	;# 
   171     001A                     	;# 
   172     001B                     	;# 
   173     001B                     	;# 
   174     001C                     	;# 
   175     001D                     	;# 
   176     001E                     	;# 
   177     001F                     	;# 
   178     0081                     	;# 
   179     0085                     	;# 
   180     0086                     	;# 
   181     0087                     	;# 
   182     0088                     	;# 
   183     0089                     	;# 
   184     008C                     	;# 
   185     008D                     	;# 
   186     008E                     	;# 
   187     008F                     	;# 
   188     0090                     	;# 
   189     0091                     	;# 
   190     0092                     	;# 
   191     0093                     	;# 
   192     0093                     	;# 
   193     0093                     	;# 
   194     0094                     	;# 
   195     0095                     	;# 
   196     0096                     	;# 
   197     0097                     	;# 
   198     0098                     	;# 
   199     0099                     	;# 
   200     009A                     	;# 
   201     009B                     	;# 
   202     009C                     	;# 
   203     009D                     	;# 
   204     009E                     	;# 
   205     009F                     	;# 
   206     0105                     	;# 
   207     0107                     	;# 
   208     0108                     	;# 
   209     0109                     	;# 
   210     010C                     	;# 
   211     010C                     	;# 
   212     010D                     	;# 
   213     010E                     	;# 
   214     010F                     	;# 
   215     0185                     	;# 
   216     0187                     	;# 
   217     0188                     	;# 
   218     0189                     	;# 
   219     018C                     	;# 
   220     018D                     	;# 
   221                           
   222                           	psect	idataBANK1
   223     07F4                     __pidataBANK1:
   224                           
   225                           ;initializer for _toggle
   226     07F4  3401               	retlw	1
   227     07F5  3400               	retlw	0
   228                           
   229                           ;initializer for _dirEEPROM
   230     07F6  3401               	retlw	1
   231                           
   232                           ;initializer for _valTmr0
   233     07F7  34FA               	retlw	250
   234     0018                     _RCSTAbits	set	24
   235     0012                     _T2CONbits	set	18
   236     001D                     _CCP2CON	set	29
   237     0017                     _CCP1CON	set	23
   238     0009                     _PORTE	set	9
   239     0008                     _PORTD	set	8
   240     0007                     _PORTC	set	7
   241     0006                     _PORTB	set	6
   242     0005                     _PORTA	set	5
   243     001F                     _ADCON0bits	set	31
   244     0006                     _PORTBbits	set	6
   245     000B                     _INTCONbits	set	11
   246     0001                     _TMR0	set	1
   247     001D                     _CCP2CONbits	set	29
   248     001B                     _CCPR2L	set	27
   249     0017                     _CCP1CONbits	set	23
   250     001E                     _ADRESH	set	30
   251     0015                     _CCPR1L	set	21
   252     001A                     _RCREG	set	26
   253     0008                     _PORTDbits	set	8
   254     000C                     _PIR1bits	set	12
   255     005F                     _GIE	set	95
   256     005D                     _T0IE	set	93
   257     005A                     _T0IF	set	90
   258     0066                     _ADIF	set	102
   259     0096                     _IOCBbits	set	150
   260     009A                     _SPBRGH	set	154
   261     0099                     _SPBRG	set	153
   262     0098                     _TXSTAbits	set	152
   263     0087                     _TRISCbits	set	135
   264     009F                     _ADCON1bits	set	159
   265     008F                     _OSCCONbits	set	143
   266     0095                     _WPUBbits	set	149
   267     0081                     _OPTION_REGbits	set	129
   268     0089                     _TRISE	set	137
   269     0088                     _TRISD	set	136
   270     0087                     _TRISC	set	135
   271     0086                     _TRISB	set	134
   272     0085                     _TRISA	set	133
   273     008C                     _PIE1bits	set	140
   274     009E                     _ADRESL	set	158
   275     010C                     _EEDAT	set	268
   276     010D                     _EEADR	set	269
   277     018D                     _EECON2	set	397
   278     018C                     _EECON1bits	set	396
   279     0187                     _BAUDCTLbits	set	391
   280     0189                     _ANSELH	set	393
   281     0188                     _ANSEL	set	392
   282     0C61                     _WR	set	3169
   283     0C60                     _RD	set	3168
   284                           
   285                           	psect	cinit
   286     0013                     start_initialization:	
   287                           ; #config settings
   288                           
   289     0013                     __initialization:
   290                           
   291                           ; Initialize objects allocated to BANK1
   292     0013  1683               	bsf	3,5	;RP0=1, select bank1
   293     0014  1303               	bcf	3,6	;RP1=0, select bank1
   294     0015  120A  118A  27F4  120A  118A  	fcall	__pidataBANK1	;fetch initializer
   295     001A  00D9               	movwf	__pdataBANK1& (0+127)
   296     001B  120A  118A  27F5  120A  118A  	fcall	__pidataBANK1+1	;fetch initializer
   297     0020  00DA               	movwf	(__pdataBANK1+1)& (0+127)
   298     0021  120A  118A  27F6  120A  118A  	fcall	__pidataBANK1+2	;fetch initializer
   299     0026  00DB               	movwf	(__pdataBANK1+2)& (0+127)
   300     0027  120A  118A  27F7  120A  118A  	fcall	__pidataBANK1+3	;fetch initializer
   301     002C  00DC               	movwf	(__pdataBANK1+3)& (0+127)
   302                           
   303                           ; Clear objects allocated to BANK1
   304     002D  1383               	bcf	3,7	;select IRP bank0
   305     002E  30A0               	movlw	low __pbssBANK1
   306     002F  0084               	movwf	4
   307     0030  30C5               	movlw	low (__pbssBANK1+37)
   308     0031  120A  118A  27EC  120A  118A  	fcall	clear_ram0
   309     0036                     end_of_initialization:	
   310                           ;End of C runtime variable initialization code
   311                           
   312     0036                     __end_of__initialization:
   313     0036  0183               	clrf	3
   314     0037  120A  118A  2DE9   	ljmp	_main	;jump to C main() function
   315                           
   316                           	psect	bssBANK1
   317     00A0                     __pbssBANK1:
   318     00A0                     _servo:
   319     00A0                     	ds	2
   320     00A2                     _potValue:
   321     00A2                     	ds	2
   322     00A4                     _valuePot6:
   323     00A4                     	ds	2
   324     00A6                     _valuePot5:
   325     00A6                     	ds	2
   326     00A8                     _valuePot4:
   327     00A8                     	ds	2
   328     00AA                     _valuePot3:
   329     00AA                     	ds	2
   330     00AC                     _valuePot2:
   331     00AC                     	ds	2
   332     00AE                     _valuePot1:
   333     00AE                     	ds	2
   334     00B0                     _y1:
   335     00B0                     	ds	2
   336     00B2                     _y0:
   337     00B2                     	ds	2
   338     00B4                     _x1:
   339     00B4                     	ds	2
   340     00B6                     _x0:
   341     00B6                     	ds	2
   342     00B8                     _x:
   343     00B8                     	ds	2
   344     00BA                     _state:
   345     00BA                     	ds	1
   346     00BB                     _flag:
   347     00BB                     	ds	1
   348     00BC                     _tempCounter:
   349     00BC                     	ds	1
   350     00BD                     _counter4:
   351     00BD                     	ds	1
   352     00BE                     _counter3:
   353     00BE                     	ds	1
   354     00BF                     _counter2:
   355     00BF                     	ds	1
   356     00C0                     _counter1:
   357     00C0                     	ds	1
   358     00C1                     _pot6:
   359     00C1                     	ds	1
   360     00C2                     _pot5:
   361     00C2                     	ds	1
   362     00C3                     _pot4:
   363     00C3                     	ds	1
   364     00C4                     _pot3:
   365     00C4                     	ds	1
   366                           
   367                           	psect	dataBANK1
   368     00D9                     __pdataBANK1:
   369     00D9                     _toggle:
   370     00D9                     	ds	2
   371     00DB                     _dirEEPROM:
   372     00DB                     	ds	1
   373     00DC                     _valTmr0:
   374     00DC                     	ds	1
   375                           
   376                           	psect	clrtext
   377     07EC                     clear_ram0:	
   378                           ;	Called with FSR containing the base address, and
   379                           ;	W with the last address+1
   380                           
   381     07EC  0064               	clrwdt	;clear the watchdog before getting into this loop
   382     07ED                     clrloop0:
   383     07ED  0180               	clrf	0	;clear RAM location pointed to by FSR
   384     07EE  0A84               	incf	4,f	;increment pointer
   385     07EF  0604               	xorwf	4,w	;XOR with final address
   386     07F0  1903               	btfsc	3,2	;have we reached the end yet?
   387     07F1  3400               	retlw	0	;all done for this memory range, return
   388     07F2  0604               	xorwf	4,w	;XOR again to restore value
   389     07F3  2FED               	goto	clrloop0	;do the next byte
   390                           
   391                           	psect	cstackBANK3
   392     0190                     __pcstackBANK3:
   393     0190                     ??_setup:
   394     0190                     writeToEEPROM@data:	
   395                           ; 1 bytes @ 0x0
   396                           
   397                           
   398                           ; 1 bytes @ 0x0
   399     0190                     	ds	2
   400     0192                     ??_main:
   401                           
   402                           ; 1 bytes @ 0x2
   403     0192                     	ds	2
   404                           
   405                           	psect	cstackBANK1
   406     00C5                     __pcstackBANK1:
   407     00C5                     ___fltol@sign1:
   408                           
   409                           ; 1 bytes @ 0x0
   410     00C5                     	ds	1
   411     00C6                     ___fltol@exp1:
   412                           
   413                           ; 1 bytes @ 0x1
   414     00C6                     	ds	1
   415     00C7                     ?_map:
   416     00C7                     map@x:	
   417                           ; 2 bytes @ 0x2
   418                           
   419                           
   420                           ; 2 bytes @ 0x2
   421     00C7                     	ds	2
   422     00C9                     map@x0:
   423                           
   424                           ; 2 bytes @ 0x4
   425     00C9                     	ds	2
   426     00CB                     map@x1:
   427                           
   428                           ; 2 bytes @ 0x6
   429     00CB                     	ds	2
   430     00CD                     map@y0:
   431                           
   432                           ; 2 bytes @ 0x8
   433     00CD                     	ds	2
   434     00CF                     map@y1:
   435                           
   436                           ; 2 bytes @ 0xA
   437     00CF                     	ds	2
   438     00D1                     ??_isr:
   439                           
   440                           ; 1 bytes @ 0xC
   441     00D1                     	ds	5
   442     00D6                     _isr$648:
   443                           
   444                           ; 1 bytes @ 0x11
   445     00D6                     	ds	1
   446     00D7                     _isr$652:
   447                           
   448                           ; 1 bytes @ 0x12
   449     00D7                     	ds	1
   450     00D8                     ??_readFromEEPROM:
   451     00D8                     ?_writeToEEPROM:	
   452                           ; 1 bytes @ 0x13
   453                           
   454     00D8                     readFromEEPROM@address:	
   455                           ; 1 bytes @ 0x13
   456                           
   457     00D8                     writeToEEPROM@address:	
   458                           ; 1 bytes @ 0x13
   459                           
   460                           
   461                           ; 1 bytes @ 0x13
   462     00D8                     	ds	1
   463     00D9                     ??_writeToEEPROM:
   464                           
   465                           	psect	cstackCOMMON
   466     0070                     __pcstackCOMMON:	
   467                           ; 1 bytes @ 0x14
   468                           
   469     0070                     ?_setup:
   470     0070                     ?_readFromEEPROM:	
   471                           ; 1 bytes @ 0x0
   472                           
   473     0070                     ?_isr:	
   474                           ; 1 bytes @ 0x0
   475                           
   476     0070                     ?_main:	
   477                           ; 1 bytes @ 0x0
   478                           
   479     0070                     ?__Umul8_16:	
   480                           ; 1 bytes @ 0x0
   481                           
   482     0070                     ?___xxtofl:	
   483                           ; 2 bytes @ 0x0
   484                           
   485     0070                     __Umul8_16@multiplicand:	
   486                           ; 4 bytes @ 0x0
   487                           
   488     0070                     ___xxtofl@val:	
   489                           ; 1 bytes @ 0x0
   490                           
   491                           
   492                           ; 4 bytes @ 0x0
   493     0070                     	ds	2
   494     0072                     ??__Umul8_16:
   495                           
   496                           ; 1 bytes @ 0x2
   497     0072                     	ds	2
   498     0074                     ??___xxtofl:
   499     0074                     __Umul8_16@product:	
   500                           ; 1 bytes @ 0x4
   501                           
   502                           
   503                           ; 2 bytes @ 0x4
   504     0074                     	ds	2
   505     0076                     __Umul8_16@word_mpld:
   506                           
   507                           ; 2 bytes @ 0x6
   508     0076                     	ds	2
   509     0078                     __Umul8_16@multiplier:
   510     0078                     ___xxtofl@sign:	
   511                           ; 1 bytes @ 0x8
   512                           
   513                           
   514                           ; 1 bytes @ 0x8
   515     0078                     	ds	1
   516     0079                     ___xxtofl@exp:
   517                           
   518                           ; 1 bytes @ 0x9
   519     0079                     	ds	1
   520     007A                     ___xxtofl@arg:
   521                           
   522                           ; 4 bytes @ 0xA
   523     007A                     	ds	4
   524     007E                     ??_map:
   525                           
   526                           	psect	cstackBANK0
   527     0020                     __pcstackBANK0:	
   528                           ; 1 bytes @ 0xE
   529                           
   530     0020                     ?___fldiv:
   531     0020                     ___fldiv@a:	
   532                           ; 4 bytes @ 0x0
   533                           
   534                           
   535                           ; 4 bytes @ 0x0
   536     0020                     	ds	4
   537     0024                     ___fldiv@b:
   538                           
   539                           ; 4 bytes @ 0x4
   540     0024                     	ds	4
   541     0028                     ??___fldiv:
   542                           
   543                           ; 1 bytes @ 0x8
   544     0028                     	ds	5
   545     002D                     ___fldiv@rem:
   546                           
   547                           ; 4 bytes @ 0xD
   548     002D                     	ds	4
   549     0031                     ___fldiv@sign:
   550                           
   551                           ; 1 bytes @ 0x11
   552     0031                     	ds	1
   553     0032                     ___fldiv@new_exp:
   554                           
   555                           ; 2 bytes @ 0x12
   556     0032                     	ds	2
   557     0034                     ___fldiv@grs:
   558                           
   559                           ; 4 bytes @ 0x14
   560     0034                     	ds	4
   561     0038                     ___fldiv@bexp:
   562                           
   563                           ; 1 bytes @ 0x18
   564     0038                     	ds	1
   565     0039                     ___fldiv@aexp:
   566                           
   567                           ; 1 bytes @ 0x19
   568     0039                     	ds	1
   569     003A                     ?___flmul:
   570     003A                     ___flmul@b:	
   571                           ; 4 bytes @ 0x1A
   572                           
   573                           
   574                           ; 4 bytes @ 0x1A
   575     003A                     	ds	4
   576     003E                     ___flmul@a:
   577                           
   578                           ; 4 bytes @ 0x1E
   579     003E                     	ds	4
   580     0042                     ??___flmul:
   581                           
   582                           ; 1 bytes @ 0x22
   583     0042                     	ds	5
   584     0047                     ___flmul@sign:
   585                           
   586                           ; 1 bytes @ 0x27
   587     0047                     	ds	1
   588     0048                     ___flmul@grs:
   589                           
   590                           ; 4 bytes @ 0x28
   591     0048                     	ds	4
   592     004C                     ___flmul@aexp:
   593                           
   594                           ; 1 bytes @ 0x2C
   595     004C                     	ds	1
   596     004D                     ___flmul@bexp:
   597                           
   598                           ; 1 bytes @ 0x2D
   599     004D                     	ds	1
   600     004E                     ___flmul@prod:
   601                           
   602                           ; 4 bytes @ 0x2E
   603     004E                     	ds	4
   604     0052                     ___flmul@temp:
   605                           
   606                           ; 2 bytes @ 0x32
   607     0052                     	ds	2
   608     0054                     ?___fladd:
   609     0054                     ___fladd@b:	
   610                           ; 4 bytes @ 0x34
   611                           
   612                           
   613                           ; 4 bytes @ 0x34
   614     0054                     	ds	4
   615     0058                     ___fladd@a:
   616                           
   617                           ; 4 bytes @ 0x38
   618     0058                     	ds	4
   619     005C                     ??___fladd:
   620                           
   621                           ; 1 bytes @ 0x3C
   622     005C                     	ds	8
   623     0064                     ___fladd@signs:
   624                           
   625                           ; 1 bytes @ 0x44
   626     0064                     	ds	1
   627     0065                     ___fladd@aexp:
   628                           
   629                           ; 1 bytes @ 0x45
   630     0065                     	ds	1
   631     0066                     ___fladd@bexp:
   632                           
   633                           ; 1 bytes @ 0x46
   634     0066                     	ds	1
   635     0067                     ___fladd@grs:
   636                           
   637                           ; 1 bytes @ 0x47
   638     0067                     	ds	1
   639     0068                     ?___fltol:
   640     0068                     ___fltol@f1:	
   641                           ; 4 bytes @ 0x48
   642                           
   643                           
   644                           ; 4 bytes @ 0x48
   645     0068                     	ds	4
   646     006C                     ??___fltol:
   647                           
   648                           ; 1 bytes @ 0x4C
   649     006C                     	ds	4
   650                           
   651                           	psect	maintext
   652     05E9                     __pmaintext:	
   653 ;;
   654 ;;Main: autosize = 0, tempsize = 2, incstack = 0, save=0
   655 ;;
   656 ;; *************** function _main *****************
   657 ;; Defined at:
   658 ;;		line 209 in file "main.c"
   659 ;; Parameters:    Size  Location     Type
   660 ;;		None
   661 ;; Auto vars:     Size  Location     Type
   662 ;;		None
   663 ;; Return value:  Size  Location     Type
   664 ;;                  1    wreg      void 
   665 ;; Registers used:
   666 ;;		wreg, status,2, status,0, pclath, cstack
   667 ;; Tracked objects:
   668 ;;		On entry : B00/0
   669 ;;		On exit  : 0/0
   670 ;;		Unchanged: 0/0
   671 ;; Data sizes:     COMMON   BANK0   BANK1   BANK3   BANK2
   672 ;;      Params:         0       0       0       0       0
   673 ;;      Locals:         0       0       0       0       0
   674 ;;      Temps:          0       0       0       2       0
   675 ;;      Totals:         0       0       0       2       0
   676 ;;Total ram usage:        2 bytes
   677 ;; Hardware stack levels required when called: 5
   678 ;; This function calls:
   679 ;;		_readFromEEPROM
   680 ;;		_setup
   681 ;;		_writeToEEPROM
   682 ;; This function is called by:
   683 ;;		Startup code after reset
   684 ;; This function uses a non-reentrant model
   685 ;;
   686                           
   687     05E9                     _main:	
   688                           ;psect for function _main
   689                           
   690     05E9                     l3113:	
   691                           ;incstack = 0
   692                           ; Regs used in _main: [wreg+status,2+status,0+pclath+cstack]
   693                           
   694                           
   695                           ;main.c: 211:     setup();
   696     05E9  120A  158A  21B7  120A  118A  	fcall	_setup
   697     05EE                     l3115:
   698                           
   699                           ;main.c: 215:         if (state == 0) {
   700     05EE  1683               	bsf	3,5	;RP0=1, select bank1
   701     05EF  1303               	bcf	3,6	;RP1=0, select bank1
   702     05F0  083A               	movf	_state^(0+128),w
   703     05F1  1D03               	btfss	3,2
   704     05F2  2DF4               	goto	u4161
   705     05F3  2DF5               	goto	u4160
   706     05F4                     u4161:
   707     05F4  2E97               	goto	l3159
   708     05F5                     u4160:
   709     05F5                     l3117:
   710                           
   711                           ;main.c: 217:             PORTDbits.RD4 = 1;
   712     05F5  1283               	bcf	3,5	;RP0=0, select bank0
   713     05F6  1303               	bcf	3,6	;RP1=0, select bank0
   714     05F7  1608               	bsf	8,4	;volatile
   715                           
   716                           ;main.c: 218:             PORTDbits.RD5 = 0;
   717     05F8  1288               	bcf	8,5	;volatile
   718                           
   719                           ;main.c: 219:             PORTDbits.RD6 = 0;
   720     05F9  1308               	bcf	8,6	;volatile
   721                           
   722                           ;main.c: 221:             if(ADCON0bits.GO == 0) {
   723     05FA  189F               	btfsc	31,1	;volatile
   724     05FB  2DFD               	goto	u4171
   725     05FC  2DFE               	goto	u4170
   726     05FD                     u4171:
   727     05FD  2DEE               	goto	l3115
   728     05FE                     u4170:
   729     05FE                     l3119:
   730                           
   731                           ;main.c: 222:                 if(ADCON0bits.CHS == 0b0000) {
   732     05FE  0C1F               	rrf	31,w	;volatile
   733     05FF  1683               	bsf	3,5	;RP0=1, select bank3
   734     0600  1703               	bsf	3,6	;RP1=1, select bank3
   735     0601  0092               	movwf	??_main^(0+384)
   736     0602  0C12               	rrf	??_main^(0+384),w
   737     0603  390F               	andlw	15
   738     0604  3A00               	xorlw	0
   739     0605  1D03               	skipz
   740     0606  2E08               	goto	u4181
   741     0607  2E09               	goto	u4180
   742     0608                     u4181:
   743     0608  2E14               	goto	l3125
   744     0609                     u4180:
   745     0609                     l3121:
   746                           
   747                           ;main.c: 223:                     flag = 1;
   748     0609  1683               	bsf	3,5	;RP0=1, select bank1
   749     060A  1303               	bcf	3,6	;RP1=0, select bank1
   750     060B  01BB               	clrf	_flag^(0+128)
   751     060C  0ABB               	incf	_flag^(0+128),f
   752     060D                     l3123:
   753                           
   754                           ;main.c: 224:                     ADCON0bits.CHS = 0b0001;
   755     060D  1283               	bcf	3,5	;RP0=0, select bank0
   756     060E  1303               	bcf	3,6	;RP1=0, select bank0
   757     060F  081F               	movf	31,w	;volatile
   758     0610  39C3               	andlw	-61
   759     0611  3804               	iorlw	4
   760     0612  009F               	movwf	31	;volatile
   761                           
   762                           ;main.c: 225:             }
   763     0613  2E89               	goto	l3155
   764     0614                     l3125:
   765     0614  1283               	bcf	3,5	;RP0=0, select bank0
   766     0615  1303               	bcf	3,6	;RP1=0, select bank0
   767     0616  0C1F               	rrf	31,w	;volatile
   768     0617  1683               	bsf	3,5	;RP0=1, select bank3
   769     0618  1703               	bsf	3,6	;RP1=1, select bank3
   770     0619  0092               	movwf	??_main^(0+384)
   771     061A  0C12               	rrf	??_main^(0+384),w
   772     061B  390F               	andlw	15
   773     061C  3A01               	xorlw	1
   774     061D  1D03               	skipz
   775     061E  2E20               	goto	u4191
   776     061F  2E21               	goto	u4190
   777     0620                     u4191:
   778     0620  2E2C               	goto	l3131
   779     0621                     u4190:
   780     0621                     l3127:
   781                           
   782                           ;main.c: 227:                 flag = 2;
   783     0621  3002               	movlw	2
   784     0622  1683               	bsf	3,5	;RP0=1, select bank1
   785     0623  1303               	bcf	3,6	;RP1=0, select bank1
   786     0624  00BB               	movwf	_flag^(0+128)
   787     0625                     l3129:
   788                           
   789                           ;main.c: 228:                 ADCON0bits.CHS = 0b0010;
   790     0625  1283               	bcf	3,5	;RP0=0, select bank0
   791     0626  1303               	bcf	3,6	;RP1=0, select bank0
   792     0627  081F               	movf	31,w	;volatile
   793     0628  39C3               	andlw	-61
   794     0629  3808               	iorlw	8
   795     062A  009F               	movwf	31	;volatile
   796                           
   797                           ;main.c: 229:             }
   798     062B  2E89               	goto	l3155
   799     062C                     l3131:
   800     062C  1283               	bcf	3,5	;RP0=0, select bank0
   801     062D  1303               	bcf	3,6	;RP1=0, select bank0
   802     062E  0C1F               	rrf	31,w	;volatile
   803     062F  1683               	bsf	3,5	;RP0=1, select bank3
   804     0630  1703               	bsf	3,6	;RP1=1, select bank3
   805     0631  0092               	movwf	??_main^(0+384)
   806     0632  0C12               	rrf	??_main^(0+384),w
   807     0633  390F               	andlw	15
   808     0634  3A02               	xorlw	2
   809     0635  1D03               	skipz
   810     0636  2E38               	goto	u4201
   811     0637  2E39               	goto	u4200
   812     0638                     u4201:
   813     0638  2E44               	goto	l3137
   814     0639                     u4200:
   815     0639                     l3133:
   816                           
   817                           ;main.c: 231:                 flag = 3;
   818     0639  3003               	movlw	3
   819     063A  1683               	bsf	3,5	;RP0=1, select bank1
   820     063B  1303               	bcf	3,6	;RP1=0, select bank1
   821     063C  00BB               	movwf	_flag^(0+128)
   822     063D                     l3135:
   823                           
   824                           ;main.c: 232:                 ADCON0bits.CHS = 0b0011;
   825     063D  1283               	bcf	3,5	;RP0=0, select bank0
   826     063E  1303               	bcf	3,6	;RP1=0, select bank0
   827     063F  081F               	movf	31,w	;volatile
   828     0640  39C3               	andlw	-61
   829     0641  380C               	iorlw	12
   830     0642  009F               	movwf	31	;volatile
   831                           
   832                           ;main.c: 233:             }
   833     0643  2E89               	goto	l3155
   834     0644                     l3137:
   835     0644  1283               	bcf	3,5	;RP0=0, select bank0
   836     0645  1303               	bcf	3,6	;RP1=0, select bank0
   837     0646  0C1F               	rrf	31,w	;volatile
   838     0647  1683               	bsf	3,5	;RP0=1, select bank3
   839     0648  1703               	bsf	3,6	;RP1=1, select bank3
   840     0649  0092               	movwf	??_main^(0+384)
   841     064A  0C12               	rrf	??_main^(0+384),w
   842     064B  390F               	andlw	15
   843     064C  3A03               	xorlw	3
   844     064D  1D03               	skipz
   845     064E  2E50               	goto	u4211
   846     064F  2E51               	goto	u4210
   847     0650                     u4211:
   848     0650  2E5C               	goto	l3143
   849     0651                     u4210:
   850     0651                     l3139:
   851                           
   852                           ;main.c: 235:                 flag = 4;
   853     0651  3004               	movlw	4
   854     0652  1683               	bsf	3,5	;RP0=1, select bank1
   855     0653  1303               	bcf	3,6	;RP1=0, select bank1
   856     0654  00BB               	movwf	_flag^(0+128)
   857     0655                     l3141:
   858                           
   859                           ;main.c: 236:                 ADCON0bits.CHS = 0b0100;
   860     0655  1283               	bcf	3,5	;RP0=0, select bank0
   861     0656  1303               	bcf	3,6	;RP1=0, select bank0
   862     0657  081F               	movf	31,w	;volatile
   863     0658  39C3               	andlw	-61
   864     0659  3810               	iorlw	16
   865     065A  009F               	movwf	31	;volatile
   866                           
   867                           ;main.c: 237:             }
   868     065B  2E89               	goto	l3155
   869     065C                     l3143:
   870     065C  1283               	bcf	3,5	;RP0=0, select bank0
   871     065D  1303               	bcf	3,6	;RP1=0, select bank0
   872     065E  0C1F               	rrf	31,w	;volatile
   873     065F  1683               	bsf	3,5	;RP0=1, select bank3
   874     0660  1703               	bsf	3,6	;RP1=1, select bank3
   875     0661  0092               	movwf	??_main^(0+384)
   876     0662  0C12               	rrf	??_main^(0+384),w
   877     0663  390F               	andlw	15
   878     0664  3A04               	xorlw	4
   879     0665  1D03               	skipz
   880     0666  2E68               	goto	u4221
   881     0667  2E69               	goto	u4220
   882     0668                     u4221:
   883     0668  2E74               	goto	l3149
   884     0669                     u4220:
   885     0669                     l3145:
   886                           
   887                           ;main.c: 239:                 flag = 5;
   888     0669  3005               	movlw	5
   889     066A  1683               	bsf	3,5	;RP0=1, select bank1
   890     066B  1303               	bcf	3,6	;RP1=0, select bank1
   891     066C  00BB               	movwf	_flag^(0+128)
   892     066D                     l3147:
   893                           
   894                           ;main.c: 240:                 ADCON0bits.CHS = 0b0101;
   895     066D  1283               	bcf	3,5	;RP0=0, select bank0
   896     066E  1303               	bcf	3,6	;RP1=0, select bank0
   897     066F  081F               	movf	31,w	;volatile
   898     0670  39C3               	andlw	-61
   899     0671  3814               	iorlw	20
   900     0672  009F               	movwf	31	;volatile
   901                           
   902                           ;main.c: 241:             }
   903     0673  2E89               	goto	l3155
   904     0674                     l3149:
   905     0674  1283               	bcf	3,5	;RP0=0, select bank0
   906     0675  1303               	bcf	3,6	;RP1=0, select bank0
   907     0676  0C1F               	rrf	31,w	;volatile
   908     0677  1683               	bsf	3,5	;RP0=1, select bank3
   909     0678  1703               	bsf	3,6	;RP1=1, select bank3
   910     0679  0092               	movwf	??_main^(0+384)
   911     067A  0C12               	rrf	??_main^(0+384),w
   912     067B  390F               	andlw	15
   913     067C  3A05               	xorlw	5
   914     067D  1D03               	skipz
   915     067E  2E80               	goto	u4231
   916     067F  2E81               	goto	u4230
   917     0680                     u4231:
   918     0680  2E89               	goto	l248
   919     0681                     u4230:
   920     0681                     l3151:
   921                           
   922                           ;main.c: 243:                 flag = 0;
   923     0681  1683               	bsf	3,5	;RP0=1, select bank1
   924     0682  1303               	bcf	3,6	;RP1=0, select bank1
   925     0683  01BB               	clrf	_flag^(0+128)
   926     0684                     l3153:
   927                           
   928                           ;main.c: 244:                 ADCON0bits.CHS = 0b0000;
   929     0684  30C3               	movlw	-61
   930     0685  1283               	bcf	3,5	;RP0=0, select bank0
   931     0686  1303               	bcf	3,6	;RP1=0, select bank0
   932     0687  059F               	andwf	31,f	;volatile
   933     0688  2E89               	goto	l3155
   934     0689                     l248:
   935     0689                     l3155:
   936                           
   937                           ;main.c: 247:             _delay((unsigned long)((50)*(8000000/4000.0)));
   938     0689  3082               	movlw	130
   939     068A  1683               	bsf	3,5	;RP0=1, select bank3
   940     068B  1703               	bsf	3,6	;RP1=1, select bank3
   941     068C  0093               	movwf	(??_main^(0+384)+1)
   942     068D  30DD               	movlw	221
   943     068E  0092               	movwf	??_main^(0+384)
   944     068F                     u4417:
   945     068F  0B92               	decfsz	??_main^(0+384),f
   946     0690  2E8F               	goto	u4417
   947     0691  0B93               	decfsz	(??_main^(0+384)+1),f
   948     0692  2E8F               	goto	u4417
   949     0693                     l3157:
   950                           
   951                           ;main.c: 248:             ADCON0bits.GO = 1;
   952     0693  1283               	bcf	3,5	;RP0=0, select bank0
   953     0694  1303               	bcf	3,6	;RP1=0, select bank0
   954     0695  149F               	bsf	31,1	;volatile
   955     0696  2DEE               	goto	l3115
   956     0697                     l3159:
   957     0697  033A               	decf	_state^(0+128),w
   958     0698  1D03               	btfss	3,2
   959     0699  2E9B               	goto	u4241
   960     069A  2E9C               	goto	u4240
   961     069B                     u4241:
   962     069B  2EDE               	goto	l3167
   963     069C                     u4240:
   964     069C                     l3161:
   965                           
   966                           ;main.c: 254:             PORTDbits.RD4 = 0;
   967     069C  1283               	bcf	3,5	;RP0=0, select bank0
   968     069D  1303               	bcf	3,6	;RP1=0, select bank0
   969     069E  1208               	bcf	8,4	;volatile
   970                           
   971                           ;main.c: 255:             PORTDbits.RD5 = 1;
   972     069F  1688               	bsf	8,5	;volatile
   973                           
   974                           ;main.c: 256:             PORTDbits.RD6 = 0;
   975     06A0  1308               	bcf	8,6	;volatile
   976     06A1                     l3163:
   977                           
   978                           ;main.c: 259:             CCPR1L = readFromEEPROM(0x01);
   979     06A1  3001               	movlw	1
   980     06A2  120A  158A  20ED  120A  118A  	fcall	_readFromEEPROM
   981     06A7  1283               	bcf	3,5	;RP0=0, select bank0
   982     06A8  1303               	bcf	3,6	;RP1=0, select bank0
   983     06A9  0095               	movwf	21	;volatile
   984                           
   985                           ;main.c: 260:             CCPR2L = readFromEEPROM(0x02);
   986     06AA  3002               	movlw	2
   987     06AB  120A  158A  20ED  120A  118A  	fcall	_readFromEEPROM
   988     06B0  1283               	bcf	3,5	;RP0=0, select bank0
   989     06B1  1303               	bcf	3,6	;RP1=0, select bank0
   990     06B2  009B               	movwf	27	;volatile
   991                           
   992                           ;main.c: 261:             pot3 = readFromEEPROM(0x03);
   993     06B3  3003               	movlw	3
   994     06B4  120A  158A  20ED  120A  118A  	fcall	_readFromEEPROM
   995     06B9  1683               	bsf	3,5	;RP0=1, select bank1
   996     06BA  1303               	bcf	3,6	;RP1=0, select bank1
   997     06BB  00C4               	movwf	_pot3^(0+128)
   998                           
   999                           ;main.c: 262:             pot4 = readFromEEPROM(0x04);
  1000     06BC  3004               	movlw	4
  1001     06BD  120A  158A  20ED  120A  118A  	fcall	_readFromEEPROM
  1002     06C2  1683               	bsf	3,5	;RP0=1, select bank1
  1003     06C3  1303               	bcf	3,6	;RP1=0, select bank1
  1004     06C4  00C3               	movwf	_pot4^(0+128)
  1005                           
  1006                           ;main.c: 263:             pot5 = readFromEEPROM(0x05);
  1007     06C5  3005               	movlw	5
  1008     06C6  120A  158A  20ED  120A  118A  	fcall	_readFromEEPROM
  1009     06CB  1683               	bsf	3,5	;RP0=1, select bank1
  1010     06CC  1303               	bcf	3,6	;RP1=0, select bank1
  1011     06CD  00C2               	movwf	_pot5^(0+128)
  1012                           
  1013                           ;main.c: 264:             pot6 = readFromEEPROM(0x06);
  1014     06CE  3006               	movlw	6
  1015     06CF  120A  158A  20ED  120A  118A  	fcall	_readFromEEPROM
  1016     06D4  1683               	bsf	3,5	;RP0=1, select bank1
  1017     06D5  1303               	bcf	3,6	;RP1=0, select bank1
  1018     06D6  00C1               	movwf	_pot6^(0+128)
  1019     06D7                     l3165:	
  1020                           ;main.c: 266:             while(state == 1);
  1021                           
  1022     06D7  033A               	decf	_state^(0+128),w
  1023     06D8  1903               	btfsc	3,2
  1024     06D9  2EDB               	goto	u4251
  1025     06DA  2EDC               	goto	u4250
  1026     06DB                     u4251:
  1027     06DB  2ED7               	goto	l3165
  1028     06DC                     u4250:
  1029     06DC  2DEE               	goto	l3115
  1030     06DD                     l258:
  1031                           
  1032                           ;main.c: 267:         }
  1033     06DD  2DEE               	goto	l3115
  1034     06DE                     l3167:
  1035     06DE  3002               	movlw	2
  1036     06DF  063A               	xorwf	_state^(0+128),w
  1037     06E0  1D03               	btfss	3,2
  1038     06E1  2EE3               	goto	u4261
  1039     06E2  2EE4               	goto	u4260
  1040     06E3                     u4261:
  1041     06E3  2F2A               	goto	l3195
  1042     06E4                     u4260:
  1043     06E4                     l3169:
  1044                           
  1045                           ;main.c: 271:             PORTDbits.RD4 = 1;
  1046     06E4  1283               	bcf	3,5	;RP0=0, select bank0
  1047     06E5  1303               	bcf	3,6	;RP1=0, select bank0
  1048     06E6  1608               	bsf	8,4	;volatile
  1049                           
  1050                           ;main.c: 272:             PORTDbits.RD5 = 1;
  1051     06E7  1688               	bsf	8,5	;volatile
  1052                           
  1053                           ;main.c: 273:             PORTDbits.RD6 = 0;
  1054     06E8  1308               	bcf	8,6	;volatile
  1055     06E9                     l3171:
  1056                           
  1057                           ;main.c: 275:             if(servo == 1) {
  1058     06E9  1683               	bsf	3,5	;RP0=1, select bank1
  1059     06EA  1303               	bcf	3,6	;RP1=0, select bank1
  1060     06EB  0320               	decf	_servo^(0+128),w
  1061     06EC  0421               	iorwf	(_servo+1)^(0+128),w
  1062     06ED  1D03               	btfss	3,2
  1063     06EE  2EF0               	goto	u4271
  1064     06EF  2EF1               	goto	u4270
  1065     06F0                     u4271:
  1066     06F0  2EF6               	goto	l3175
  1067     06F1                     u4270:
  1068     06F1                     l3173:
  1069                           
  1070                           ;main.c: 276:                 CCPR1L = 250;
  1071     06F1  30FA               	movlw	250
  1072     06F2  1283               	bcf	3,5	;RP0=0, select bank0
  1073     06F3  1303               	bcf	3,6	;RP1=0, select bank0
  1074     06F4  0095               	movwf	21	;volatile
  1075                           
  1076                           ;main.c: 277:             }
  1077     06F5  2DEE               	goto	l3115
  1078     06F6                     l3175:
  1079     06F6  3002               	movlw	2
  1080     06F7  0620               	xorwf	_servo^(0+128),w
  1081     06F8  0421               	iorwf	(_servo+1)^(0+128),w
  1082     06F9  1D03               	btfss	3,2
  1083     06FA  2EFC               	goto	u4281
  1084     06FB  2EFD               	goto	u4280
  1085     06FC                     u4281:
  1086     06FC  2F02               	goto	l3179
  1087     06FD                     u4280:
  1088     06FD                     l3177:
  1089                           
  1090                           ;main.c: 279:                 CCPR2L = 130;
  1091     06FD  3082               	movlw	130
  1092     06FE  1283               	bcf	3,5	;RP0=0, select bank0
  1093     06FF  1303               	bcf	3,6	;RP1=0, select bank0
  1094     0700  009B               	movwf	27	;volatile
  1095                           
  1096                           ;main.c: 280:             }
  1097     0701  2DEE               	goto	l3115
  1098     0702                     l3179:
  1099     0702  3003               	movlw	3
  1100     0703  0620               	xorwf	_servo^(0+128),w
  1101     0704  0421               	iorwf	(_servo+1)^(0+128),w
  1102     0705  1D03               	btfss	3,2
  1103     0706  2F08               	goto	u4291
  1104     0707  2F09               	goto	u4290
  1105     0708                     u4291:
  1106     0708  2F0C               	goto	l3183
  1107     0709                     u4290:
  1108     0709                     l3181:
  1109                           
  1110                           ;main.c: 282:                 pot3 = 7;
  1111     0709  3007               	movlw	7
  1112     070A  00C4               	movwf	_pot3^(0+128)
  1113                           
  1114                           ;main.c: 283:             }
  1115     070B  2DEE               	goto	l3115
  1116     070C                     l3183:
  1117     070C  3004               	movlw	4
  1118     070D  0620               	xorwf	_servo^(0+128),w
  1119     070E  0421               	iorwf	(_servo+1)^(0+128),w
  1120     070F  1D03               	btfss	3,2
  1121     0710  2F12               	goto	u4301
  1122     0711  2F13               	goto	u4300
  1123     0712                     u4301:
  1124     0712  2F16               	goto	l3187
  1125     0713                     u4300:
  1126     0713                     l3185:
  1127                           
  1128                           ;main.c: 285:                 pot4 = 7;
  1129     0713  3007               	movlw	7
  1130     0714  00C3               	movwf	_pot4^(0+128)
  1131                           
  1132                           ;main.c: 286:             }
  1133     0715  2DEE               	goto	l3115
  1134     0716                     l3187:
  1135     0716  3005               	movlw	5
  1136     0717  0620               	xorwf	_servo^(0+128),w
  1137     0718  0421               	iorwf	(_servo+1)^(0+128),w
  1138     0719  1D03               	btfss	3,2
  1139     071A  2F1C               	goto	u4311
  1140     071B  2F1D               	goto	u4310
  1141     071C                     u4311:
  1142     071C  2F20               	goto	l3191
  1143     071D                     u4310:
  1144     071D                     l3189:
  1145                           
  1146                           ;main.c: 288:                 pot5 = 4;
  1147     071D  3004               	movlw	4
  1148     071E  00C2               	movwf	_pot5^(0+128)
  1149                           
  1150                           ;main.c: 289:             }
  1151     071F  2DEE               	goto	l3115
  1152     0720                     l3191:
  1153     0720  3006               	movlw	6
  1154     0721  0620               	xorwf	_servo^(0+128),w
  1155     0722  0421               	iorwf	(_servo+1)^(0+128),w
  1156     0723  1D03               	btfss	3,2
  1157     0724  2F26               	goto	u4321
  1158     0725  2F27               	goto	u4320
  1159     0726                     u4321:
  1160     0726  2EDD               	goto	l258
  1161     0727                     u4320:
  1162     0727                     l3193:
  1163                           
  1164                           ;main.c: 291:                 pot6 = 10;
  1165     0727  300A               	movlw	10
  1166     0728  00C1               	movwf	_pot6^(0+128)
  1167     0729  2DEE               	goto	l3115
  1168     072A                     l3195:
  1169     072A  3003               	movlw	3
  1170     072B  063A               	xorwf	_state^(0+128),w
  1171     072C  1D03               	btfss	3,2
  1172     072D  2F2F               	goto	u4331
  1173     072E  2F30               	goto	u4330
  1174     072F                     u4331:
  1175     072F  2F76               	goto	l3223
  1176     0730                     u4330:
  1177     0730                     l3197:
  1178                           
  1179                           ;main.c: 297:             PORTDbits.RD4 = 0;
  1180     0730  1283               	bcf	3,5	;RP0=0, select bank0
  1181     0731  1303               	bcf	3,6	;RP1=0, select bank0
  1182     0732  1208               	bcf	8,4	;volatile
  1183                           
  1184                           ;main.c: 298:             PORTDbits.RD5 = 0;
  1185     0733  1288               	bcf	8,5	;volatile
  1186                           
  1187                           ;main.c: 299:             PORTDbits.RD6 = 1;
  1188     0734  1708               	bsf	8,6	;volatile
  1189     0735                     l3199:
  1190                           
  1191                           ;main.c: 301:             if(servo == 1) {
  1192     0735  1683               	bsf	3,5	;RP0=1, select bank1
  1193     0736  1303               	bcf	3,6	;RP1=0, select bank1
  1194     0737  0320               	decf	_servo^(0+128),w
  1195     0738  0421               	iorwf	(_servo+1)^(0+128),w
  1196     0739  1D03               	btfss	3,2
  1197     073A  2F3C               	goto	u4341
  1198     073B  2F3D               	goto	u4340
  1199     073C                     u4341:
  1200     073C  2F42               	goto	l3203
  1201     073D                     u4340:
  1202     073D                     l3201:
  1203                           
  1204                           ;main.c: 302:                 CCPR1L = 200;
  1205     073D  30C8               	movlw	200
  1206     073E  1283               	bcf	3,5	;RP0=0, select bank0
  1207     073F  1303               	bcf	3,6	;RP1=0, select bank0
  1208     0740  0095               	movwf	21	;volatile
  1209                           
  1210                           ;main.c: 303:             }
  1211     0741  2DEE               	goto	l3115
  1212     0742                     l3203:
  1213     0742  3002               	movlw	2
  1214     0743  0620               	xorwf	_servo^(0+128),w
  1215     0744  0421               	iorwf	(_servo+1)^(0+128),w
  1216     0745  1D03               	btfss	3,2
  1217     0746  2F48               	goto	u4351
  1218     0747  2F49               	goto	u4350
  1219     0748                     u4351:
  1220     0748  2F4E               	goto	l3207
  1221     0749                     u4350:
  1222     0749                     l3205:
  1223                           
  1224                           ;main.c: 305:                 CCPR2L = 185;
  1225     0749  30B9               	movlw	185
  1226     074A  1283               	bcf	3,5	;RP0=0, select bank0
  1227     074B  1303               	bcf	3,6	;RP1=0, select bank0
  1228     074C  009B               	movwf	27	;volatile
  1229                           
  1230                           ;main.c: 306:             }
  1231     074D  2DEE               	goto	l3115
  1232     074E                     l3207:
  1233     074E  3003               	movlw	3
  1234     074F  0620               	xorwf	_servo^(0+128),w
  1235     0750  0421               	iorwf	(_servo+1)^(0+128),w
  1236     0751  1D03               	btfss	3,2
  1237     0752  2F54               	goto	u4361
  1238     0753  2F55               	goto	u4360
  1239     0754                     u4361:
  1240     0754  2F58               	goto	l3211
  1241     0755                     u4360:
  1242     0755                     l3209:
  1243                           
  1244                           ;main.c: 308:                 pot3 = 9;
  1245     0755  3009               	movlw	9
  1246     0756  00C4               	movwf	_pot3^(0+128)
  1247                           
  1248                           ;main.c: 309:             }
  1249     0757  2DEE               	goto	l3115
  1250     0758                     l3211:
  1251     0758  3004               	movlw	4
  1252     0759  0620               	xorwf	_servo^(0+128),w
  1253     075A  0421               	iorwf	(_servo+1)^(0+128),w
  1254     075B  1D03               	btfss	3,2
  1255     075C  2F5E               	goto	u4371
  1256     075D  2F5F               	goto	u4370
  1257     075E                     u4371:
  1258     075E  2F62               	goto	l3215
  1259     075F                     u4370:
  1260     075F                     l3213:
  1261                           
  1262                           ;main.c: 311:                 pot4 = 1;
  1263     075F  01C3               	clrf	_pot4^(0+128)
  1264     0760  0AC3               	incf	_pot4^(0+128),f
  1265                           
  1266                           ;main.c: 312:             }
  1267     0761  2DEE               	goto	l3115
  1268     0762                     l3215:
  1269     0762  3005               	movlw	5
  1270     0763  0620               	xorwf	_servo^(0+128),w
  1271     0764  0421               	iorwf	(_servo+1)^(0+128),w
  1272     0765  1D03               	btfss	3,2
  1273     0766  2F68               	goto	u4381
  1274     0767  2F69               	goto	u4380
  1275     0768                     u4381:
  1276     0768  2F6C               	goto	l3219
  1277     0769                     u4380:
  1278     0769                     l3217:
  1279                           
  1280                           ;main.c: 314:                 pot5 = 8;
  1281     0769  3008               	movlw	8
  1282     076A  00C2               	movwf	_pot5^(0+128)
  1283                           
  1284                           ;main.c: 315:             }
  1285     076B  2DEE               	goto	l3115
  1286     076C                     l3219:
  1287     076C  3006               	movlw	6
  1288     076D  0620               	xorwf	_servo^(0+128),w
  1289     076E  0421               	iorwf	(_servo+1)^(0+128),w
  1290     076F  1D03               	btfss	3,2
  1291     0770  2F72               	goto	u4391
  1292     0771  2F73               	goto	u4390
  1293     0772                     u4391:
  1294     0772  2EDD               	goto	l258
  1295     0773                     u4390:
  1296     0773                     l3221:
  1297                           
  1298                           ;main.c: 317:                 pot6 = 8;
  1299     0773  3008               	movlw	8
  1300     0774  00C1               	movwf	_pot6^(0+128)
  1301     0775  2DEE               	goto	l3115
  1302     0776                     l3223:
  1303     0776  3004               	movlw	4
  1304     0777  063A               	xorwf	_state^(0+128),w
  1305     0778  1D03               	btfss	3,2
  1306     0779  2F7B               	goto	u4401
  1307     077A  2F7C               	goto	u4400
  1308     077B                     u4401:
  1309     077B  2EDD               	goto	l258
  1310     077C                     u4400:
  1311     077C                     l3225:
  1312                           
  1313                           ;main.c: 323:             PORTDbits.RD4 = 1;
  1314     077C  1283               	bcf	3,5	;RP0=0, select bank0
  1315     077D  1303               	bcf	3,6	;RP1=0, select bank0
  1316     077E  1608               	bsf	8,4	;volatile
  1317                           
  1318                           ;main.c: 324:             PORTDbits.RD5 = 0;
  1319     077F  1288               	bcf	8,5	;volatile
  1320                           
  1321                           ;main.c: 325:             PORTDbits.RD6 = 1;
  1322     0780  1708               	bsf	8,6	;volatile
  1323     0781                     l3227:
  1324                           
  1325                           ;main.c: 327:             writeToEEPROM(CCPR1L, 0x01);
  1326     0781  1683               	bsf	3,5	;RP0=1, select bank1
  1327     0782  1303               	bcf	3,6	;RP1=0, select bank1
  1328     0783  01D8               	clrf	writeToEEPROM@address^(0+128)
  1329     0784  0AD8               	incf	writeToEEPROM@address^(0+128),f
  1330     0785  1283               	bcf	3,5	;RP0=0, select bank0
  1331     0786  1303               	bcf	3,6	;RP1=0, select bank0
  1332     0787  0815               	movf	21,w	;volatile
  1333     0788  120A  158A  2104  120A  118A  	fcall	_writeToEEPROM
  1334                           
  1335                           ;main.c: 328:             writeToEEPROM(CCPR2L, 0x02);
  1336     078D  3002               	movlw	2
  1337     078E  1683               	bsf	3,5	;RP0=1, select bank1
  1338     078F  1303               	bcf	3,6	;RP1=0, select bank1
  1339     0790  00D8               	movwf	writeToEEPROM@address^(0+128)
  1340     0791  1283               	bcf	3,5	;RP0=0, select bank0
  1341     0792  1303               	bcf	3,6	;RP1=0, select bank0
  1342     0793  081B               	movf	27,w	;volatile
  1343     0794  120A  158A  2104  120A  118A  	fcall	_writeToEEPROM
  1344                           
  1345                           ;main.c: 329:             writeToEEPROM(pot3, 0x03);
  1346     0799  3003               	movlw	3
  1347     079A  1683               	bsf	3,5	;RP0=1, select bank1
  1348     079B  1303               	bcf	3,6	;RP1=0, select bank1
  1349     079C  00D8               	movwf	writeToEEPROM@address^(0+128)
  1350     079D  0844               	movf	_pot3^(0+128),w
  1351     079E  120A  158A  2104  120A  118A  	fcall	_writeToEEPROM
  1352                           
  1353                           ;main.c: 330:             writeToEEPROM(pot4, 0x04);
  1354     07A3  3004               	movlw	4
  1355     07A4  1683               	bsf	3,5	;RP0=1, select bank1
  1356     07A5  1303               	bcf	3,6	;RP1=0, select bank1
  1357     07A6  00D8               	movwf	writeToEEPROM@address^(0+128)
  1358     07A7  0843               	movf	_pot4^(0+128),w
  1359     07A8  120A  158A  2104  120A  118A  	fcall	_writeToEEPROM
  1360                           
  1361                           ;main.c: 331:             writeToEEPROM(pot5, 0x05);
  1362     07AD  3005               	movlw	5
  1363     07AE  1683               	bsf	3,5	;RP0=1, select bank1
  1364     07AF  1303               	bcf	3,6	;RP1=0, select bank1
  1365     07B0  00D8               	movwf	writeToEEPROM@address^(0+128)
  1366     07B1  0842               	movf	_pot5^(0+128),w
  1367     07B2  120A  158A  2104  120A  118A  	fcall	_writeToEEPROM
  1368                           
  1369                           ;main.c: 332:             writeToEEPROM(pot6, 0x06);
  1370     07B7  3006               	movlw	6
  1371     07B8  1683               	bsf	3,5	;RP0=1, select bank1
  1372     07B9  1303               	bcf	3,6	;RP1=0, select bank1
  1373     07BA  00D8               	movwf	writeToEEPROM@address^(0+128)
  1374     07BB  0841               	movf	_pot6^(0+128),w
  1375     07BC  120A  158A  2104  120A  118A  	fcall	_writeToEEPROM
  1376     07C1  2DEE               	goto	l3115
  1377     07C2  120A  118A  2810   	ljmp	start
  1378     07C5                     __end_of_main:
  1379                           
  1380                           	psect	text1
  1381     0904                     __ptext1:	
  1382 ;; *************** function _writeToEEPROM *****************
  1383 ;; Defined at:
  1384 ;;		line 491 in file "main.c"
  1385 ;; Parameters:    Size  Location     Type
  1386 ;;  data            1    wreg     unsigned char 
  1387 ;;  address         1   19[BANK1 ] unsigned char 
  1388 ;; Auto vars:     Size  Location     Type
  1389 ;;  data            1    0[BANK3 ] unsigned char 
  1390 ;; Return value:  Size  Location     Type
  1391 ;;                  1    wreg      void 
  1392 ;; Registers used:
  1393 ;;		wreg
  1394 ;; Tracked objects:
  1395 ;;		On entry : 0/0
  1396 ;;		On exit  : 0/0
  1397 ;;		Unchanged: 0/0
  1398 ;; Data sizes:     COMMON   BANK0   BANK1   BANK3   BANK2
  1399 ;;      Params:         0       0       1       0       0
  1400 ;;      Locals:         0       0       0       1       0
  1401 ;;      Temps:          0       0       0       0       0
  1402 ;;      Totals:         0       0       1       1       0
  1403 ;;Total ram usage:        2 bytes
  1404 ;; Hardware stack levels used: 1
  1405 ;; Hardware stack levels required when called: 4
  1406 ;; This function calls:
  1407 ;;		Nothing
  1408 ;; This function is called by:
  1409 ;;		_main
  1410 ;; This function uses a non-reentrant model
  1411 ;;
  1412                           
  1413     0904                     _writeToEEPROM:	
  1414                           ;psect for function _writeToEEPROM
  1415                           
  1416                           
  1417                           ;incstack = 0
  1418                           ; Regs used in _writeToEEPROM: [wreg]
  1419                           ;writeToEEPROM@data stored from wreg
  1420     0904  1683               	bsf	3,5	;RP0=1, select bank3
  1421     0905  1703               	bsf	3,6	;RP1=1, select bank3
  1422     0906  0090               	movwf	writeToEEPROM@data^(0+384)
  1423     0907                     l3095:
  1424     0907                     l307:	
  1425                           ;main.c: 492:     while (WR);
  1426                           
  1427     0907  188C               	btfsc	12,1	;volsfr
  1428     0908  290A               	goto	u4141
  1429     0909  290B               	goto	u4140
  1430     090A                     u4141:
  1431     090A  2907               	goto	l307
  1432     090B                     u4140:
  1433     090B                     l3097:
  1434                           
  1435                           ;main.c: 493:     EEADR = address;
  1436     090B  1683               	bsf	3,5	;RP0=1, select bank1
  1437     090C  1303               	bcf	3,6	;RP1=0, select bank1
  1438     090D  0858               	movf	writeToEEPROM@address^(0+128),w
  1439     090E  1283               	bcf	3,5	;RP0=0, select bank2
  1440     090F  1703               	bsf	3,6	;RP1=1, select bank2
  1441     0910  008D               	movwf	13	;volatile
  1442                           
  1443                           ;main.c: 494:     EEDAT = data;
  1444     0911  1683               	bsf	3,5	;RP0=1, select bank3
  1445     0912  1703               	bsf	3,6	;RP1=1, select bank3
  1446     0913  0810               	movf	writeToEEPROM@data^(0+384),w
  1447     0914  1283               	bcf	3,5	;RP0=0, select bank2
  1448     0915  1703               	bsf	3,6	;RP1=1, select bank2
  1449     0916  008C               	movwf	12	;volatile
  1450     0917                     l3099:
  1451                           
  1452                           ;main.c: 496:     EECON1bits.WREN = 1;
  1453     0917  1683               	bsf	3,5	;RP0=1, select bank3
  1454     0918  1703               	bsf	3,6	;RP1=1, select bank3
  1455     0919  150C               	bsf	12,2	;volsfr
  1456     091A                     l3101:
  1457                           
  1458                           ;main.c: 497:     EECON1bits.EEPGD = 0;
  1459     091A  138C               	bcf	12,7	;volsfr
  1460     091B                     l3103:
  1461                           
  1462                           ;main.c: 499:     INTCONbits.GIE = 0;
  1463     091B  138B               	bcf	11,7	;volatile
  1464                           
  1465                           ;main.c: 501:     EECON2 = 0x55;
  1466     091C  3055               	movlw	85
  1467     091D  008D               	movwf	13	;volsfr
  1468                           
  1469                           ;main.c: 502:     EECON2 = 0xAA;
  1470     091E  30AA               	movlw	170
  1471     091F  008D               	movwf	13	;volsfr
  1472     0920                     l3105:
  1473                           
  1474                           ;main.c: 503:     EECON1bits.WR = 1;
  1475     0920  148C               	bsf	12,1	;volsfr
  1476     0921                     l3107:
  1477                           
  1478                           ;main.c: 505:     EECON1bits.WREN = 0;
  1479     0921  110C               	bcf	12,2	;volsfr
  1480     0922                     l3109:
  1481                           
  1482                           ;main.c: 506:     INTCONbits.RBIF = 0;
  1483     0922  100B               	bcf	11,0	;volatile
  1484     0923                     l3111:
  1485                           
  1486                           ;main.c: 507:     INTCONbits.GIE = 1;
  1487     0923  178B               	bsf	11,7	;volatile
  1488     0924                     l310:	
  1489                           ;main.c: 508:     while (WR);
  1490                           
  1491     0924  188C               	btfsc	12,1	;volsfr
  1492     0925  2927               	goto	u4151
  1493     0926  2928               	goto	u4150
  1494     0927                     u4151:
  1495     0927  2924               	goto	l310
  1496     0928                     u4150:
  1497     0928                     l313:
  1498     0928  0008               	return
  1499     0929                     __end_of_writeToEEPROM:
  1500                           
  1501                           	psect	text2
  1502     09B7                     __ptext2:	
  1503 ;; *************** function _setup *****************
  1504 ;; Defined at:
  1505 ;;		line 340 in file "main.c"
  1506 ;; Parameters:    Size  Location     Type
  1507 ;;		None
  1508 ;; Auto vars:     Size  Location     Type
  1509 ;;		None
  1510 ;; Return value:  Size  Location     Type
  1511 ;;                  1    wreg      void 
  1512 ;; Registers used:
  1513 ;;		wreg, status,2, status,0
  1514 ;; Tracked objects:
  1515 ;;		On entry : 0/0
  1516 ;;		On exit  : 0/0
  1517 ;;		Unchanged: 0/0
  1518 ;; Data sizes:     COMMON   BANK0   BANK1   BANK3   BANK2
  1519 ;;      Params:         0       0       0       0       0
  1520 ;;      Locals:         0       0       0       0       0
  1521 ;;      Temps:          0       0       0       2       0
  1522 ;;      Totals:         0       0       0       2       0
  1523 ;;Total ram usage:        2 bytes
  1524 ;; Hardware stack levels used: 1
  1525 ;; Hardware stack levels required when called: 4
  1526 ;; This function calls:
  1527 ;;		Nothing
  1528 ;; This function is called by:
  1529 ;;		_main
  1530 ;; This function uses a non-reentrant model
  1531 ;;
  1532                           
  1533     09B7                     _setup:	
  1534                           ;psect for function _setup
  1535                           
  1536     09B7                     l2945:	
  1537                           ;incstack = 0
  1538                           ; Regs used in _setup: [wreg+status,2+status,0]
  1539                           
  1540                           
  1541                           ;main.c: 343:     ANSEL = 0b00111111;
  1542     09B7  303F               	movlw	63
  1543     09B8  1683               	bsf	3,5	;RP0=1, select bank3
  1544     09B9  1703               	bsf	3,6	;RP1=1, select bank3
  1545     09BA  0088               	movwf	8	;volatile
  1546     09BB                     l2947:
  1547                           
  1548                           ;main.c: 344:     ANSELH = 0;
  1549     09BB  0189               	clrf	9	;volatile
  1550     09BC                     l2949:
  1551                           
  1552                           ;main.c: 346:     TRISA = 0b00101111;
  1553     09BC  302F               	movlw	47
  1554     09BD  1683               	bsf	3,5	;RP0=1, select bank1
  1555     09BE  1303               	bcf	3,6	;RP1=0, select bank1
  1556     09BF  0085               	movwf	5	;volatile
  1557     09C0                     l2951:
  1558                           
  1559                           ;main.c: 347:     TRISB = 0b00011111;
  1560     09C0  301F               	movlw	31
  1561     09C1  0086               	movwf	6	;volatile
  1562     09C2                     l2953:
  1563                           
  1564                           ;main.c: 348:     TRISC = 0;
  1565     09C2  0187               	clrf	7	;volatile
  1566     09C3                     l2955:
  1567                           
  1568                           ;main.c: 349:     TRISD = 0;
  1569     09C3  0188               	clrf	8	;volatile
  1570     09C4                     l2957:
  1571                           
  1572                           ;main.c: 350:     TRISE = 0b0001;
  1573     09C4  3001               	movlw	1
  1574     09C5  0089               	movwf	9	;volatile
  1575                           
  1576                           ;main.c: 352:     PORTA = 0;
  1577     09C6  1283               	bcf	3,5	;RP0=0, select bank0
  1578     09C7  1303               	bcf	3,6	;RP1=0, select bank0
  1579     09C8  0185               	clrf	5	;volatile
  1580                           
  1581                           ;main.c: 353:     PORTB = 0;
  1582     09C9  0186               	clrf	6	;volatile
  1583                           
  1584                           ;main.c: 354:     PORTC = 0;
  1585     09CA  0187               	clrf	7	;volatile
  1586                           
  1587                           ;main.c: 355:     PORTD = 0;
  1588     09CB  0188               	clrf	8	;volatile
  1589                           
  1590                           ;main.c: 356:     PORTE = 0;
  1591     09CC  0189               	clrf	9	;volatile
  1592     09CD                     l2959:
  1593                           
  1594                           ;main.c: 359:     OPTION_REGbits.nRBPU = 0;
  1595     09CD  1683               	bsf	3,5	;RP0=1, select bank1
  1596     09CE  1303               	bcf	3,6	;RP1=0, select bank1
  1597     09CF  1381               	bcf	1,7	;volatile
  1598     09D0                     l2961:
  1599                           
  1600                           ;main.c: 360:     WPUBbits.WPUB0 = 1;
  1601     09D0  1415               	bsf	21,0	;volatile
  1602     09D1                     l2963:
  1603                           
  1604                           ;main.c: 361:     WPUBbits.WPUB1 = 1;
  1605     09D1  1495               	bsf	21,1	;volatile
  1606     09D2                     l2965:
  1607                           
  1608                           ;main.c: 362:     WPUBbits.WPUB2 = 1;
  1609     09D2  1515               	bsf	21,2	;volatile
  1610     09D3                     l2967:
  1611                           
  1612                           ;main.c: 363:     WPUBbits.WPUB3 = 1;
  1613     09D3  1595               	bsf	21,3	;volatile
  1614     09D4                     l2969:
  1615                           
  1616                           ;main.c: 364:     WPUBbits.WPUB4 = 1;
  1617     09D4  1615               	bsf	21,4	;volatile
  1618     09D5                     l2971:
  1619                           
  1620                           ;main.c: 365:     WPUBbits.WPUB5 = 1;
  1621     09D5  1695               	bsf	21,5	;volatile
  1622     09D6                     l2973:
  1623                           
  1624                           ;main.c: 366:     WPUBbits.WPUB6 = 1;
  1625     09D6  1715               	bsf	21,6	;volatile
  1626     09D7                     l2975:
  1627                           
  1628                           ;main.c: 367:     WPUBbits.WPUB7 = 1;
  1629     09D7  1795               	bsf	21,7	;volatile
  1630     09D8                     l2977:
  1631                           
  1632                           ;main.c: 370:     OSCCONbits.IRCF = 0b111;
  1633     09D8  3070               	movlw	112
  1634     09D9  048F               	iorwf	15,f	;volatile
  1635     09DA                     l2979:
  1636                           
  1637                           ;main.c: 371:     OSCCONbits.SCS = 1;
  1638     09DA  140F               	bsf	15,0	;volatile
  1639     09DB                     l2981:
  1640                           
  1641                           ;main.c: 374:     ADCON0bits.ADCS = 0b10;
  1642     09DB  1283               	bcf	3,5	;RP0=0, select bank0
  1643     09DC  1303               	bcf	3,6	;RP1=0, select bank0
  1644     09DD  081F               	movf	31,w	;volatile
  1645     09DE  393F               	andlw	-193
  1646     09DF  3880               	iorlw	128
  1647     09E0  009F               	movwf	31	;volatile
  1648     09E1                     l2983:
  1649                           
  1650                           ;main.c: 375:     ADCON1bits.VCFG0 = 0;
  1651     09E1  1683               	bsf	3,5	;RP0=1, select bank1
  1652     09E2  1303               	bcf	3,6	;RP1=0, select bank1
  1653     09E3  121F               	bcf	31,4	;volatile
  1654     09E4                     l2985:
  1655                           
  1656                           ;main.c: 376:     ADCON1bits.VCFG1 = 0;
  1657     09E4  129F               	bcf	31,5	;volatile
  1658     09E5                     l2987:
  1659                           
  1660                           ;main.c: 377:     ADCON1bits.ADFM = 0;
  1661     09E5  139F               	bcf	31,7	;volatile
  1662     09E6                     l2989:
  1663                           
  1664                           ;main.c: 378:     ADCON0bits.ADON = 1;
  1665     09E6  1283               	bcf	3,5	;RP0=0, select bank0
  1666     09E7  1303               	bcf	3,6	;RP1=0, select bank0
  1667     09E8  141F               	bsf	31,0	;volatile
  1668     09E9                     l2991:
  1669                           
  1670                           ;main.c: 380:     ADCON0bits.CHS = 0b0000;
  1671     09E9  30C3               	movlw	-61
  1672     09EA  059F               	andwf	31,f	;volatile
  1673     09EB                     l2993:
  1674                           
  1675                           ;main.c: 381:     ADCON0bits.CHS = 0b0001;
  1676     09EB  081F               	movf	31,w	;volatile
  1677     09EC  39C3               	andlw	-61
  1678     09ED  3804               	iorlw	4
  1679     09EE  009F               	movwf	31	;volatile
  1680     09EF                     l2995:
  1681                           
  1682                           ;main.c: 382:     ADCON0bits.CHS = 0b0010;
  1683     09EF  081F               	movf	31,w	;volatile
  1684     09F0  39C3               	andlw	-61
  1685     09F1  3808               	iorlw	8
  1686     09F2  009F               	movwf	31	;volatile
  1687     09F3                     l2997:
  1688                           
  1689                           ;main.c: 383:     ADCON0bits.CHS = 0b0011;
  1690     09F3  081F               	movf	31,w	;volatile
  1691     09F4  39C3               	andlw	-61
  1692     09F5  380C               	iorlw	12
  1693     09F6  009F               	movwf	31	;volatile
  1694     09F7                     l2999:
  1695                           
  1696                           ;main.c: 385:     ADCON0bits.ADON = 1;
  1697     09F7  141F               	bsf	31,0	;volatile
  1698     09F8                     l3001:
  1699                           
  1700                           ;main.c: 386:     _delay((unsigned long)((10)*(8000000/4000.0)));
  1701     09F8  301A               	movlw	26
  1702     09F9  1683               	bsf	3,5	;RP0=1, select bank3
  1703     09FA  1703               	bsf	3,6	;RP1=1, select bank3
  1704     09FB  0091               	movwf	(??_setup^(0+384)+1)
  1705     09FC  30F7               	movlw	247
  1706     09FD  0090               	movwf	??_setup^(0+384)
  1707     09FE                     u4427:
  1708     09FE  0B90               	decfsz	??_setup^(0+384),f
  1709     09FF  29FE               	goto	u4427
  1710     0A00  0B91               	decfsz	(??_setup^(0+384)+1),f
  1711     0A01  29FE               	goto	u4427
  1712     0A02  2A03               	nop2
  1713     0A03                     l3003:
  1714                           
  1715                           ;main.c: 388:     OPTION_REGbits.T0CS = 0;
  1716     0A03  1683               	bsf	3,5	;RP0=1, select bank1
  1717     0A04  1303               	bcf	3,6	;RP1=0, select bank1
  1718     0A05  1281               	bcf	1,5	;volatile
  1719     0A06                     l3005:
  1720                           
  1721                           ;main.c: 389:     OPTION_REGbits.PSA = 0;
  1722     0A06  1181               	bcf	1,3	;volatile
  1723     0A07                     l3007:
  1724                           
  1725                           ;main.c: 390:     OPTION_REGbits.PS2 = 1;
  1726     0A07  1501               	bsf	1,2	;volatile
  1727     0A08                     l3009:
  1728                           
  1729                           ;main.c: 391:     OPTION_REGbits.PS1 = 0;
  1730     0A08  1081               	bcf	1,1	;volatile
  1731     0A09                     l3011:
  1732                           
  1733                           ;main.c: 392:     OPTION_REGbits.PS0 = 1;
  1734     0A09  1401               	bsf	1,0	;volatile
  1735     0A0A                     l3013:
  1736                           
  1737                           ;main.c: 393:     INTCONbits.T0IF = 0;
  1738     0A0A  110B               	bcf	11,2	;volatile
  1739     0A0B                     l3015:
  1740                           
  1741                           ;main.c: 396:     CCP1CON = 0;
  1742     0A0B  1283               	bcf	3,5	;RP0=0, select bank0
  1743     0A0C  1303               	bcf	3,6	;RP1=0, select bank0
  1744     0A0D  0197               	clrf	23	;volatile
  1745     0A0E                     l3017:
  1746                           
  1747                           ;main.c: 397:     CCP2CON = 0;
  1748     0A0E  019D               	clrf	29	;volatile
  1749     0A0F                     l3019:
  1750                           
  1751                           ;main.c: 398:     CCP1CONbits.P1M = 0;
  1752     0A0F  303F               	movlw	-193
  1753     0A10  0597               	andwf	23,f	;volatile
  1754     0A11                     l3021:
  1755                           
  1756                           ;main.c: 399:     CCP1CONbits.CCP1M = 0b1100;
  1757     0A11  0817               	movf	23,w	;volatile
  1758     0A12  39F0               	andlw	-16
  1759     0A13  380C               	iorlw	12
  1760     0A14  0097               	movwf	23	;volatile
  1761     0A15                     l3023:
  1762                           
  1763                           ;main.c: 400:     CCP2CONbits.CCP2M = 0b1100;
  1764     0A15  081D               	movf	29,w	;volatile
  1765     0A16  39F0               	andlw	-16
  1766     0A17  380C               	iorlw	12
  1767     0A18  009D               	movwf	29	;volatile
  1768     0A19                     l3025:
  1769                           
  1770                           ;main.c: 402:     CCPR1L = 250 >> 2;
  1771     0A19  303E               	movlw	62
  1772     0A1A  0095               	movwf	21	;volatile
  1773     0A1B                     l3027:
  1774                           
  1775                           ;main.c: 403:     CCP1CONbits.DC1B = 250 & 0b11;
  1776     0A1B  0817               	movf	23,w	;volatile
  1777     0A1C  39CF               	andlw	-49
  1778     0A1D  3820               	iorlw	32
  1779     0A1E  0097               	movwf	23	;volatile
  1780     0A1F                     l3029:
  1781                           
  1782                           ;main.c: 404:     CCPR2L = 250 >> 2;
  1783     0A1F  303E               	movlw	62
  1784     0A20  009B               	movwf	27	;volatile
  1785     0A21                     l3031:
  1786                           
  1787                           ;main.c: 405:     CCP2CONbits.DC2B0 = 250 & 0b01;
  1788     0A21  121D               	bcf	29,4	;volatile
  1789     0A22                     l3033:
  1790                           
  1791                           ;main.c: 406:     CCP2CONbits.DC2B1 = 250 & 0b10;
  1792     0A22  129D               	bcf	29,5	;volatile
  1793     0A23                     l3035:
  1794                           
  1795                           ;main.c: 408:     PIR1bits.TMR2IF = 0;
  1796     0A23  108C               	bcf	12,1	;volatile
  1797     0A24                     l3037:
  1798                           
  1799                           ;main.c: 409:     T2CONbits.T2CKPS = 0b11;
  1800     0A24  3003               	movlw	3
  1801     0A25  0492               	iorwf	18,f	;volatile
  1802     0A26                     l3039:
  1803                           
  1804                           ;main.c: 410:     T2CONbits.TMR2ON = 1;
  1805     0A26  1512               	bsf	18,2	;volatile
  1806     0A27                     l292:	
  1807                           ;main.c: 411:     while (!PIR1bits.TMR2IF);
  1808                           
  1809     0A27  1C8C               	btfss	12,1	;volatile
  1810     0A28  2A2A               	goto	u4131
  1811     0A29  2A2B               	goto	u4130
  1812     0A2A                     u4131:
  1813     0A2A  2A27               	goto	l292
  1814     0A2B                     u4130:
  1815     0A2B                     l294:
  1816                           
  1817                           ;main.c: 412:     PIR1bits.TMR2IF = 0;
  1818     0A2B  108C               	bcf	12,1	;volatile
  1819                           
  1820                           ;main.c: 414:     TRISCbits.TRISC2 = 0;
  1821     0A2C  1683               	bsf	3,5	;RP0=1, select bank1
  1822     0A2D  1303               	bcf	3,6	;RP1=0, select bank1
  1823     0A2E  1107               	bcf	7,2	;volatile
  1824                           
  1825                           ;main.c: 415:     TRISCbits.TRISC1 = 0;
  1826     0A2F  1087               	bcf	7,1	;volatile
  1827                           
  1828                           ;main.c: 416:     TRISCbits.TRISC3 = 0;
  1829     0A30  1187               	bcf	7,3	;volatile
  1830                           
  1831                           ;main.c: 419:      TXSTAbits.SYNC = 0;
  1832     0A31  1218               	bcf	24,4	;volatile
  1833                           
  1834                           ;main.c: 420:     TXSTAbits.BRGH = 0;
  1835     0A32  1118               	bcf	24,2	;volatile
  1836                           
  1837                           ;main.c: 422:     BAUDCTLbits.BRG16 = 0;
  1838     0A33  1683               	bsf	3,5	;RP0=1, select bank3
  1839     0A34  1703               	bsf	3,6	;RP1=1, select bank3
  1840     0A35  1187               	bcf	7,3	;volatile
  1841     0A36                     l3041:
  1842                           
  1843                           ;main.c: 424:     SPBRG = 12;
  1844     0A36  300C               	movlw	12
  1845     0A37  1683               	bsf	3,5	;RP0=1, select bank1
  1846     0A38  1303               	bcf	3,6	;RP1=0, select bank1
  1847     0A39  0099               	movwf	25	;volatile
  1848     0A3A                     l3043:
  1849                           
  1850                           ;main.c: 425:     SPBRGH = 0;
  1851     0A3A  019A               	clrf	26	;volatile
  1852     0A3B                     l3045:
  1853                           
  1854                           ;main.c: 427:     RCSTAbits.SPEN = 1;
  1855     0A3B  1283               	bcf	3,5	;RP0=0, select bank0
  1856     0A3C  1303               	bcf	3,6	;RP1=0, select bank0
  1857     0A3D  1798               	bsf	24,7	;volatile
  1858     0A3E                     l3047:
  1859                           
  1860                           ;main.c: 428:     RCSTAbits.RX9 = 0;
  1861     0A3E  1318               	bcf	24,6	;volatile
  1862     0A3F                     l3049:
  1863                           
  1864                           ;main.c: 429:     RCSTAbits.CREN = 1;
  1865     0A3F  1618               	bsf	24,4	;volatile
  1866     0A40                     l3051:
  1867                           
  1868                           ;main.c: 431:     TXSTAbits.TXEN = 1;
  1869     0A40  1683               	bsf	3,5	;RP0=1, select bank1
  1870     0A41  1303               	bcf	3,6	;RP1=0, select bank1
  1871     0A42  1698               	bsf	24,5	;volatile
  1872     0A43                     l3053:
  1873                           
  1874                           ;main.c: 435:     INTCONbits.GIE = 1;
  1875     0A43  178B               	bsf	11,7	;volatile
  1876     0A44                     l3055:
  1877                           
  1878                           ;main.c: 436:     INTCONbits.PEIE= 1;
  1879     0A44  170B               	bsf	11,6	;volatile
  1880     0A45                     l3057:
  1881                           
  1882                           ;main.c: 439:     INTCONbits.RBIE = 1;
  1883     0A45  158B               	bsf	11,3	;volatile
  1884     0A46                     l3059:
  1885                           
  1886                           ;main.c: 440:     INTCONbits.RBIF = 0;
  1887     0A46  100B               	bcf	11,0	;volatile
  1888     0A47                     l3061:
  1889                           
  1890                           ;main.c: 442:     IOCBbits.IOCB0 = 1;
  1891     0A47  1416               	bsf	22,0	;volatile
  1892     0A48                     l3063:
  1893                           
  1894                           ;main.c: 443:     IOCBbits.IOCB1 = 1;
  1895     0A48  1496               	bsf	22,1	;volatile
  1896     0A49                     l3065:
  1897                           
  1898                           ;main.c: 444:     IOCBbits.IOCB2 = 1;
  1899     0A49  1516               	bsf	22,2	;volatile
  1900     0A4A                     l3067:
  1901                           
  1902                           ;main.c: 445:     IOCBbits.IOCB3 = 1;
  1903     0A4A  1596               	bsf	22,3	;volatile
  1904     0A4B                     l3069:
  1905                           
  1906                           ;main.c: 446:     IOCBbits.IOCB4 = 1;
  1907     0A4B  1616               	bsf	22,4	;volatile
  1908     0A4C                     l3071:
  1909                           
  1910                           ;main.c: 447:     IOCBbits.IOCB5 = 1;
  1911     0A4C  1696               	bsf	22,5	;volatile
  1912     0A4D                     l3073:
  1913                           
  1914                           ;main.c: 448:     IOCBbits.IOCB6 = 1;
  1915     0A4D  1716               	bsf	22,6	;volatile
  1916     0A4E                     l3075:
  1917                           
  1918                           ;main.c: 449:     IOCBbits.IOCB7 = 1;
  1919     0A4E  1796               	bsf	22,7	;volatile
  1920     0A4F                     l3077:
  1921                           
  1922                           ;main.c: 452:     PIE1bits.ADIE = 1;
  1923     0A4F  170C               	bsf	12,6	;volatile
  1924     0A50                     l3079:
  1925                           
  1926                           ;main.c: 453:     PIR1bits.ADIF = 0;
  1927     0A50  1283               	bcf	3,5	;RP0=0, select bank0
  1928     0A51  1303               	bcf	3,6	;RP1=0, select bank0
  1929     0A52  130C               	bcf	12,6	;volatile
  1930     0A53                     l3081:
  1931                           
  1932                           ;main.c: 456:     INTCONbits.TMR0IE = 1;
  1933     0A53  168B               	bsf	11,5	;volatile
  1934     0A54                     l3083:
  1935                           
  1936                           ;main.c: 457:     INTCONbits.T0IF = 0;
  1937     0A54  110B               	bcf	11,2	;volatile
  1938     0A55                     l3085:
  1939                           
  1940                           ;main.c: 460:     PIR1bits.RCIF = 0;
  1941     0A55  128C               	bcf	12,5	;volatile
  1942     0A56                     l3087:
  1943                           
  1944                           ;main.c: 461:     PIE1bits.RCIE = 1;
  1945     0A56  1683               	bsf	3,5	;RP0=1, select bank1
  1946     0A57  1303               	bcf	3,6	;RP1=0, select bank1
  1947     0A58  168C               	bsf	12,5	;volatile
  1948     0A59                     l3089:
  1949                           
  1950                           ;main.c: 464:     TMR0 = valTmr0;
  1951     0A59  085C               	movf	_valTmr0^(0+128),w
  1952     0A5A  1283               	bcf	3,5	;RP0=0, select bank0
  1953     0A5B  1303               	bcf	3,6	;RP1=0, select bank0
  1954     0A5C  0081               	movwf	1	;volatile
  1955     0A5D                     l3091:
  1956                           
  1957                           ;main.c: 465:     T0IE = 1;
  1958     0A5D  168B               	bsf	11,5	;volatile
  1959     0A5E                     l3093:
  1960                           
  1961                           ;main.c: 466:     GIE = 1;
  1962     0A5E  178B               	bsf	11,7	;volatile
  1963                           
  1964                           ;main.c: 467:     counter1 = 0;
  1965     0A5F  1683               	bsf	3,5	;RP0=1, select bank1
  1966     0A60  1303               	bcf	3,6	;RP1=0, select bank1
  1967     0A61  01C0               	clrf	_counter1^(0+128)
  1968                           
  1969                           ;main.c: 468:     counter2 = 0;
  1970     0A62  01BF               	clrf	_counter2^(0+128)
  1971                           
  1972                           ;main.c: 469:     counter3 = 0;
  1973     0A63  01BE               	clrf	_counter3^(0+128)
  1974                           
  1975                           ;main.c: 470:     counter4 = 0;
  1976     0A64  01BD               	clrf	_counter4^(0+128)
  1977     0A65                     l295:
  1978     0A65  0008               	return
  1979     0A66                     __end_of_setup:
  1980                           
  1981                           	psect	text3
  1982     08ED                     __ptext3:	
  1983 ;; *************** function _readFromEEPROM *****************
  1984 ;; Defined at:
  1985 ;;		line 482 in file "main.c"
  1986 ;; Parameters:    Size  Location     Type
  1987 ;;  address         1    wreg     unsigned char 
  1988 ;; Auto vars:     Size  Location     Type
  1989 ;;  address         1   19[BANK1 ] unsigned char 
  1990 ;; Return value:  Size  Location     Type
  1991 ;;                  1    wreg      unsigned char 
  1992 ;; Registers used:
  1993 ;;		wreg
  1994 ;; Tracked objects:
  1995 ;;		On entry : 0/0
  1996 ;;		On exit  : 0/0
  1997 ;;		Unchanged: 0/0
  1998 ;; Data sizes:     COMMON   BANK0   BANK1   BANK3   BANK2
  1999 ;;      Params:         0       0       0       0       0
  2000 ;;      Locals:         0       0       1       0       0
  2001 ;;      Temps:          0       0       0       0       0
  2002 ;;      Totals:         0       0       1       0       0
  2003 ;;Total ram usage:        1 bytes
  2004 ;; Hardware stack levels used: 1
  2005 ;; Hardware stack levels required when called: 4
  2006 ;; This function calls:
  2007 ;;		Nothing
  2008 ;; This function is called by:
  2009 ;;		_main
  2010 ;; This function uses a non-reentrant model
  2011 ;;
  2012                           
  2013     08ED                     _readFromEEPROM:	
  2014                           ;psect for function _readFromEEPROM
  2015                           
  2016                           
  2017                           ;incstack = 0
  2018                           ; Regs used in _readFromEEPROM: [wreg]
  2019                           ;readFromEEPROM@address stored from wreg
  2020     08ED  1683               	bsf	3,5	;RP0=1, select bank1
  2021     08EE  1303               	bcf	3,6	;RP1=0, select bank1
  2022     08EF  00D8               	movwf	readFromEEPROM@address^(0+128)
  2023     08F0                     l2649:
  2024     08F0                     l301:	
  2025                           ;main.c: 483:     while (RD);
  2026                           
  2027     08F0  1683               	bsf	3,5	;RP0=1, select bank3
  2028     08F1  1703               	bsf	3,6	;RP1=1, select bank3
  2029     08F2  180C               	btfsc	12,0	;volsfr
  2030     08F3  28F5               	goto	u3471
  2031     08F4  28F6               	goto	u3470
  2032     08F5                     u3471:
  2033     08F5  28F0               	goto	l301
  2034     08F6                     u3470:
  2035     08F6                     l2651:
  2036                           
  2037                           ;main.c: 484:     EEADR = address;
  2038     08F6  1683               	bsf	3,5	;RP0=1, select bank1
  2039     08F7  1303               	bcf	3,6	;RP1=0, select bank1
  2040     08F8  0858               	movf	readFromEEPROM@address^(0+128),w
  2041     08F9  1283               	bcf	3,5	;RP0=0, select bank2
  2042     08FA  1703               	bsf	3,6	;RP1=1, select bank2
  2043     08FB  008D               	movwf	13	;volatile
  2044     08FC                     l2653:
  2045                           
  2046                           ;main.c: 485:     EECON1bits.EEPGD = 0;
  2047     08FC  1683               	bsf	3,5	;RP0=1, select bank3
  2048     08FD  1703               	bsf	3,6	;RP1=1, select bank3
  2049     08FE  138C               	bcf	12,7	;volsfr
  2050     08FF                     l2655:
  2051                           
  2052                           ;main.c: 486:     EECON1bits.RD = 1;
  2053     08FF  140C               	bsf	12,0	;volsfr
  2054                           
  2055                           ;main.c: 487:     return EEDAT;
  2056     0900  1283               	bcf	3,5	;RP0=0, select bank2
  2057     0901  1703               	bsf	3,6	;RP1=1, select bank2
  2058     0902  080C               	movf	12,w	;volatile
  2059     0903                     l304:
  2060     0903  0008               	return
  2061     0904                     __end_of_readFromEEPROM:
  2062                           
  2063                           	psect	text4
  2064     037F                     __ptext4:	
  2065 ;; *************** function _isr *****************
  2066 ;; Defined at:
  2067 ;;		line 57 in file "main.c"
  2068 ;; Parameters:    Size  Location     Type
  2069 ;;		None
  2070 ;; Auto vars:     Size  Location     Type
  2071 ;;		None
  2072 ;; Return value:  Size  Location     Type
  2073 ;;                  1    wreg      void 
  2074 ;; Registers used:
  2075 ;;		wreg, status,2, status,0, btemp+1, pclath, cstack
  2076 ;; Tracked objects:
  2077 ;;		On entry : 0/0
  2078 ;;		On exit  : 0/0
  2079 ;;		Unchanged: 0/0
  2080 ;; Data sizes:     COMMON   BANK0   BANK1   BANK3   BANK2
  2081 ;;      Params:         0       0       0       0       0
  2082 ;;      Locals:         0       0       2       0       0
  2083 ;;      Temps:          0       0       5       0       0
  2084 ;;      Totals:         0       0       7       0       0
  2085 ;;Total ram usage:        7 bytes
  2086 ;; Hardware stack levels used: 1
  2087 ;; Hardware stack levels required when called: 3
  2088 ;; This function calls:
  2089 ;;		_map
  2090 ;; This function is called by:
  2091 ;;		Interrupt level 1
  2092 ;; This function uses a non-reentrant model
  2093 ;;
  2094                           
  2095     037F                     _isr:	
  2096                           ;psect for function _isr
  2097                           
  2098     037F                     i1l2677:
  2099                           
  2100                           ;main.c: 59:         if(PIR1bits.RCIF){
  2101     037F  1283               	bcf	3,5	;RP0=0, select bank0
  2102     0380  1303               	bcf	3,6	;RP1=0, select bank0
  2103     0381  1E8C               	btfss	12,5	;volatile
  2104     0382  2B84               	goto	u350_21
  2105     0383  2B85               	goto	u350_20
  2106     0384                     u350_21:
  2107     0384  2BE4               	goto	i1l2709
  2108     0385                     u350_20:
  2109     0385                     i1l2679:
  2110                           
  2111                           ;main.c: 61:         PORTDbits.RD7 = toggle;
  2112     0385  1683               	bsf	3,5	;RP0=1, select bank1
  2113     0386  1303               	bcf	3,6	;RP1=0, select bank1
  2114     0387  0C59               	rrf	_toggle^(0+128),w
  2115     0388  1283               	bcf	3,5	;RP0=0, select bank0
  2116     0389  1303               	bcf	3,6	;RP1=0, select bank0
  2117     038A  1C03               	skipc
  2118     038B  1388               	bcf	8,7	;volatile
  2119     038C  1803               	skipnc
  2120     038D  1788               	bsf	8,7	;volatile
  2121     038E                     i1l2681:
  2122                           
  2123                           ;main.c: 62:         toggle = ~toggle;
  2124     038E  1683               	bsf	3,5	;RP0=1, select bank1
  2125     038F  1303               	bcf	3,6	;RP1=0, select bank1
  2126     0390  09D9               	comf	_toggle^(0+128),f
  2127     0391  09DA               	comf	(_toggle+1)^(0+128),f
  2128     0392                     i1l2683:
  2129                           
  2130                           ;main.c: 64:         if(RCREG == '1'){
  2131     0392  3031               	movlw	49
  2132     0393  1283               	bcf	3,5	;RP0=0, select bank0
  2133     0394  1303               	bcf	3,6	;RP1=0, select bank0
  2134     0395  061A               	xorwf	26,w	;volatile
  2135     0396  1D03               	btfss	3,2
  2136     0397  2B99               	goto	u351_21
  2137     0398  2B9A               	goto	u351_20
  2138     0399                     u351_21:
  2139     0399  2BA1               	goto	i1l2687
  2140     039A                     u351_20:
  2141     039A                     i1l2685:
  2142                           
  2143                           ;main.c: 65:             servo = 1;
  2144     039A  3001               	movlw	1
  2145     039B  1683               	bsf	3,5	;RP0=1, select bank1
  2146     039C  1303               	bcf	3,6	;RP1=0, select bank1
  2147     039D  00A0               	movwf	_servo^(0+128)
  2148     039E  3000               	movlw	0
  2149     039F  00A1               	movwf	(_servo^(0+128)+1)
  2150                           
  2151                           ;main.c: 66:         }
  2152     03A0  2BE2               	goto	i1l2707
  2153     03A1                     i1l2687:
  2154     03A1  3032               	movlw	50
  2155     03A2  061A               	xorwf	26,w	;volatile
  2156     03A3  1D03               	btfss	3,2
  2157     03A4  2BA6               	goto	u352_21
  2158     03A5  2BA7               	goto	u352_20
  2159     03A6                     u352_21:
  2160     03A6  2BAE               	goto	i1l2691
  2161     03A7                     u352_20:
  2162     03A7                     i1l2689:
  2163                           
  2164                           ;main.c: 68:             servo = 2;
  2165     03A7  3002               	movlw	2
  2166     03A8  1683               	bsf	3,5	;RP0=1, select bank1
  2167     03A9  1303               	bcf	3,6	;RP1=0, select bank1
  2168     03AA  00A0               	movwf	_servo^(0+128)
  2169     03AB  3000               	movlw	0
  2170     03AC  00A1               	movwf	(_servo^(0+128)+1)
  2171                           
  2172                           ;main.c: 69:         }
  2173     03AD  2BE2               	goto	i1l2707
  2174     03AE                     i1l2691:
  2175     03AE  3033               	movlw	51
  2176     03AF  061A               	xorwf	26,w	;volatile
  2177     03B0  1D03               	btfss	3,2
  2178     03B1  2BB3               	goto	u353_21
  2179     03B2  2BB4               	goto	u353_20
  2180     03B3                     u353_21:
  2181     03B3  2BBB               	goto	i1l2695
  2182     03B4                     u353_20:
  2183     03B4                     i1l2693:
  2184                           
  2185                           ;main.c: 71:             servo = 3;
  2186     03B4  3003               	movlw	3
  2187     03B5  1683               	bsf	3,5	;RP0=1, select bank1
  2188     03B6  1303               	bcf	3,6	;RP1=0, select bank1
  2189     03B7  00A0               	movwf	_servo^(0+128)
  2190     03B8  3000               	movlw	0
  2191     03B9  00A1               	movwf	(_servo^(0+128)+1)
  2192                           
  2193                           ;main.c: 72:         }
  2194     03BA  2BE2               	goto	i1l2707
  2195     03BB                     i1l2695:
  2196     03BB  3034               	movlw	52
  2197     03BC  061A               	xorwf	26,w	;volatile
  2198     03BD  1D03               	btfss	3,2
  2199     03BE  2BC0               	goto	u354_21
  2200     03BF  2BC1               	goto	u354_20
  2201     03C0                     u354_21:
  2202     03C0  2BC8               	goto	i1l2699
  2203     03C1                     u354_20:
  2204     03C1                     i1l2697:
  2205                           
  2206                           ;main.c: 74:             servo = 4;
  2207     03C1  3004               	movlw	4
  2208     03C2  1683               	bsf	3,5	;RP0=1, select bank1
  2209     03C3  1303               	bcf	3,6	;RP1=0, select bank1
  2210     03C4  00A0               	movwf	_servo^(0+128)
  2211     03C5  3000               	movlw	0
  2212     03C6  00A1               	movwf	(_servo^(0+128)+1)
  2213                           
  2214                           ;main.c: 75:         }
  2215     03C7  2BE2               	goto	i1l2707
  2216     03C8                     i1l2699:
  2217     03C8  3035               	movlw	53
  2218     03C9  061A               	xorwf	26,w	;volatile
  2219     03CA  1D03               	btfss	3,2
  2220     03CB  2BCD               	goto	u355_21
  2221     03CC  2BCE               	goto	u355_20
  2222     03CD                     u355_21:
  2223     03CD  2BD5               	goto	i1l2703
  2224     03CE                     u355_20:
  2225     03CE                     i1l2701:
  2226                           
  2227                           ;main.c: 77:             servo = 5;
  2228     03CE  3005               	movlw	5
  2229     03CF  1683               	bsf	3,5	;RP0=1, select bank1
  2230     03D0  1303               	bcf	3,6	;RP1=0, select bank1
  2231     03D1  00A0               	movwf	_servo^(0+128)
  2232     03D2  3000               	movlw	0
  2233     03D3  00A1               	movwf	(_servo^(0+128)+1)
  2234                           
  2235                           ;main.c: 78:         }
  2236     03D4  2BE2               	goto	i1l2707
  2237     03D5                     i1l2703:
  2238     03D5  3036               	movlw	54
  2239     03D6  061A               	xorwf	26,w	;volatile
  2240     03D7  1D03               	btfss	3,2
  2241     03D8  2BDA               	goto	u356_21
  2242     03D9  2BDB               	goto	u356_20
  2243     03DA                     u356_21:
  2244     03DA  2BE2               	goto	i1l175
  2245     03DB                     u356_20:
  2246     03DB                     i1l2705:
  2247                           
  2248                           ;main.c: 80:             servo = 6;
  2249     03DB  3006               	movlw	6
  2250     03DC  1683               	bsf	3,5	;RP0=1, select bank1
  2251     03DD  1303               	bcf	3,6	;RP1=0, select bank1
  2252     03DE  00A0               	movwf	_servo^(0+128)
  2253     03DF  3000               	movlw	0
  2254     03E0  00A1               	movwf	(_servo^(0+128)+1)
  2255     03E1  2BE2               	goto	i1l2707
  2256     03E2                     i1l175:
  2257     03E2                     i1l2707:
  2258                           
  2259                           ;main.c: 83:     PIR1bits.RCIF = 0;
  2260     03E2  1283               	bcf	3,5	;RP0=0, select bank0
  2261     03E3  128C               	bcf	12,5	;volatile
  2262     03E4                     i1l2709:
  2263                           
  2264                           ;main.c: 87:     if (ADIF) {
  2265     03E4  1F0C               	btfss	12,6	;volatile
  2266     03E5  2BE7               	goto	u357_21
  2267     03E6  2BE8               	goto	u357_20
  2268     03E7                     u357_21:
  2269     03E7  2D16               	goto	i1l2757
  2270     03E8                     u357_20:
  2271     03E8                     i1l2711:
  2272                           
  2273                           ;main.c: 89:         if (flag == 0) {
  2274     03E8  1683               	bsf	3,5	;RP0=1, select bank1
  2275     03E9  1303               	bcf	3,6	;RP1=0, select bank1
  2276     03EA  083B               	movf	_flag^(0+128),w
  2277     03EB  1D03               	btfss	3,2
  2278     03EC  2BEE               	goto	u358_21
  2279     03ED  2BEF               	goto	u358_20
  2280     03EE                     u358_21:
  2281     03EE  2C2B               	goto	i1l2725
  2282     03EF                     u358_20:
  2283     03EF                     i1l2713:
  2284                           
  2285                           ;main.c: 90:             CCPR1L = (ADRESH>>1) + 124;
  2286     03EF  1283               	bcf	3,5	;RP0=0, select bank0
  2287     03F0  1303               	bcf	3,6	;RP1=0, select bank0
  2288     03F1  081E               	movf	30,w	;volatile
  2289     03F2  1683               	bsf	3,5	;RP0=1, select bank1
  2290     03F3  1303               	bcf	3,6	;RP1=0, select bank1
  2291     03F4  00D1               	movwf	??_isr^(0+128)
  2292     03F5  1003               	clrc
  2293     03F6  0C51               	rrf	??_isr^(0+128),w
  2294     03F7  3E7C               	addlw	124
  2295     03F8  1283               	bcf	3,5	;RP0=0, select bank0
  2296     03F9  1303               	bcf	3,6	;RP1=0, select bank0
  2297     03FA  0095               	movwf	21	;volatile
  2298     03FB                     i1l2715:
  2299                           
  2300                           ;main.c: 91:             CCP1CONbits.DC1B1 = ADRESH && 0b1;
  2301     03FB  1683               	bsf	3,5	;RP0=1, select bank1
  2302     03FC  1303               	bcf	3,6	;RP1=0, select bank1
  2303     03FD  01D6               	clrf	_isr$648^(0+128)
  2304     03FE                     i1l2717:
  2305     03FE  1283               	bcf	3,5	;RP0=0, select bank0
  2306     03FF  1303               	bcf	3,6	;RP1=0, select bank0
  2307     0400  081E               	movf	30,w	;volatile
  2308     0401  1903               	btfsc	3,2
  2309     0402  2C04               	goto	u359_21
  2310     0403  2C05               	goto	u359_20
  2311     0404                     u359_21:
  2312     0404  2C09               	goto	i1l2721
  2313     0405                     u359_20:
  2314     0405                     i1l2719:
  2315     0405  1683               	bsf	3,5	;RP0=1, select bank1
  2316     0406  1303               	bcf	3,6	;RP1=0, select bank1
  2317     0407  01D6               	clrf	_isr$648^(0+128)
  2318     0408  0AD6               	incf	_isr$648^(0+128),f
  2319     0409                     i1l2721:
  2320     0409  1683               	bsf	3,5	;RP0=1, select bank1
  2321     040A  1303               	bcf	3,6	;RP1=0, select bank1
  2322     040B  0C56               	rrf	_isr$648^(0+128),w
  2323     040C  1283               	bcf	3,5	;RP0=0, select bank0
  2324     040D  1303               	bcf	3,6	;RP1=0, select bank0
  2325     040E  1C03               	skipc
  2326     040F  1297               	bcf	23,5	;volatile
  2327     0410  1803               	skipnc
  2328     0411  1697               	bsf	23,5	;volatile
  2329     0412                     i1l2723:
  2330                           
  2331                           ;main.c: 92:             CCP1CONbits.DC1B0 = (ADRESL>>7);
  2332     0412  1683               	bsf	3,5	;RP0=1, select bank1
  2333     0413  1303               	bcf	3,6	;RP1=0, select bank1
  2334     0414  081E               	movf	30,w	;volatile
  2335     0415  00D1               	movwf	??_isr^(0+128)
  2336     0416  3007               	movlw	7
  2337     0417                     u360_25:
  2338     0417  1003               	clrc
  2339     0418  0CD1               	rrf	??_isr^(0+128),f
  2340     0419  3EFF               	addlw	-1
  2341     041A  1D03               	skipz
  2342     041B  2C17               	goto	u360_25
  2343     041C  0851               	movf	??_isr^(0+128),w
  2344     041D  00D2               	movwf	(??_isr+1)^(0+128)
  2345     041E  0ED2               	swapf	(??_isr+1)^(0+128),f
  2346     041F  1283               	bcf	3,5	;RP0=0, select bank0
  2347     0420  1303               	bcf	3,6	;RP1=0, select bank0
  2348     0421  0817               	movf	23,w	;volatile
  2349     0422  1683               	bsf	3,5	;RP0=1, select bank1
  2350     0423  1303               	bcf	3,6	;RP1=0, select bank1
  2351     0424  0652               	xorwf	(??_isr+1)^(0+128),w
  2352     0425  39EF               	andlw	-17
  2353     0426  0652               	xorwf	(??_isr+1)^(0+128),w
  2354     0427  1283               	bcf	3,5	;RP0=0, select bank0
  2355     0428  1303               	bcf	3,6	;RP1=0, select bank0
  2356     0429  0097               	movwf	23	;volatile
  2357                           
  2358                           ;main.c: 93:         }
  2359     042A  2D14               	goto	i1l2755
  2360     042B                     i1l2725:
  2361     042B  033B               	decf	_flag^(0+128),w
  2362     042C  1D03               	btfss	3,2
  2363     042D  2C2F               	goto	u361_21
  2364     042E  2C30               	goto	u361_20
  2365     042F                     u361_21:
  2366     042F  2C6C               	goto	i1l2739
  2367     0430                     u361_20:
  2368     0430                     i1l2727:
  2369                           
  2370                           ;main.c: 95:             CCPR2L = (ADRESH>>1) + 124;
  2371     0430  1283               	bcf	3,5	;RP0=0, select bank0
  2372     0431  1303               	bcf	3,6	;RP1=0, select bank0
  2373     0432  081E               	movf	30,w	;volatile
  2374     0433  1683               	bsf	3,5	;RP0=1, select bank1
  2375     0434  1303               	bcf	3,6	;RP1=0, select bank1
  2376     0435  00D1               	movwf	??_isr^(0+128)
  2377     0436  1003               	clrc
  2378     0437  0C51               	rrf	??_isr^(0+128),w
  2379     0438  3E7C               	addlw	124
  2380     0439  1283               	bcf	3,5	;RP0=0, select bank0
  2381     043A  1303               	bcf	3,6	;RP1=0, select bank0
  2382     043B  009B               	movwf	27	;volatile
  2383     043C                     i1l2729:
  2384                           
  2385                           ;main.c: 96:             CCP2CONbits.DC2B1 = ADRESH && 0b1;
  2386     043C  1683               	bsf	3,5	;RP0=1, select bank1
  2387     043D  1303               	bcf	3,6	;RP1=0, select bank1
  2388     043E  01D7               	clrf	_isr$652^(0+128)
  2389     043F                     i1l2731:
  2390     043F  1283               	bcf	3,5	;RP0=0, select bank0
  2391     0440  1303               	bcf	3,6	;RP1=0, select bank0
  2392     0441  081E               	movf	30,w	;volatile
  2393     0442  1903               	btfsc	3,2
  2394     0443  2C45               	goto	u362_21
  2395     0444  2C46               	goto	u362_20
  2396     0445                     u362_21:
  2397     0445  2C4A               	goto	i1l2735
  2398     0446                     u362_20:
  2399     0446                     i1l2733:
  2400     0446  1683               	bsf	3,5	;RP0=1, select bank1
  2401     0447  1303               	bcf	3,6	;RP1=0, select bank1
  2402     0448  01D7               	clrf	_isr$652^(0+128)
  2403     0449  0AD7               	incf	_isr$652^(0+128),f
  2404     044A                     i1l2735:
  2405     044A  1683               	bsf	3,5	;RP0=1, select bank1
  2406     044B  1303               	bcf	3,6	;RP1=0, select bank1
  2407     044C  0C57               	rrf	_isr$652^(0+128),w
  2408     044D  1283               	bcf	3,5	;RP0=0, select bank0
  2409     044E  1303               	bcf	3,6	;RP1=0, select bank0
  2410     044F  1C03               	skipc
  2411     0450  129D               	bcf	29,5	;volatile
  2412     0451  1803               	skipnc
  2413     0452  169D               	bsf	29,5	;volatile
  2414     0453                     i1l2737:
  2415                           
  2416                           ;main.c: 97:             CCP2CONbits.DC2B0 = (ADRESL>>7);
  2417     0453  1683               	bsf	3,5	;RP0=1, select bank1
  2418     0454  1303               	bcf	3,6	;RP1=0, select bank1
  2419     0455  081E               	movf	30,w	;volatile
  2420     0456  00D1               	movwf	??_isr^(0+128)
  2421     0457  3007               	movlw	7
  2422     0458                     u363_25:
  2423     0458  1003               	clrc
  2424     0459  0CD1               	rrf	??_isr^(0+128),f
  2425     045A  3EFF               	addlw	-1
  2426     045B  1D03               	skipz
  2427     045C  2C58               	goto	u363_25
  2428     045D  0851               	movf	??_isr^(0+128),w
  2429     045E  00D2               	movwf	(??_isr+1)^(0+128)
  2430     045F  0ED2               	swapf	(??_isr+1)^(0+128),f
  2431     0460  1283               	bcf	3,5	;RP0=0, select bank0
  2432     0461  1303               	bcf	3,6	;RP1=0, select bank0
  2433     0462  081D               	movf	29,w	;volatile
  2434     0463  1683               	bsf	3,5	;RP0=1, select bank1
  2435     0464  1303               	bcf	3,6	;RP1=0, select bank1
  2436     0465  0652               	xorwf	(??_isr+1)^(0+128),w
  2437     0466  39EF               	andlw	-17
  2438     0467  0652               	xorwf	(??_isr+1)^(0+128),w
  2439     0468  1283               	bcf	3,5	;RP0=0, select bank0
  2440     0469  1303               	bcf	3,6	;RP1=0, select bank0
  2441     046A  009D               	movwf	29	;volatile
  2442                           
  2443                           ;main.c: 98:         }
  2444     046B  2D14               	goto	i1l2755
  2445     046C                     i1l2739:
  2446     046C  3002               	movlw	2
  2447     046D  063B               	xorwf	_flag^(0+128),w
  2448     046E  1D03               	btfss	3,2
  2449     046F  2C71               	goto	u364_21
  2450     0470  2C72               	goto	u364_20
  2451     0471                     u364_21:
  2452     0471  2C96               	goto	i1l2743
  2453     0472                     u364_20:
  2454     0472                     i1l2741:
  2455                           
  2456                           ;main.c: 100:             pot3 = map(ADRESH, 0, 255, 1, 11);
  2457     0472  1283               	bcf	3,5	;RP0=0, select bank0
  2458     0473  1303               	bcf	3,6	;RP1=0, select bank0
  2459     0474  081E               	movf	30,w	;volatile
  2460     0475  1683               	bsf	3,5	;RP0=1, select bank1
  2461     0476  1303               	bcf	3,6	;RP1=0, select bank1
  2462     0477  00D1               	movwf	??_isr^(0+128)
  2463     0478  01D2               	clrf	(??_isr^(0+128)+1)
  2464     0479  0851               	movf	??_isr^(0+128),w
  2465     047A  00C7               	movwf	map@x^(0+128)
  2466     047B  0852               	movf	(??_isr+1)^(0+128),w
  2467     047C  00C8               	movwf	(map@x+1)^(0+128)
  2468     047D  3000               	movlw	0
  2469     047E  00C9               	movwf	map@x0^(0+128)
  2470     047F  00CA               	movwf	(map@x0+1)^(0+128)
  2471     0480  30FF               	movlw	255
  2472     0481  00CB               	movwf	map@x1^(0+128)
  2473     0482  3000               	movlw	0
  2474     0483  00CC               	movwf	(map@x1^(0+128)+1)
  2475     0484  3001               	movlw	1
  2476     0485  00CD               	movwf	map@y0^(0+128)
  2477     0486  3000               	movlw	0
  2478     0487  00CE               	movwf	(map@y0^(0+128)+1)
  2479     0488  300B               	movlw	11
  2480     0489  00CF               	movwf	map@y1^(0+128)
  2481     048A  3000               	movlw	0
  2482     048B  00D0               	movwf	(map@y1^(0+128)+1)
  2483     048C  120A  158A  2266  120A  118A  	fcall	_map
  2484     0491  1683               	bsf	3,5	;RP0=1, select bank1
  2485     0492  1303               	bcf	3,6	;RP1=0, select bank1
  2486     0493  0847               	movf	?_map^(0+128),w
  2487     0494  00C4               	movwf	_pot3^(0+128)
  2488                           
  2489                           ;main.c: 101:         }
  2490     0495  2D14               	goto	i1l2755
  2491     0496                     i1l2743:
  2492     0496  3003               	movlw	3
  2493     0497  063B               	xorwf	_flag^(0+128),w
  2494     0498  1D03               	btfss	3,2
  2495     0499  2C9B               	goto	u365_21
  2496     049A  2C9C               	goto	u365_20
  2497     049B                     u365_21:
  2498     049B  2CC0               	goto	i1l2747
  2499     049C                     u365_20:
  2500     049C                     i1l2745:
  2501                           
  2502                           ;main.c: 103:             pot4 = map(ADRESH, 0, 255, 1, 11);
  2503     049C  1283               	bcf	3,5	;RP0=0, select bank0
  2504     049D  1303               	bcf	3,6	;RP1=0, select bank0
  2505     049E  081E               	movf	30,w	;volatile
  2506     049F  1683               	bsf	3,5	;RP0=1, select bank1
  2507     04A0  1303               	bcf	3,6	;RP1=0, select bank1
  2508     04A1  00D1               	movwf	??_isr^(0+128)
  2509     04A2  01D2               	clrf	(??_isr^(0+128)+1)
  2510     04A3  0851               	movf	??_isr^(0+128),w
  2511     04A4  00C7               	movwf	map@x^(0+128)
  2512     04A5  0852               	movf	(??_isr+1)^(0+128),w
  2513     04A6  00C8               	movwf	(map@x+1)^(0+128)
  2514     04A7  3000               	movlw	0
  2515     04A8  00C9               	movwf	map@x0^(0+128)
  2516     04A9  00CA               	movwf	(map@x0+1)^(0+128)
  2517     04AA  30FF               	movlw	255
  2518     04AB  00CB               	movwf	map@x1^(0+128)
  2519     04AC  3000               	movlw	0
  2520     04AD  00CC               	movwf	(map@x1^(0+128)+1)
  2521     04AE  3001               	movlw	1
  2522     04AF  00CD               	movwf	map@y0^(0+128)
  2523     04B0  3000               	movlw	0
  2524     04B1  00CE               	movwf	(map@y0^(0+128)+1)
  2525     04B2  300B               	movlw	11
  2526     04B3  00CF               	movwf	map@y1^(0+128)
  2527     04B4  3000               	movlw	0
  2528     04B5  00D0               	movwf	(map@y1^(0+128)+1)
  2529     04B6  120A  158A  2266  120A  118A  	fcall	_map
  2530     04BB  1683               	bsf	3,5	;RP0=1, select bank1
  2531     04BC  1303               	bcf	3,6	;RP1=0, select bank1
  2532     04BD  0847               	movf	?_map^(0+128),w
  2533     04BE  00C3               	movwf	_pot4^(0+128)
  2534                           
  2535                           ;main.c: 104:         }
  2536     04BF  2D14               	goto	i1l2755
  2537     04C0                     i1l2747:
  2538     04C0  3004               	movlw	4
  2539     04C1  063B               	xorwf	_flag^(0+128),w
  2540     04C2  1D03               	btfss	3,2
  2541     04C3  2CC5               	goto	u366_21
  2542     04C4  2CC6               	goto	u366_20
  2543     04C5                     u366_21:
  2544     04C5  2CEA               	goto	i1l2751
  2545     04C6                     u366_20:
  2546     04C6                     i1l2749:
  2547                           
  2548                           ;main.c: 106:             pot5 = map(ADRESH, 0, 255, 1, 11);
  2549     04C6  1283               	bcf	3,5	;RP0=0, select bank0
  2550     04C7  1303               	bcf	3,6	;RP1=0, select bank0
  2551     04C8  081E               	movf	30,w	;volatile
  2552     04C9  1683               	bsf	3,5	;RP0=1, select bank1
  2553     04CA  1303               	bcf	3,6	;RP1=0, select bank1
  2554     04CB  00D1               	movwf	??_isr^(0+128)
  2555     04CC  01D2               	clrf	(??_isr^(0+128)+1)
  2556     04CD  0851               	movf	??_isr^(0+128),w
  2557     04CE  00C7               	movwf	map@x^(0+128)
  2558     04CF  0852               	movf	(??_isr+1)^(0+128),w
  2559     04D0  00C8               	movwf	(map@x+1)^(0+128)
  2560     04D1  3000               	movlw	0
  2561     04D2  00C9               	movwf	map@x0^(0+128)
  2562     04D3  00CA               	movwf	(map@x0+1)^(0+128)
  2563     04D4  30FF               	movlw	255
  2564     04D5  00CB               	movwf	map@x1^(0+128)
  2565     04D6  3000               	movlw	0
  2566     04D7  00CC               	movwf	(map@x1^(0+128)+1)
  2567     04D8  3001               	movlw	1
  2568     04D9  00CD               	movwf	map@y0^(0+128)
  2569     04DA  3000               	movlw	0
  2570     04DB  00CE               	movwf	(map@y0^(0+128)+1)
  2571     04DC  300B               	movlw	11
  2572     04DD  00CF               	movwf	map@y1^(0+128)
  2573     04DE  3000               	movlw	0
  2574     04DF  00D0               	movwf	(map@y1^(0+128)+1)
  2575     04E0  120A  158A  2266  120A  118A  	fcall	_map
  2576     04E5  1683               	bsf	3,5	;RP0=1, select bank1
  2577     04E6  1303               	bcf	3,6	;RP1=0, select bank1
  2578     04E7  0847               	movf	?_map^(0+128),w
  2579     04E8  00C2               	movwf	_pot5^(0+128)
  2580                           
  2581                           ;main.c: 107:         }
  2582     04E9  2D14               	goto	i1l2755
  2583     04EA                     i1l2751:
  2584     04EA  3005               	movlw	5
  2585     04EB  063B               	xorwf	_flag^(0+128),w
  2586     04EC  1D03               	btfss	3,2
  2587     04ED  2CEF               	goto	u367_21
  2588     04EE  2CF0               	goto	u367_20
  2589     04EF                     u367_21:
  2590     04EF  2D14               	goto	i1l191
  2591     04F0                     u367_20:
  2592     04F0                     i1l2753:
  2593                           
  2594                           ;main.c: 109:             pot6 = map(ADRESH, 0, 255, 1, 11);
  2595     04F0  1283               	bcf	3,5	;RP0=0, select bank0
  2596     04F1  1303               	bcf	3,6	;RP1=0, select bank0
  2597     04F2  081E               	movf	30,w	;volatile
  2598     04F3  1683               	bsf	3,5	;RP0=1, select bank1
  2599     04F4  1303               	bcf	3,6	;RP1=0, select bank1
  2600     04F5  00D1               	movwf	??_isr^(0+128)
  2601     04F6  01D2               	clrf	(??_isr^(0+128)+1)
  2602     04F7  0851               	movf	??_isr^(0+128),w
  2603     04F8  00C7               	movwf	map@x^(0+128)
  2604     04F9  0852               	movf	(??_isr+1)^(0+128),w
  2605     04FA  00C8               	movwf	(map@x+1)^(0+128)
  2606     04FB  3000               	movlw	0
  2607     04FC  00C9               	movwf	map@x0^(0+128)
  2608     04FD  00CA               	movwf	(map@x0+1)^(0+128)
  2609     04FE  30FF               	movlw	255
  2610     04FF  00CB               	movwf	map@x1^(0+128)
  2611     0500  3000               	movlw	0
  2612     0501  00CC               	movwf	(map@x1^(0+128)+1)
  2613     0502  3001               	movlw	1
  2614     0503  00CD               	movwf	map@y0^(0+128)
  2615     0504  3000               	movlw	0
  2616     0505  00CE               	movwf	(map@y0^(0+128)+1)
  2617     0506  300B               	movlw	11
  2618     0507  00CF               	movwf	map@y1^(0+128)
  2619     0508  3000               	movlw	0
  2620     0509  00D0               	movwf	(map@y1^(0+128)+1)
  2621     050A  120A  158A  2266  120A  118A  	fcall	_map
  2622     050F  1683               	bsf	3,5	;RP0=1, select bank1
  2623     0510  1303               	bcf	3,6	;RP1=0, select bank1
  2624     0511  0847               	movf	?_map^(0+128),w
  2625     0512  00C1               	movwf	_pot6^(0+128)
  2626     0513  2D14               	goto	i1l2755
  2627     0514                     i1l191:
  2628     0514                     i1l2755:
  2629                           
  2630                           ;main.c: 112:     ADIF = 0;
  2631     0514  1283               	bcf	3,5	;RP0=0, select bank0
  2632     0515  130C               	bcf	12,6	;volatile
  2633     0516                     i1l2757:
  2634                           
  2635                           ;main.c: 115:     if (T0IF) {
  2636     0516  1D0B               	btfss	11,2	;volatile
  2637     0517  2D19               	goto	u368_21
  2638     0518  2D1A               	goto	u368_20
  2639     0519                     u368_21:
  2640     0519  2D8D               	goto	i1l2803
  2641     051A                     u368_20:
  2642     051A                     i1l2759:
  2643                           
  2644                           ;main.c: 117:         counter1++;
  2645     051A  3001               	movlw	1
  2646     051B  1683               	bsf	3,5	;RP0=1, select bank1
  2647     051C  1303               	bcf	3,6	;RP1=0, select bank1
  2648     051D  00D1               	movwf	??_isr^(0+128)
  2649     051E  0851               	movf	??_isr^(0+128),w
  2650     051F  07C0               	addwf	_counter1^(0+128),f
  2651     0520                     i1l2761:
  2652                           
  2653                           ;main.c: 119:         if(counter1 < pot3) {
  2654     0520  0844               	movf	_pot3^(0+128),w
  2655     0521  0240               	subwf	_counter1^(0+128),w
  2656     0522  1803               	skipnc
  2657     0523  2D25               	goto	u369_21
  2658     0524  2D26               	goto	u369_20
  2659     0525                     u369_21:
  2660     0525  2D2A               	goto	i1l2765
  2661     0526                     u369_20:
  2662     0526                     i1l2763:
  2663                           
  2664                           ;main.c: 120:             PORTDbits.RD0 = 1;
  2665     0526  1283               	bcf	3,5	;RP0=0, select bank0
  2666     0527  1303               	bcf	3,6	;RP1=0, select bank0
  2667     0528  1408               	bsf	8,0	;volatile
  2668                           
  2669                           ;main.c: 121:         }
  2670     0529  2D35               	goto	i1l2769
  2671     052A                     i1l2765:
  2672     052A  30B4               	movlw	180
  2673     052B  0640               	xorwf	_counter1^(0+128),w
  2674     052C  1D03               	btfss	3,2
  2675     052D  2D2F               	goto	u370_21
  2676     052E  2D30               	goto	u370_20
  2677     052F                     u370_21:
  2678     052F  2D32               	goto	i1l200
  2679     0530                     u370_20:
  2680     0530                     i1l2767:
  2681                           
  2682                           ;main.c: 123:             counter1 = 0;
  2683     0530  01C0               	clrf	_counter1^(0+128)
  2684                           
  2685                           ;main.c: 124:         }
  2686     0531  2D35               	goto	i1l2769
  2687     0532                     i1l200:	
  2688                           ;main.c: 125:         else {
  2689                           
  2690                           
  2691                           ;main.c: 126:             PORTDbits.RD0 = 0;
  2692     0532  1283               	bcf	3,5	;RP0=0, select bank0
  2693     0533  1303               	bcf	3,6	;RP1=0, select bank0
  2694     0534  1008               	bcf	8,0	;volatile
  2695     0535                     i1l2769:
  2696                           
  2697                           ;main.c: 129:         counter2++;
  2698     0535  3001               	movlw	1
  2699     0536  1683               	bsf	3,5	;RP0=1, select bank1
  2700     0537  1303               	bcf	3,6	;RP1=0, select bank1
  2701     0538  00D1               	movwf	??_isr^(0+128)
  2702     0539  0851               	movf	??_isr^(0+128),w
  2703     053A  07BF               	addwf	_counter2^(0+128),f
  2704     053B                     i1l2771:
  2705                           
  2706                           ;main.c: 131:         if(counter2 < pot4) {
  2707     053B  0843               	movf	_pot4^(0+128),w
  2708     053C  023F               	subwf	_counter2^(0+128),w
  2709     053D  1803               	skipnc
  2710     053E  2D40               	goto	u371_21
  2711     053F  2D41               	goto	u371_20
  2712     0540                     u371_21:
  2713     0540  2D45               	goto	i1l2775
  2714     0541                     u371_20:
  2715     0541                     i1l2773:
  2716                           
  2717                           ;main.c: 132:             PORTDbits.RD1 = 1;
  2718     0541  1283               	bcf	3,5	;RP0=0, select bank0
  2719     0542  1303               	bcf	3,6	;RP1=0, select bank0
  2720     0543  1488               	bsf	8,1	;volatile
  2721                           
  2722                           ;main.c: 133:         }
  2723     0544  2D50               	goto	i1l2779
  2724     0545                     i1l2775:
  2725     0545  30B4               	movlw	180
  2726     0546  063F               	xorwf	_counter2^(0+128),w
  2727     0547  1D03               	btfss	3,2
  2728     0548  2D4A               	goto	u372_21
  2729     0549  2D4B               	goto	u372_20
  2730     054A                     u372_21:
  2731     054A  2D4D               	goto	i1l204
  2732     054B                     u372_20:
  2733     054B                     i1l2777:
  2734                           
  2735                           ;main.c: 135:             counter2 = 0;
  2736     054B  01BF               	clrf	_counter2^(0+128)
  2737                           
  2738                           ;main.c: 136:         }
  2739     054C  2D50               	goto	i1l2779
  2740     054D                     i1l204:	
  2741                           ;main.c: 137:         else {
  2742                           
  2743                           
  2744                           ;main.c: 138:             PORTDbits.RD1 = 0;
  2745     054D  1283               	bcf	3,5	;RP0=0, select bank0
  2746     054E  1303               	bcf	3,6	;RP1=0, select bank0
  2747     054F  1088               	bcf	8,1	;volatile
  2748     0550                     i1l2779:
  2749                           
  2750                           ;main.c: 141:         counter3++;
  2751     0550  3001               	movlw	1
  2752     0551  1683               	bsf	3,5	;RP0=1, select bank1
  2753     0552  1303               	bcf	3,6	;RP1=0, select bank1
  2754     0553  00D1               	movwf	??_isr^(0+128)
  2755     0554  0851               	movf	??_isr^(0+128),w
  2756     0555  07BE               	addwf	_counter3^(0+128),f
  2757     0556                     i1l2781:
  2758                           
  2759                           ;main.c: 143:         if(counter3 < pot5) {
  2760     0556  0842               	movf	_pot5^(0+128),w
  2761     0557  023E               	subwf	_counter3^(0+128),w
  2762     0558  1803               	skipnc
  2763     0559  2D5B               	goto	u373_21
  2764     055A  2D5C               	goto	u373_20
  2765     055B                     u373_21:
  2766     055B  2D60               	goto	i1l2785
  2767     055C                     u373_20:
  2768     055C                     i1l2783:
  2769                           
  2770                           ;main.c: 144:             PORTDbits.RD2 = 1;
  2771     055C  1283               	bcf	3,5	;RP0=0, select bank0
  2772     055D  1303               	bcf	3,6	;RP1=0, select bank0
  2773     055E  1508               	bsf	8,2	;volatile
  2774                           
  2775                           ;main.c: 145:         }
  2776     055F  2D6B               	goto	i1l2789
  2777     0560                     i1l2785:
  2778     0560  30B4               	movlw	180
  2779     0561  063E               	xorwf	_counter3^(0+128),w
  2780     0562  1D03               	btfss	3,2
  2781     0563  2D65               	goto	u374_21
  2782     0564  2D66               	goto	u374_20
  2783     0565                     u374_21:
  2784     0565  2D68               	goto	i1l208
  2785     0566                     u374_20:
  2786     0566                     i1l2787:
  2787                           
  2788                           ;main.c: 147:             counter3 = 0;
  2789     0566  01BE               	clrf	_counter3^(0+128)
  2790                           
  2791                           ;main.c: 148:         }
  2792     0567  2D6B               	goto	i1l2789
  2793     0568                     i1l208:	
  2794                           ;main.c: 149:         else {
  2795                           
  2796                           
  2797                           ;main.c: 150:             PORTDbits.RD2 = 0;
  2798     0568  1283               	bcf	3,5	;RP0=0, select bank0
  2799     0569  1303               	bcf	3,6	;RP1=0, select bank0
  2800     056A  1108               	bcf	8,2	;volatile
  2801     056B                     i1l2789:
  2802                           
  2803                           ;main.c: 153:         counter4++;
  2804     056B  3001               	movlw	1
  2805     056C  1683               	bsf	3,5	;RP0=1, select bank1
  2806     056D  1303               	bcf	3,6	;RP1=0, select bank1
  2807     056E  00D1               	movwf	??_isr^(0+128)
  2808     056F  0851               	movf	??_isr^(0+128),w
  2809     0570  07BD               	addwf	_counter4^(0+128),f
  2810     0571                     i1l2791:
  2811                           
  2812                           ;main.c: 155:         if(counter4 < pot6) {
  2813     0571  0841               	movf	_pot6^(0+128),w
  2814     0572  023D               	subwf	_counter4^(0+128),w
  2815     0573  1803               	skipnc
  2816     0574  2D76               	goto	u375_21
  2817     0575  2D77               	goto	u375_20
  2818     0576                     u375_21:
  2819     0576  2D7B               	goto	i1l2795
  2820     0577                     u375_20:
  2821     0577                     i1l2793:
  2822                           
  2823                           ;main.c: 156:             PORTDbits.RD3 = 1;
  2824     0577  1283               	bcf	3,5	;RP0=0, select bank0
  2825     0578  1303               	bcf	3,6	;RP1=0, select bank0
  2826     0579  1588               	bsf	8,3	;volatile
  2827                           
  2828                           ;main.c: 157:         }
  2829     057A  2D86               	goto	i1l2799
  2830     057B                     i1l2795:
  2831     057B  30B4               	movlw	180
  2832     057C  063D               	xorwf	_counter4^(0+128),w
  2833     057D  1D03               	btfss	3,2
  2834     057E  2D80               	goto	u376_21
  2835     057F  2D81               	goto	u376_20
  2836     0580                     u376_21:
  2837     0580  2D83               	goto	i1l212
  2838     0581                     u376_20:
  2839     0581                     i1l2797:
  2840                           
  2841                           ;main.c: 159:             counter4 = 0;
  2842     0581  01BD               	clrf	_counter4^(0+128)
  2843                           
  2844                           ;main.c: 160:         }
  2845     0582  2D86               	goto	i1l2799
  2846     0583                     i1l212:	
  2847                           ;main.c: 161:         else {
  2848                           
  2849                           
  2850                           ;main.c: 162:             PORTDbits.RD3 = 0;
  2851     0583  1283               	bcf	3,5	;RP0=0, select bank0
  2852     0584  1303               	bcf	3,6	;RP1=0, select bank0
  2853     0585  1188               	bcf	8,3	;volatile
  2854     0586                     i1l2799:
  2855                           
  2856                           ;main.c: 165:         TMR0 = valTmr0;
  2857     0586  1683               	bsf	3,5	;RP0=1, select bank1
  2858     0587  1303               	bcf	3,6	;RP1=0, select bank1
  2859     0588  085C               	movf	_valTmr0^(0+128),w
  2860     0589  1283               	bcf	3,5	;RP0=0, select bank0
  2861     058A  1303               	bcf	3,6	;RP1=0, select bank0
  2862     058B  0081               	movwf	1	;volatile
  2863     058C                     i1l2801:
  2864                           
  2865                           ;main.c: 166:         T0IF = 0;
  2866     058C  110B               	bcf	11,2	;volatile
  2867     058D                     i1l2803:
  2868                           
  2869                           ;main.c: 169:     if (INTCONbits.RBIF) {
  2870     058D  1C0B               	btfss	11,0	;volatile
  2871     058E  2D90               	goto	u377_21
  2872     058F  2D91               	goto	u377_20
  2873     0590                     u377_21:
  2874     0590  2DDE               	goto	i1l235
  2875     0591                     u377_20:
  2876     0591                     i1l2805:
  2877                           
  2878                           ;main.c: 171:         if (PORTBbits.RB0 == 0) {
  2879     0591  1806               	btfsc	6,0	;volatile
  2880     0592  2D94               	goto	u378_21
  2881     0593  2D95               	goto	u378_20
  2882     0594                     u378_21:
  2883     0594  2D9F               	goto	i1l215
  2884     0595                     u378_20:
  2885     0595                     i1l2807:
  2886                           
  2887                           ;main.c: 172:             ADCON0bits.ADON = 1;
  2888     0595  141F               	bsf	31,0	;volatile
  2889                           
  2890                           ;main.c: 173:             PIE1bits.RCIE = 0;
  2891     0596  1683               	bsf	3,5	;RP0=1, select bank1
  2892     0597  1303               	bcf	3,6	;RP1=0, select bank1
  2893     0598  128C               	bcf	12,5	;volatile
  2894     0599                     i1l2809:
  2895                           
  2896                           ;main.c: 174:             state = 0;
  2897     0599  01BA               	clrf	_state^(0+128)
  2898     059A                     i1l216:	
  2899                           ;main.c: 175:             while(PORTBbits.RB0 == 0);
  2900                           
  2901     059A  1283               	bcf	3,5	;RP0=0, select bank0
  2902     059B  1C06               	btfss	6,0	;volatile
  2903     059C  2D9E               	goto	u379_21
  2904     059D  2D9F               	goto	u379_20
  2905     059E                     u379_21:
  2906     059E  2D9A               	goto	i1l216
  2907     059F                     u379_20:
  2908     059F                     i1l215:	
  2909                           ;main.c: 176:         }
  2910                           
  2911                           
  2912                           ;main.c: 177:         if (PORTBbits.RB1 == 0) {
  2913     059F  1886               	btfsc	6,1	;volatile
  2914     05A0  2DA2               	goto	u380_21
  2915     05A1  2DA3               	goto	u380_20
  2916     05A2                     u380_21:
  2917     05A2  2DAF               	goto	i1l219
  2918     05A3                     u380_20:
  2919     05A3                     i1l2811:
  2920                           
  2921                           ;main.c: 178:             state = 1;
  2922     05A3  1683               	bsf	3,5	;RP0=1, select bank1
  2923     05A4  1303               	bcf	3,6	;RP1=0, select bank1
  2924     05A5  01BA               	clrf	_state^(0+128)
  2925     05A6  0ABA               	incf	_state^(0+128),f
  2926                           
  2927                           ;main.c: 179:             PIE1bits.RCIE = 0;
  2928     05A7  128C               	bcf	12,5	;volatile
  2929                           
  2930                           ;main.c: 180:             ADCON0bits.ADON = 0;
  2931     05A8  1283               	bcf	3,5	;RP0=0, select bank0
  2932     05A9  1303               	bcf	3,6	;RP1=0, select bank0
  2933     05AA  101F               	bcf	31,0	;volatile
  2934     05AB                     i1l220:	
  2935                           ;main.c: 181:             while(PORTBbits.RB1 == 0);
  2936                           
  2937     05AB  1C86               	btfss	6,1	;volatile
  2938     05AC  2DAE               	goto	u381_21
  2939     05AD  2DAF               	goto	u381_20
  2940     05AE                     u381_21:
  2941     05AE  2DAB               	goto	i1l220
  2942     05AF                     u381_20:
  2943     05AF                     i1l219:	
  2944                           ;main.c: 182:         }
  2945                           
  2946                           
  2947                           ;main.c: 183:         if(PORTBbits.RB2 == 0) {
  2948     05AF  1906               	btfsc	6,2	;volatile
  2949     05B0  2DB2               	goto	u382_21
  2950     05B1  2DB3               	goto	u382_20
  2951     05B2                     u382_21:
  2952     05B2  2DBF               	goto	i1l223
  2953     05B3                     u382_20:
  2954     05B3                     i1l2813:
  2955                           
  2956                           ;main.c: 184:             state = 2;
  2957     05B3  3002               	movlw	2
  2958     05B4  1683               	bsf	3,5	;RP0=1, select bank1
  2959     05B5  1303               	bcf	3,6	;RP1=0, select bank1
  2960     05B6  00BA               	movwf	_state^(0+128)
  2961     05B7                     i1l2815:
  2962                           
  2963                           ;main.c: 185:             PIE1bits.RCIE = 1;
  2964     05B7  168C               	bsf	12,5	;volatile
  2965     05B8                     i1l2817:
  2966                           
  2967                           ;main.c: 186:             ADCON0bits.ADON = 0;
  2968     05B8  1283               	bcf	3,5	;RP0=0, select bank0
  2969     05B9  1303               	bcf	3,6	;RP1=0, select bank0
  2970     05BA  101F               	bcf	31,0	;volatile
  2971     05BB                     i1l224:	
  2972                           ;main.c: 187:             while(PORTBbits.RB2 == 0);
  2973                           
  2974     05BB  1D06               	btfss	6,2	;volatile
  2975     05BC  2DBE               	goto	u383_21
  2976     05BD  2DBF               	goto	u383_20
  2977     05BE                     u383_21:
  2978     05BE  2DBB               	goto	i1l224
  2979     05BF                     u383_20:
  2980     05BF                     i1l223:	
  2981                           ;main.c: 188:         }
  2982                           
  2983                           
  2984                           ;main.c: 189:         if(PORTBbits.RB3 == 0) {
  2985     05BF  1986               	btfsc	6,3	;volatile
  2986     05C0  2DC2               	goto	u384_21
  2987     05C1  2DC3               	goto	u384_20
  2988     05C2                     u384_21:
  2989     05C2  2DCF               	goto	i1l227
  2990     05C3                     u384_20:
  2991     05C3                     i1l2819:
  2992                           
  2993                           ;main.c: 190:             state = 3;
  2994     05C3  3003               	movlw	3
  2995     05C4  1683               	bsf	3,5	;RP0=1, select bank1
  2996     05C5  1303               	bcf	3,6	;RP1=0, select bank1
  2997     05C6  00BA               	movwf	_state^(0+128)
  2998     05C7                     i1l2821:
  2999                           
  3000                           ;main.c: 191:             PIE1bits.RCIE = 1;
  3001     05C7  168C               	bsf	12,5	;volatile
  3002     05C8                     i1l2823:
  3003                           
  3004                           ;main.c: 192:             ADCON0bits.ADON = 0;
  3005     05C8  1283               	bcf	3,5	;RP0=0, select bank0
  3006     05C9  1303               	bcf	3,6	;RP1=0, select bank0
  3007     05CA  101F               	bcf	31,0	;volatile
  3008     05CB                     i1l228:	
  3009                           ;main.c: 193:             while(PORTBbits.RB3 == 0);
  3010                           
  3011     05CB  1D86               	btfss	6,3	;volatile
  3012     05CC  2DCE               	goto	u385_21
  3013     05CD  2DCF               	goto	u385_20
  3014     05CE                     u385_21:
  3015     05CE  2DCB               	goto	i1l228
  3016     05CF                     u385_20:
  3017     05CF                     i1l227:	
  3018                           ;main.c: 194:         }
  3019                           
  3020                           
  3021                           ;main.c: 195:         if(PORTBbits.RB4 == 0) {
  3022     05CF  1A06               	btfsc	6,4	;volatile
  3023     05D0  2DD2               	goto	u386_21
  3024     05D1  2DD3               	goto	u386_20
  3025     05D2                     u386_21:
  3026     05D2  2DDD               	goto	i1l231
  3027     05D3                     u386_20:
  3028     05D3                     i1l2825:
  3029                           
  3030                           ;main.c: 196:             state = 4;
  3031     05D3  3004               	movlw	4
  3032     05D4  1683               	bsf	3,5	;RP0=1, select bank1
  3033     05D5  1303               	bcf	3,6	;RP1=0, select bank1
  3034     05D6  00BA               	movwf	_state^(0+128)
  3035     05D7                     i1l2827:
  3036                           
  3037                           ;main.c: 197:             PIE1bits.RCIE = 0;
  3038     05D7  128C               	bcf	12,5	;volatile
  3039     05D8                     i1l232:	
  3040                           ;main.c: 198:             while(PORTBbits.RB4 == 0);
  3041                           
  3042     05D8  1283               	bcf	3,5	;RP0=0, select bank0
  3043     05D9  1E06               	btfss	6,4	;volatile
  3044     05DA  2DDC               	goto	u387_21
  3045     05DB  2DDD               	goto	u387_20
  3046     05DC                     u387_21:
  3047     05DC  2DD8               	goto	i1l232
  3048     05DD                     u387_20:
  3049     05DD                     i1l231:	
  3050                           ;main.c: 199:         }
  3051                           
  3052                           
  3053                           ;main.c: 201:         INTCONbits.RBIF = 0;
  3054     05DD  100B               	bcf	11,0	;volatile
  3055     05DE                     i1l235:
  3056     05DE  1683               	bsf	3,5	;RP0=1, select bank1
  3057     05DF  1303               	bcf	3,6	;RP1=0, select bank1
  3058     05E0  0855               	movf	(??_isr+4)^(0+128),w
  3059     05E1  00FF               	movwf	btemp+1
  3060     05E2  0854               	movf	(??_isr+3)^(0+128),w
  3061     05E3  008A               	movwf	10
  3062     05E4  0E53               	swapf	(??_isr+2)^(0+128),w
  3063     05E5  0083               	movwf	3
  3064     05E6  0EFE               	swapf	btemp,f
  3065     05E7  0E7E               	swapf	btemp,w
  3066     05E8  0009               	retfie
  3067     05E9                     __end_of_isr:
  3068                           
  3069                           	psect	intentry
  3070     0004                     __pintentry:	
  3071                           ;incstack = 0
  3072                           ; Regs used in _isr: [wreg+status,2+status,0+btemp+1+pclath+cstack]
  3073                           
  3074     0004                     interrupt_function:
  3075     007E                     saved_w	set	btemp
  3076     0004  00FE               	movwf	btemp
  3077     0005  0E03               	swapf	3,w
  3078     0006  1683               	bsf	3,5	;RP0=1, select bank1
  3079     0007  1303               	bcf	3,6	;RP1=0, select bank1
  3080     0008  00D3               	movwf	(??_isr+2)^(0+128)
  3081     0009  080A               	movf	10,w
  3082     000A  00D4               	movwf	(??_isr+3)^(0+128)
  3083     000B  087F               	movf	btemp+1,w
  3084     000C  00D5               	movwf	(??_isr+4)^(0+128)
  3085     000D  120A  118A  2B7F   	ljmp	_isr
  3086                           
  3087                           	psect	text5
  3088     0A66                     __ptext5:	
  3089 ;; *************** function _map *****************
  3090 ;; Defined at:
  3091 ;;		line 477 in file "main.c"
  3092 ;; Parameters:    Size  Location     Type
  3093 ;;  x               2    2[BANK1 ] int 
  3094 ;;  x0              2    4[BANK1 ] int 
  3095 ;;  x1              2    6[BANK1 ] int 
  3096 ;;  y0              2    8[BANK1 ] short 
  3097 ;;  y1              2   10[BANK1 ] short 
  3098 ;; Auto vars:     Size  Location     Type
  3099 ;;		None
  3100 ;; Return value:  Size  Location     Type
  3101 ;;                  2    2[BANK1 ] unsigned short 
  3102 ;; Registers used:
  3103 ;;		wreg, status,2, status,0, btemp+1, pclath, cstack
  3104 ;; Tracked objects:
  3105 ;;		On entry : 0/0
  3106 ;;		On exit  : 0/0
  3107 ;;		Unchanged: 0/0
  3108 ;; Data sizes:     COMMON   BANK0   BANK1   BANK3   BANK2
  3109 ;;      Params:         0       0      10       0       0
  3110 ;;      Locals:         0       0       0       0       0
  3111 ;;      Temps:          0       0       0       0       0
  3112 ;;      Totals:         0       0      10       0       0
  3113 ;;Total ram usage:       10 bytes
  3114 ;; Hardware stack levels used: 1
  3115 ;; Hardware stack levels required when called: 2
  3116 ;; This function calls:
  3117 ;;		___fladd
  3118 ;;		___fldiv
  3119 ;;		___flmul
  3120 ;;		___fltol
  3121 ;;		___xxtofl
  3122 ;; This function is called by:
  3123 ;;		_isr
  3124 ;; This function uses a non-reentrant model
  3125 ;;
  3126                           
  3127     0A66                     _map:	
  3128                           ;psect for function _map
  3129                           
  3130     0A66                     i1l2495:	
  3131                           ;incstack = 0
  3132                           ; Regs used in _map: [wreg+status,2+status,0+btemp+1+pclath+cstack]
  3133                           
  3134                           
  3135                           ;main.c: 478:     return (unsigned short) (y0 + ((float) (y1 - y0) / (x1 - x0)) * (x - x
      +                          0));
  3136     0A66  1683               	bsf	3,5	;RP0=1, select bank1
  3137     0A67  1303               	bcf	3,6	;RP1=0, select bank1
  3138     0A68  084D               	movf	map@y0^(0+128),w
  3139     0A69  00F0               	movwf	___xxtofl@val
  3140     0A6A  084E               	movf	(map@y0+1)^(0+128),w
  3141     0A6B  00F1               	movwf	___xxtofl@val+1
  3142     0A6C  3000               	movlw	0
  3143     0A6D  1BF1               	btfsc	___xxtofl@val+1,7
  3144     0A6E  30FF               	movlw	255
  3145     0A6F  00F2               	movwf	___xxtofl@val+2
  3146     0A70  00F3               	movwf	___xxtofl@val+3
  3147     0A71  3001               	movlw	1
  3148     0A72  120A  158A  231D  120A  158A  	fcall	___xxtofl
  3149     0A77  0873               	movf	?___xxtofl+3,w
  3150     0A78  1283               	bcf	3,5	;RP0=0, select bank0
  3151     0A79  1303               	bcf	3,6	;RP1=0, select bank0
  3152     0A7A  00DB               	movwf	___fladd@a+3
  3153     0A7B  0872               	movf	?___xxtofl+2,w
  3154     0A7C  00DA               	movwf	___fladd@a+2
  3155     0A7D  0871               	movf	?___xxtofl+1,w
  3156     0A7E  00D9               	movwf	___fladd@a+1
  3157     0A7F  0870               	movf	?___xxtofl,w
  3158     0A80  00D8               	movwf	___fladd@a
  3159     0A81  1683               	bsf	3,5	;RP0=1, select bank1
  3160     0A82  1303               	bcf	3,6	;RP1=0, select bank1
  3161     0A83  084D               	movf	map@y0^(0+128),w
  3162     0A84  024F               	subwf	map@y1^(0+128),w
  3163     0A85  00F0               	movwf	___xxtofl@val
  3164     0A86  084E               	movf	(map@y0+1)^(0+128),w
  3165     0A87  1C03               	skipc
  3166     0A88  0A4E               	incf	(map@y0+1)^(0+128),w
  3167     0A89  0250               	subwf	(map@y1+1)^(0+128),w
  3168     0A8A  00F1               	movwf	___xxtofl@val+1
  3169     0A8B  01F2               	clrf	___xxtofl@val+2
  3170     0A8C  1BF1               	btfsc	___xxtofl@val+1,7
  3171     0A8D  03F2               	decf	___xxtofl@val+2,f
  3172     0A8E  0872               	movf	___xxtofl@val+2,w
  3173     0A8F  00F3               	movwf	___xxtofl@val+3
  3174     0A90  3001               	movlw	1
  3175     0A91  120A  158A  231D  120A  158A  	fcall	___xxtofl
  3176     0A96  0873               	movf	?___xxtofl+3,w
  3177     0A97  1283               	bcf	3,5	;RP0=0, select bank0
  3178     0A98  1303               	bcf	3,6	;RP1=0, select bank0
  3179     0A99  00A7               	movwf	___fldiv@b+3
  3180     0A9A  0872               	movf	?___xxtofl+2,w
  3181     0A9B  00A6               	movwf	___fldiv@b+2
  3182     0A9C  0871               	movf	?___xxtofl+1,w
  3183     0A9D  00A5               	movwf	___fldiv@b+1
  3184     0A9E  0870               	movf	?___xxtofl,w
  3185     0A9F  00A4               	movwf	___fldiv@b
  3186     0AA0  1683               	bsf	3,5	;RP0=1, select bank1
  3187     0AA1  1303               	bcf	3,6	;RP1=0, select bank1
  3188     0AA2  0849               	movf	map@x0^(0+128),w
  3189     0AA3  024B               	subwf	map@x1^(0+128),w
  3190     0AA4  00F0               	movwf	___xxtofl@val
  3191     0AA5  084A               	movf	(map@x0+1)^(0+128),w
  3192     0AA6  1C03               	skipc
  3193     0AA7  0A4A               	incf	(map@x0+1)^(0+128),w
  3194     0AA8  024C               	subwf	(map@x1+1)^(0+128),w
  3195     0AA9  00F1               	movwf	___xxtofl@val+1
  3196     0AAA  01F2               	clrf	___xxtofl@val+2
  3197     0AAB  1BF1               	btfsc	___xxtofl@val+1,7
  3198     0AAC  03F2               	decf	___xxtofl@val+2,f
  3199     0AAD  0872               	movf	___xxtofl@val+2,w
  3200     0AAE  00F3               	movwf	___xxtofl@val+3
  3201     0AAF  3001               	movlw	1
  3202     0AB0  120A  158A  231D  120A  158A  	fcall	___xxtofl
  3203     0AB5  0873               	movf	?___xxtofl+3,w
  3204     0AB6  1283               	bcf	3,5	;RP0=0, select bank0
  3205     0AB7  1303               	bcf	3,6	;RP1=0, select bank0
  3206     0AB8  00A3               	movwf	___fldiv@a+3
  3207     0AB9  0872               	movf	?___xxtofl+2,w
  3208     0ABA  00A2               	movwf	___fldiv@a+2
  3209     0ABB  0871               	movf	?___xxtofl+1,w
  3210     0ABC  00A1               	movwf	___fldiv@a+1
  3211     0ABD  0870               	movf	?___xxtofl,w
  3212     0ABE  00A0               	movwf	___fldiv@a
  3213     0ABF  120A  158A  23D5  120A  158A  	fcall	___fldiv
  3214     0AC4  1283               	bcf	3,5	;RP0=0, select bank0
  3215     0AC5  1303               	bcf	3,6	;RP1=0, select bank0
  3216     0AC6  0823               	movf	?___fldiv+3,w
  3217     0AC7  00C1               	movwf	___flmul@a+3
  3218     0AC8  0822               	movf	?___fldiv+2,w
  3219     0AC9  00C0               	movwf	___flmul@a+2
  3220     0ACA  0821               	movf	?___fldiv+1,w
  3221     0ACB  00BF               	movwf	___flmul@a+1
  3222     0ACC  0820               	movf	?___fldiv,w
  3223     0ACD  00BE               	movwf	___flmul@a
  3224     0ACE  1683               	bsf	3,5	;RP0=1, select bank1
  3225     0ACF  1303               	bcf	3,6	;RP1=0, select bank1
  3226     0AD0  0849               	movf	map@x0^(0+128),w
  3227     0AD1  0247               	subwf	map@x^(0+128),w
  3228     0AD2  00F0               	movwf	___xxtofl@val
  3229     0AD3  084A               	movf	(map@x0+1)^(0+128),w
  3230     0AD4  1C03               	skipc
  3231     0AD5  0A4A               	incf	(map@x0+1)^(0+128),w
  3232     0AD6  0248               	subwf	(map@x+1)^(0+128),w
  3233     0AD7  00F1               	movwf	___xxtofl@val+1
  3234     0AD8  01F2               	clrf	___xxtofl@val+2
  3235     0AD9  1BF1               	btfsc	___xxtofl@val+1,7
  3236     0ADA  03F2               	decf	___xxtofl@val+2,f
  3237     0ADB  0872               	movf	___xxtofl@val+2,w
  3238     0ADC  00F3               	movwf	___xxtofl@val+3
  3239     0ADD  3001               	movlw	1
  3240     0ADE  120A  158A  231D  120A  158A  	fcall	___xxtofl
  3241     0AE3  0873               	movf	?___xxtofl+3,w
  3242     0AE4  1283               	bcf	3,5	;RP0=0, select bank0
  3243     0AE5  1303               	bcf	3,6	;RP1=0, select bank0
  3244     0AE6  00BD               	movwf	___flmul@b+3
  3245     0AE7  0872               	movf	?___xxtofl+2,w
  3246     0AE8  00BC               	movwf	___flmul@b+2
  3247     0AE9  0871               	movf	?___xxtofl+1,w
  3248     0AEA  00BB               	movwf	___flmul@b+1
  3249     0AEB  0870               	movf	?___xxtofl,w
  3250     0AEC  00BA               	movwf	___flmul@b
  3251     0AED  120A  118A  203A  120A  158A  	fcall	___flmul
  3252     0AF2  1283               	bcf	3,5	;RP0=0, select bank0
  3253     0AF3  1303               	bcf	3,6	;RP1=0, select bank0
  3254     0AF4  083D               	movf	?___flmul+3,w
  3255     0AF5  00D7               	movwf	___fladd@b+3
  3256     0AF6  083C               	movf	?___flmul+2,w
  3257     0AF7  00D6               	movwf	___fladd@b+2
  3258     0AF8  083B               	movf	?___flmul+1,w
  3259     0AF9  00D5               	movwf	___fladd@b+1
  3260     0AFA  083A               	movf	?___flmul,w
  3261     0AFB  00D4               	movwf	___fladd@b
  3262     0AFC  120A  158A  25A8  120A  158A  	fcall	___fladd
  3263     0B01  1283               	bcf	3,5	;RP0=0, select bank0
  3264     0B02  1303               	bcf	3,6	;RP1=0, select bank0
  3265     0B03  0857               	movf	?___fladd+3,w
  3266     0B04  00EB               	movwf	___fltol@f1+3
  3267     0B05  0856               	movf	?___fladd+2,w
  3268     0B06  00EA               	movwf	___fltol@f1+2
  3269     0B07  0855               	movf	?___fladd+1,w
  3270     0B08  00E9               	movwf	___fltol@f1+1
  3271     0B09  0854               	movf	?___fladd,w
  3272     0B0A  00E8               	movwf	___fltol@f1
  3273     0B0B  120A  158A  2129  120A  158A  	fcall	___fltol
  3274     0B10  1283               	bcf	3,5	;RP0=0, select bank0
  3275     0B11  1303               	bcf	3,6	;RP1=0, select bank0
  3276     0B12  0869               	movf	?___fltol+1,w
  3277     0B13  1683               	bsf	3,5	;RP0=1, select bank1
  3278     0B14  1303               	bcf	3,6	;RP1=0, select bank1
  3279     0B15  00C8               	movwf	(?_map+1)^(0+128)
  3280     0B16  1283               	bcf	3,5	;RP0=0, select bank0
  3281     0B17  1303               	bcf	3,6	;RP1=0, select bank0
  3282     0B18  0868               	movf	?___fltol,w
  3283     0B19  1683               	bsf	3,5	;RP0=1, select bank1
  3284     0B1A  1303               	bcf	3,6	;RP1=0, select bank1
  3285     0B1B  00C7               	movwf	?_map^(0+128)
  3286     0B1C                     i1l298:
  3287     0B1C  0008               	return
  3288     0B1D                     __end_of_map:
  3289                           
  3290                           	psect	text6
  3291     0B1D                     __ptext6:	
  3292 ;; *************** function ___xxtofl *****************
  3293 ;; Defined at:
  3294 ;;		line 10 in file "C:\Program Files\Microchip\xc8\v2.40\pic\sources\c90\common\xxtofl.c"
  3295 ;; Parameters:    Size  Location     Type
  3296 ;;  sign            1    wreg     unsigned char 
  3297 ;;  val             4    0[COMMON] long 
  3298 ;; Auto vars:     Size  Location     Type
  3299 ;;  sign            1    8[COMMON] unsigned char 
  3300 ;;  arg             4   10[COMMON] unsigned long 
  3301 ;;  exp             1    9[COMMON] unsigned char 
  3302 ;; Return value:  Size  Location     Type
  3303 ;;                  4    0[COMMON] unsigned char 
  3304 ;; Registers used:
  3305 ;;		wreg, status,2, status,0
  3306 ;; Tracked objects:
  3307 ;;		On entry : 0/0
  3308 ;;		On exit  : 0/0
  3309 ;;		Unchanged: 0/0
  3310 ;; Data sizes:     COMMON   BANK0   BANK1   BANK3   BANK2
  3311 ;;      Params:         4       0       0       0       0
  3312 ;;      Locals:         6       0       0       0       0
  3313 ;;      Temps:          4       0       0       0       0
  3314 ;;      Totals:        14       0       0       0       0
  3315 ;;Total ram usage:       14 bytes
  3316 ;; Hardware stack levels used: 1
  3317 ;; This function calls:
  3318 ;;		Nothing
  3319 ;; This function is called by:
  3320 ;;		_map
  3321 ;; This function uses a non-reentrant model
  3322 ;;
  3323                           
  3324     0B1D                     ___xxtofl:	
  3325                           ;psect for function ___xxtofl
  3326                           
  3327                           
  3328                           ;incstack = 0
  3329                           ; Regs used in ___xxtofl: [wreg+status,2+status,0]
  3330                           ;___xxtofl@sign stored from wreg
  3331     0B1D  00F8               	movwf	___xxtofl@sign
  3332     0B1E                     i1l2451:
  3333     0B1E  0878               	movf	___xxtofl@sign,w
  3334     0B1F  1903               	btfsc	3,2
  3335     0B20  2B22               	goto	u332_21
  3336     0B21  2B23               	goto	u332_20
  3337     0B22                     u332_21:
  3338     0B22  2B37               	goto	i1l2457
  3339     0B23                     u332_20:
  3340     0B23                     i1l2453:
  3341     0B23  1FF3               	btfss	___xxtofl@val+3,7
  3342     0B24  2B26               	goto	u333_21
  3343     0B25  2B27               	goto	u333_20
  3344     0B26                     u333_21:
  3345     0B26  2B37               	goto	i1l2457
  3346     0B27                     u333_20:
  3347     0B27                     i1l2455:
  3348     0B27  0970               	comf	___xxtofl@val,w
  3349     0B28  00FA               	movwf	___xxtofl@arg
  3350     0B29  0971               	comf	___xxtofl@val+1,w
  3351     0B2A  00FB               	movwf	___xxtofl@arg+1
  3352     0B2B  0972               	comf	___xxtofl@val+2,w
  3353     0B2C  00FC               	movwf	___xxtofl@arg+2
  3354     0B2D  0973               	comf	___xxtofl@val+3,w
  3355     0B2E  00FD               	movwf	___xxtofl@arg+3
  3356     0B2F  0AFA               	incf	___xxtofl@arg,f
  3357     0B30  1903               	skipnz
  3358     0B31  0AFB               	incf	___xxtofl@arg+1,f
  3359     0B32  1903               	skipnz
  3360     0B33  0AFC               	incf	___xxtofl@arg+2,f
  3361     0B34  1903               	skipnz
  3362     0B35  0AFD               	incf	___xxtofl@arg+3,f
  3363     0B36  2B3F               	goto	i1l832
  3364     0B37                     i1l2457:
  3365     0B37  0873               	movf	___xxtofl@val+3,w
  3366     0B38  00FD               	movwf	___xxtofl@arg+3
  3367     0B39  0872               	movf	___xxtofl@val+2,w
  3368     0B3A  00FC               	movwf	___xxtofl@arg+2
  3369     0B3B  0871               	movf	___xxtofl@val+1,w
  3370     0B3C  00FB               	movwf	___xxtofl@arg+1
  3371     0B3D  0870               	movf	___xxtofl@val,w
  3372     0B3E  00FA               	movwf	___xxtofl@arg
  3373     0B3F                     i1l832:
  3374     0B3F  0873               	movf	___xxtofl@val+3,w
  3375     0B40  0472               	iorwf	___xxtofl@val+2,w
  3376     0B41  0471               	iorwf	___xxtofl@val+1,w
  3377     0B42  0470               	iorwf	___xxtofl@val,w
  3378     0B43  1D03               	skipz
  3379     0B44  2B46               	goto	u334_21
  3380     0B45  2B47               	goto	u334_20
  3381     0B46                     u334_21:
  3382     0B46  2B50               	goto	i1l2463
  3383     0B47                     u334_20:
  3384     0B47                     i1l2459:
  3385     0B47  3000               	movlw	0
  3386     0B48  00F3               	movwf	?___xxtofl+3
  3387     0B49  3000               	movlw	0
  3388     0B4A  00F2               	movwf	?___xxtofl+2
  3389     0B4B  3000               	movlw	0
  3390     0B4C  00F1               	movwf	?___xxtofl+1
  3391     0B4D  3000               	movlw	0
  3392     0B4E  00F0               	movwf	?___xxtofl
  3393     0B4F  2BD4               	goto	i1l834
  3394     0B50                     i1l2463:
  3395     0B50  3096               	movlw	150
  3396     0B51  00F9               	movwf	___xxtofl@exp
  3397     0B52  2B60               	goto	i1l2467
  3398     0B53                     i1l2465:
  3399     0B53  3001               	movlw	1
  3400     0B54  00F4               	movwf	??___xxtofl
  3401     0B55  0874               	movf	??___xxtofl,w
  3402     0B56  07F9               	addwf	___xxtofl@exp,f
  3403     0B57  3001               	movlw	1
  3404     0B58                     u335_25:
  3405     0B58  1003               	clrc
  3406     0B59  0CFD               	rrf	___xxtofl@arg+3,f
  3407     0B5A  0CFC               	rrf	___xxtofl@arg+2,f
  3408     0B5B  0CFB               	rrf	___xxtofl@arg+1,f
  3409     0B5C  0CFA               	rrf	___xxtofl@arg,f
  3410     0B5D  3EFF               	addlw	-1
  3411     0B5E  1D03               	skipz
  3412     0B5F  2B58               	goto	u335_25
  3413     0B60                     i1l2467:
  3414     0B60  30FE               	movlw	254
  3415     0B61  057D               	andwf	___xxtofl@arg+3,w
  3416     0B62  1D03               	btfss	3,2
  3417     0B63  2B65               	goto	u336_21
  3418     0B64  2B66               	goto	u336_20
  3419     0B65                     u336_21:
  3420     0B65  2B53               	goto	i1l2465
  3421     0B66                     u336_20:
  3422     0B66  2B82               	goto	i1l838
  3423     0B67                     i1l2469:
  3424     0B67  3001               	movlw	1
  3425     0B68  00F4               	movwf	??___xxtofl
  3426     0B69  0874               	movf	??___xxtofl,w
  3427     0B6A  07F9               	addwf	___xxtofl@exp,f
  3428     0B6B                     i1l2471:
  3429     0B6B  3001               	movlw	1
  3430     0B6C  07FA               	addwf	___xxtofl@arg,f
  3431     0B6D  3000               	movlw	0
  3432     0B6E  1803               	skipnc
  3433     0B6F  3001               	movlw	1
  3434     0B70  07FB               	addwf	___xxtofl@arg+1,f
  3435     0B71  3000               	movlw	0
  3436     0B72  1803               	skipnc
  3437     0B73  3001               	movlw	1
  3438     0B74  07FC               	addwf	___xxtofl@arg+2,f
  3439     0B75  3000               	movlw	0
  3440     0B76  1803               	skipnc
  3441     0B77  3001               	movlw	1
  3442     0B78  07FD               	addwf	___xxtofl@arg+3,f
  3443     0B79                     i1l2473:
  3444     0B79  3001               	movlw	1
  3445     0B7A                     u337_25:
  3446     0B7A  1003               	clrc
  3447     0B7B  0CFD               	rrf	___xxtofl@arg+3,f
  3448     0B7C  0CFC               	rrf	___xxtofl@arg+2,f
  3449     0B7D  0CFB               	rrf	___xxtofl@arg+1,f
  3450     0B7E  0CFA               	rrf	___xxtofl@arg,f
  3451     0B7F  3EFF               	addlw	-1
  3452     0B80  1D03               	skipz
  3453     0B81  2B7A               	goto	u337_25
  3454     0B82                     i1l838:
  3455     0B82  30FF               	movlw	255
  3456     0B83  057D               	andwf	___xxtofl@arg+3,w
  3457     0B84  1D03               	btfss	3,2
  3458     0B85  2B87               	goto	u338_21
  3459     0B86  2B88               	goto	u338_20
  3460     0B87                     u338_21:
  3461     0B87  2B67               	goto	i1l2469
  3462     0B88                     u338_20:
  3463     0B88  2B94               	goto	i1l2477
  3464     0B89                     i1l2475:
  3465     0B89  3001               	movlw	1
  3466     0B8A  02F9               	subwf	___xxtofl@exp,f
  3467     0B8B  3001               	movlw	1
  3468     0B8C  00F4               	movwf	??___xxtofl
  3469     0B8D                     u339_25:
  3470     0B8D  1003               	clrc
  3471     0B8E  0DFA               	rlf	___xxtofl@arg,f
  3472     0B8F  0DFB               	rlf	___xxtofl@arg+1,f
  3473     0B90  0DFC               	rlf	___xxtofl@arg+2,f
  3474     0B91  0DFD               	rlf	___xxtofl@arg+3,f
  3475     0B92  0BF4               	decfsz	??___xxtofl,f
  3476     0B93  2B8D               	goto	u339_25
  3477     0B94                     i1l2477:
  3478     0B94  1BFC               	btfsc	___xxtofl@arg+2,7
  3479     0B95  2B97               	goto	u340_21
  3480     0B96  2B98               	goto	u340_20
  3481     0B97                     u340_21:
  3482     0B97  2B9E               	goto	i1l845
  3483     0B98                     u340_20:
  3484     0B98                     i1l2479:
  3485     0B98  3002               	movlw	2
  3486     0B99  0279               	subwf	___xxtofl@exp,w
  3487     0B9A  1803               	skipnc
  3488     0B9B  2B9D               	goto	u341_21
  3489     0B9C  2B9E               	goto	u341_20
  3490     0B9D                     u341_21:
  3491     0B9D  2B89               	goto	i1l2475
  3492     0B9E                     u341_20:
  3493     0B9E                     i1l845:
  3494     0B9E  1879               	btfsc	___xxtofl@exp,0
  3495     0B9F  2BA1               	goto	u342_21
  3496     0BA0  2BA2               	goto	u342_20
  3497     0BA1                     u342_21:
  3498     0BA1  2BAA               	goto	i1l846
  3499     0BA2                     u342_20:
  3500     0BA2                     i1l2481:
  3501     0BA2  30FF               	movlw	255
  3502     0BA3  05FA               	andwf	___xxtofl@arg,f
  3503     0BA4  30FF               	movlw	255
  3504     0BA5  05FB               	andwf	___xxtofl@arg+1,f
  3505     0BA6  307F               	movlw	127
  3506     0BA7  05FC               	andwf	___xxtofl@arg+2,f
  3507     0BA8  30FF               	movlw	255
  3508     0BA9  05FD               	andwf	___xxtofl@arg+3,f
  3509     0BAA                     i1l846:
  3510     0BAA  1003               	clrc
  3511     0BAB  0CF9               	rrf	___xxtofl@exp,f
  3512     0BAC                     i1l2483:
  3513     0BAC  0879               	movf	___xxtofl@exp,w
  3514     0BAD  00F4               	movwf	??___xxtofl
  3515     0BAE  01F5               	clrf	??___xxtofl+1
  3516     0BAF  01F6               	clrf	??___xxtofl+2
  3517     0BB0  01F7               	clrf	??___xxtofl+3
  3518     0BB1  3018               	movlw	24
  3519     0BB2                     u343_25:
  3520     0BB2  1003               	clrc
  3521     0BB3  0DF4               	rlf	??___xxtofl,f
  3522     0BB4  0DF5               	rlf	??___xxtofl+1,f
  3523     0BB5  0DF6               	rlf	??___xxtofl+2,f
  3524     0BB6  0DF7               	rlf	??___xxtofl+3,f
  3525     0BB7                     u343_20:
  3526     0BB7  3EFF               	addlw	-1
  3527     0BB8  1D03               	skipz
  3528     0BB9  2BB2               	goto	u343_25
  3529     0BBA  0874               	movf	??___xxtofl,w
  3530     0BBB  04FA               	iorwf	___xxtofl@arg,f
  3531     0BBC  0875               	movf	??___xxtofl+1,w
  3532     0BBD  04FB               	iorwf	___xxtofl@arg+1,f
  3533     0BBE  0876               	movf	??___xxtofl+2,w
  3534     0BBF  04FC               	iorwf	___xxtofl@arg+2,f
  3535     0BC0  0877               	movf	??___xxtofl+3,w
  3536     0BC1  04FD               	iorwf	___xxtofl@arg+3,f
  3537     0BC2                     i1l2485:
  3538     0BC2  0878               	movf	___xxtofl@sign,w
  3539     0BC3  1903               	btfsc	3,2
  3540     0BC4  2BC6               	goto	u344_21
  3541     0BC5  2BC7               	goto	u344_20
  3542     0BC6                     u344_21:
  3543     0BC6  2BCC               	goto	i1l2491
  3544     0BC7                     u344_20:
  3545     0BC7                     i1l2487:
  3546     0BC7  1FF3               	btfss	___xxtofl@val+3,7
  3547     0BC8  2BCA               	goto	u345_21
  3548     0BC9  2BCB               	goto	u345_20
  3549     0BCA                     u345_21:
  3550     0BCA  2BCC               	goto	i1l2491
  3551     0BCB                     u345_20:
  3552     0BCB                     i1l2489:
  3553     0BCB  17FD               	bsf	___xxtofl@arg+3,7
  3554     0BCC                     i1l2491:
  3555     0BCC  087D               	movf	___xxtofl@arg+3,w
  3556     0BCD  00F3               	movwf	?___xxtofl+3
  3557     0BCE  087C               	movf	___xxtofl@arg+2,w
  3558     0BCF  00F2               	movwf	?___xxtofl+2
  3559     0BD0  087B               	movf	___xxtofl@arg+1,w
  3560     0BD1  00F1               	movwf	?___xxtofl+1
  3561     0BD2  087A               	movf	___xxtofl@arg,w
  3562     0BD3  00F0               	movwf	?___xxtofl
  3563     0BD4                     i1l834:
  3564     0BD4  0008               	return
  3565     0BD5                     __end_of___xxtofl:
  3566                           
  3567                           	psect	text7
  3568     0929                     __ptext7:	
  3569 ;; *************** function ___fltol *****************
  3570 ;; Defined at:
  3571 ;;		line 43 in file "C:\Program Files\Microchip\xc8\v2.40\pic\sources\c90\common\fltol.c"
  3572 ;; Parameters:    Size  Location     Type
  3573 ;;  f1              4   72[BANK0 ] unsigned char 
  3574 ;; Auto vars:     Size  Location     Type
  3575 ;;  exp1            1    1[BANK1 ] unsigned char 
  3576 ;;  sign1           1    0[BANK1 ] unsigned char 
  3577 ;; Return value:  Size  Location     Type
  3578 ;;                  4   72[BANK0 ] long 
  3579 ;; Registers used:
  3580 ;;		wreg, status,2, status,0
  3581 ;; Tracked objects:
  3582 ;;		On entry : 0/0
  3583 ;;		On exit  : 0/0
  3584 ;;		Unchanged: 0/0
  3585 ;; Data sizes:     COMMON   BANK0   BANK1   BANK3   BANK2
  3586 ;;      Params:         0       4       0       0       0
  3587 ;;      Locals:         0       0       2       0       0
  3588 ;;      Temps:          0       4       0       0       0
  3589 ;;      Totals:         0       8       2       0       0
  3590 ;;Total ram usage:       10 bytes
  3591 ;; Hardware stack levels used: 1
  3592 ;; This function calls:
  3593 ;;		Nothing
  3594 ;; This function is called by:
  3595 ;;		_map
  3596 ;; This function uses a non-reentrant model
  3597 ;;
  3598                           
  3599     0929                     ___fltol:	
  3600                           ;psect for function ___fltol
  3601                           
  3602     0929                     i1l1939:	
  3603                           ;incstack = 0
  3604                           ; Regs used in ___fltol: [wreg+status,2+status,0]
  3605                           
  3606     0929  1003               	clrc
  3607     092A  1283               	bcf	3,5	;RP0=0, select bank0
  3608     092B  1303               	bcf	3,6	;RP1=0, select bank0
  3609     092C  0D6A               	rlf	___fltol@f1+2,w
  3610     092D  0D6B               	rlf	___fltol@f1+3,w
  3611     092E  1683               	bsf	3,5	;RP0=1, select bank1
  3612     092F  1303               	bcf	3,6	;RP1=0, select bank1
  3613     0930  00C6               	movwf	___fltol@exp1^(0+128)
  3614     0931  0846               	movf	___fltol@exp1^(0+128),w
  3615     0932  1D03               	btfss	3,2
  3616     0933  2935               	goto	u210_21
  3617     0934  2936               	goto	u210_20
  3618     0935                     u210_21:
  3619     0935  2941               	goto	i1l1945
  3620     0936                     u210_20:
  3621     0936                     i1l1941:
  3622     0936  3000               	movlw	0
  3623     0937  1283               	bcf	3,5	;RP0=0, select bank0
  3624     0938  1303               	bcf	3,6	;RP1=0, select bank0
  3625     0939  00EB               	movwf	?___fltol+3
  3626     093A  3000               	movlw	0
  3627     093B  00EA               	movwf	?___fltol+2
  3628     093C  3000               	movlw	0
  3629     093D  00E9               	movwf	?___fltol+1
  3630     093E  3000               	movlw	0
  3631     093F  00E8               	movwf	?___fltol
  3632     0940  29B6               	goto	i1l585
  3633     0941                     i1l1945:
  3634     0941  1283               	bcf	3,5	;RP0=0, select bank0
  3635     0942  1303               	bcf	3,6	;RP1=0, select bank0
  3636     0943  0868               	movf	___fltol@f1,w
  3637     0944  00EC               	movwf	??___fltol
  3638     0945  0869               	movf	___fltol@f1+1,w
  3639     0946  00ED               	movwf	??___fltol+1
  3640     0947  086A               	movf	___fltol@f1+2,w
  3641     0948  00EE               	movwf	??___fltol+2
  3642     0949  086B               	movf	___fltol@f1+3,w
  3643     094A  00EF               	movwf	??___fltol+3
  3644     094B  301F               	movlw	31
  3645     094C                     u211_25:
  3646     094C  1003               	clrc
  3647     094D  0CEF               	rrf	??___fltol+3,f
  3648     094E  0CEE               	rrf	??___fltol+2,f
  3649     094F  0CED               	rrf	??___fltol+1,f
  3650     0950  0CEC               	rrf	??___fltol,f
  3651     0951                     u211_20:
  3652     0951  3EFF               	addlw	-1
  3653     0952  1D03               	skipz
  3654     0953  294C               	goto	u211_25
  3655     0954  086C               	movf	??___fltol,w
  3656     0955  1683               	bsf	3,5	;RP0=1, select bank1
  3657     0956  1303               	bcf	3,6	;RP1=0, select bank1
  3658     0957  00C5               	movwf	___fltol@sign1^(0+128)
  3659     0958                     i1l1947:
  3660     0958  1283               	bcf	3,5	;RP0=0, select bank0
  3661     0959  1303               	bcf	3,6	;RP1=0, select bank0
  3662     095A  17EA               	bsf	___fltol@f1+2,7
  3663     095B                     i1l1949:
  3664     095B  30FF               	movlw	255
  3665     095C  05E8               	andwf	___fltol@f1,f
  3666     095D  30FF               	movlw	255
  3667     095E  05E9               	andwf	___fltol@f1+1,f
  3668     095F  30FF               	movlw	255
  3669     0960  05EA               	andwf	___fltol@f1+2,f
  3670     0961  3000               	movlw	0
  3671     0962  05EB               	andwf	___fltol@f1+3,f
  3672     0963                     i1l1951:
  3673     0963  3096               	movlw	150
  3674     0964  1683               	bsf	3,5	;RP0=1, select bank1
  3675     0965  1303               	bcf	3,6	;RP1=0, select bank1
  3676     0966  02C6               	subwf	___fltol@exp1^(0+128),f
  3677     0967                     i1l1953:
  3678     0967  1FC6               	btfss	___fltol@exp1^(0+128),7
  3679     0968  296A               	goto	u212_21
  3680     0969  296B               	goto	u212_20
  3681     096A                     u212_21:
  3682     096A  2989               	goto	i1l1963
  3683     096B                     u212_20:
  3684     096B                     i1l1955:
  3685     096B  0846               	movf	___fltol@exp1^(0+128),w
  3686     096C  3A80               	xorlw	128
  3687     096D  3E97               	addlw	151
  3688     096E  1803               	skipnc
  3689     096F  2971               	goto	u213_21
  3690     0970  2972               	goto	u213_20
  3691     0971                     u213_21:
  3692     0971  2973               	goto	i1l1961
  3693     0972                     u213_20:
  3694     0972  2936               	goto	i1l1941
  3695     0973                     i1l1961:
  3696     0973  3001               	movlw	1
  3697     0974                     u214_25:
  3698     0974  1003               	clrc
  3699     0975  1283               	bcf	3,5	;RP0=0, select bank0
  3700     0976  1303               	bcf	3,6	;RP1=0, select bank0
  3701     0977  0CEB               	rrf	___fltol@f1+3,f
  3702     0978  0CEA               	rrf	___fltol@f1+2,f
  3703     0979  0CE9               	rrf	___fltol@f1+1,f
  3704     097A  0CE8               	rrf	___fltol@f1,f
  3705     097B  3EFF               	addlw	-1
  3706     097C  1D03               	skipz
  3707     097D  2974               	goto	u214_25
  3708     097E  3001               	movlw	1
  3709     097F  00EC               	movwf	??___fltol
  3710     0980  086C               	movf	??___fltol,w
  3711     0981  1683               	bsf	3,5	;RP0=1, select bank1
  3712     0982  1303               	bcf	3,6	;RP1=0, select bank1
  3713     0983  07C6               	addwf	___fltol@exp1^(0+128),f
  3714     0984  1D03               	btfss	3,2
  3715     0985  2987               	goto	u215_21
  3716     0986  2988               	goto	u215_20
  3717     0987                     u215_21:
  3718     0987  2973               	goto	i1l1961
  3719     0988                     u215_20:
  3720     0988  29A4               	goto	i1l1971
  3721     0989                     i1l1963:
  3722     0989  3020               	movlw	32
  3723     098A  0246               	subwf	___fltol@exp1^(0+128),w
  3724     098B  1C03               	skipc
  3725     098C  298E               	goto	u216_21
  3726     098D  298F               	goto	u216_20
  3727     098E                     u216_21:
  3728     098E  299F               	goto	i1l592
  3729     098F                     u216_20:
  3730     098F  2936               	goto	i1l1941
  3731     0990                     i1l1969:
  3732     0990  3001               	movlw	1
  3733     0991  1283               	bcf	3,5	;RP0=0, select bank0
  3734     0992  1303               	bcf	3,6	;RP1=0, select bank0
  3735     0993  00EC               	movwf	??___fltol
  3736     0994                     u217_25:
  3737     0994  1003               	clrc
  3738     0995  0DE8               	rlf	___fltol@f1,f
  3739     0996  0DE9               	rlf	___fltol@f1+1,f
  3740     0997  0DEA               	rlf	___fltol@f1+2,f
  3741     0998  0DEB               	rlf	___fltol@f1+3,f
  3742     0999  0BEC               	decfsz	??___fltol,f
  3743     099A  2994               	goto	u217_25
  3744     099B  3001               	movlw	1
  3745     099C  1683               	bsf	3,5	;RP0=1, select bank1
  3746     099D  1303               	bcf	3,6	;RP1=0, select bank1
  3747     099E  02C6               	subwf	___fltol@exp1^(0+128),f
  3748     099F                     i1l592:
  3749     099F  0846               	movf	___fltol@exp1^(0+128),w
  3750     09A0  1D03               	btfss	3,2
  3751     09A1  29A3               	goto	u218_21
  3752     09A2  29A4               	goto	u218_20
  3753     09A3                     u218_21:
  3754     09A3  2990               	goto	i1l1969
  3755     09A4                     u218_20:
  3756     09A4                     i1l1971:
  3757     09A4  0845               	movf	___fltol@sign1^(0+128),w
  3758     09A5  1903               	btfsc	3,2
  3759     09A6  29A8               	goto	u219_21
  3760     09A7  29A9               	goto	u219_20
  3761     09A8                     u219_21:
  3762     09A8  29B6               	goto	i1l595
  3763     09A9                     u219_20:
  3764     09A9                     i1l1973:
  3765     09A9  1283               	bcf	3,5	;RP0=0, select bank0
  3766     09AA  1303               	bcf	3,6	;RP1=0, select bank0
  3767     09AB  09E8               	comf	___fltol@f1,f
  3768     09AC  09E9               	comf	___fltol@f1+1,f
  3769     09AD  09EA               	comf	___fltol@f1+2,f
  3770     09AE  09EB               	comf	___fltol@f1+3,f
  3771     09AF  0AE8               	incf	___fltol@f1,f
  3772     09B0  1903               	skipnz
  3773     09B1  0AE9               	incf	___fltol@f1+1,f
  3774     09B2  1903               	skipnz
  3775     09B3  0AEA               	incf	___fltol@f1+2,f
  3776     09B4  1903               	skipnz
  3777     09B5  0AEB               	incf	___fltol@f1+3,f
  3778     09B6                     i1l595:
  3779     09B6                     i1l585:
  3780     09B6  0008               	return
  3781     09B7                     __end_of___fltol:
  3782                           
  3783                           	psect	text8
  3784     003A                     __ptext8:	
  3785 ;; *************** function ___flmul *****************
  3786 ;; Defined at:
  3787 ;;		line 8 in file "C:\Program Files\Microchip\xc8\v2.40\pic\sources\c90\common\sprcmul.c"
  3788 ;; Parameters:    Size  Location     Type
  3789 ;;  b               4   26[BANK0 ] long 
  3790 ;;  a               4   30[BANK0 ] long 
  3791 ;; Auto vars:     Size  Location     Type
  3792 ;;  prod            4   46[BANK0 ] struct .
  3793 ;;  grs             4   40[BANK0 ] unsigned long 
  3794 ;;  temp            2   50[BANK0 ] struct .
  3795 ;;  bexp            1   45[BANK0 ] unsigned char 
  3796 ;;  aexp            1   44[BANK0 ] unsigned char 
  3797 ;;  sign            1   39[BANK0 ] unsigned char 
  3798 ;; Return value:  Size  Location     Type
  3799 ;;                  4   26[BANK0 ] unsigned char 
  3800 ;; Registers used:
  3801 ;;		wreg, status,2, status,0, btemp+1, pclath, cstack
  3802 ;; Tracked objects:
  3803 ;;		On entry : 0/0
  3804 ;;		On exit  : 0/0
  3805 ;;		Unchanged: 0/0
  3806 ;; Data sizes:     COMMON   BANK0   BANK1   BANK3   BANK2
  3807 ;;      Params:         0       8       0       0       0
  3808 ;;      Locals:         0      13       0       0       0
  3809 ;;      Temps:          0       5       0       0       0
  3810 ;;      Totals:         0      26       0       0       0
  3811 ;;Total ram usage:       26 bytes
  3812 ;; Hardware stack levels used: 1
  3813 ;; Hardware stack levels required when called: 1
  3814 ;; This function calls:
  3815 ;;		__Umul8_16
  3816 ;; This function is called by:
  3817 ;;		_map
  3818 ;; This function uses a non-reentrant model
  3819 ;;
  3820                           
  3821     003A                     ___flmul:	
  3822                           ;psect for function ___flmul
  3823                           
  3824     003A                     i1l2311:	
  3825                           ;incstack = 0
  3826                           ; Regs used in ___flmul: [wreg+status,2+status,0+btemp+1+pclath+cstack]
  3827                           
  3828     003A  1283               	bcf	3,5	;RP0=0, select bank0
  3829     003B  1303               	bcf	3,6	;RP1=0, select bank0
  3830     003C  083D               	movf	___flmul@b+3,w
  3831     003D  3980               	andlw	128
  3832     003E  00C7               	movwf	___flmul@sign
  3833     003F                     i1l2313:
  3834     003F  083D               	movf	___flmul@b+3,w
  3835     0040  00C2               	movwf	??___flmul
  3836     0041  0742               	addwf	??___flmul,w
  3837     0042  00CD               	movwf	___flmul@bexp
  3838     0043                     i1l2315:
  3839     0043  1FBC               	btfss	___flmul@b+2,7
  3840     0044  2846               	goto	u295_21
  3841     0045  2847               	goto	u295_20
  3842     0046                     u295_21:
  3843     0046  2848               	goto	i1l2319
  3844     0047                     u295_20:
  3845     0047                     i1l2317:
  3846     0047  144D               	bsf	___flmul@bexp,0
  3847     0048                     i1l2319:
  3848     0048  084D               	movf	___flmul@bexp,w
  3849     0049  1903               	btfsc	3,2
  3850     004A  284C               	goto	u296_21
  3851     004B  284D               	goto	u296_20
  3852     004C                     u296_21:
  3853     004C  285C               	goto	i1l2327
  3854     004D                     u296_20:
  3855     004D                     i1l2321:
  3856     004D  0A4D               	incf	___flmul@bexp,w
  3857     004E  1D03               	btfss	3,2
  3858     004F  2851               	goto	u297_21
  3859     0050  2852               	goto	u297_20
  3860     0051                     u297_21:
  3861     0051  285A               	goto	i1l2325
  3862     0052                     u297_20:
  3863     0052                     i1l2323:
  3864     0052  3000               	movlw	0
  3865     0053  00BD               	movwf	___flmul@b+3
  3866     0054  3000               	movlw	0
  3867     0055  00BC               	movwf	___flmul@b+2
  3868     0056  3000               	movlw	0
  3869     0057  00BB               	movwf	___flmul@b+1
  3870     0058  3000               	movlw	0
  3871     0059  00BA               	movwf	___flmul@b
  3872     005A                     i1l2325:
  3873     005A  17BC               	bsf	___flmul@b+2,7
  3874     005B  2864               	goto	i1l2329
  3875     005C                     i1l2327:
  3876     005C  3000               	movlw	0
  3877     005D  00BD               	movwf	___flmul@b+3
  3878     005E  3000               	movlw	0
  3879     005F  00BC               	movwf	___flmul@b+2
  3880     0060  3000               	movlw	0
  3881     0061  00BB               	movwf	___flmul@b+1
  3882     0062  3000               	movlw	0
  3883     0063  00BA               	movwf	___flmul@b
  3884     0064                     i1l2329:
  3885     0064  0841               	movf	___flmul@a+3,w
  3886     0065  3980               	andlw	128
  3887     0066  00C2               	movwf	??___flmul
  3888     0067  0842               	movf	??___flmul,w
  3889     0068  06C7               	xorwf	___flmul@sign,f
  3890     0069                     i1l2331:
  3891     0069  0841               	movf	___flmul@a+3,w
  3892     006A  00C2               	movwf	??___flmul
  3893     006B  0742               	addwf	??___flmul,w
  3894     006C  00CC               	movwf	___flmul@aexp
  3895     006D                     i1l2333:
  3896     006D  1FC0               	btfss	___flmul@a+2,7
  3897     006E  2870               	goto	u298_21
  3898     006F  2871               	goto	u298_20
  3899     0070                     u298_21:
  3900     0070  2872               	goto	i1l2337
  3901     0071                     u298_20:
  3902     0071                     i1l2335:
  3903     0071  144C               	bsf	___flmul@aexp,0
  3904     0072                     i1l2337:
  3905     0072  084C               	movf	___flmul@aexp,w
  3906     0073  1903               	btfsc	3,2
  3907     0074  2876               	goto	u299_21
  3908     0075  2877               	goto	u299_20
  3909     0076                     u299_21:
  3910     0076  2886               	goto	i1l2345
  3911     0077                     u299_20:
  3912     0077                     i1l2339:
  3913     0077  0A4C               	incf	___flmul@aexp,w
  3914     0078  1D03               	btfss	3,2
  3915     0079  287B               	goto	u300_21
  3916     007A  287C               	goto	u300_20
  3917     007B                     u300_21:
  3918     007B  2884               	goto	i1l2343
  3919     007C                     u300_20:
  3920     007C                     i1l2341:
  3921     007C  3000               	movlw	0
  3922     007D  00C1               	movwf	___flmul@a+3
  3923     007E  3000               	movlw	0
  3924     007F  00C0               	movwf	___flmul@a+2
  3925     0080  3000               	movlw	0
  3926     0081  00BF               	movwf	___flmul@a+1
  3927     0082  3000               	movlw	0
  3928     0083  00BE               	movwf	___flmul@a
  3929     0084                     i1l2343:
  3930     0084  17C0               	bsf	___flmul@a+2,7
  3931     0085  288E               	goto	i1l2347
  3932     0086                     i1l2345:
  3933     0086  3000               	movlw	0
  3934     0087  00C1               	movwf	___flmul@a+3
  3935     0088  3000               	movlw	0
  3936     0089  00C0               	movwf	___flmul@a+2
  3937     008A  3000               	movlw	0
  3938     008B  00BF               	movwf	___flmul@a+1
  3939     008C  3000               	movlw	0
  3940     008D  00BE               	movwf	___flmul@a
  3941     008E                     i1l2347:
  3942     008E  084C               	movf	___flmul@aexp,w
  3943     008F  1903               	btfsc	3,2
  3944     0090  2892               	goto	u301_21
  3945     0091  2893               	goto	u301_20
  3946     0092                     u301_21:
  3947     0092  2898               	goto	i1l2351
  3948     0093                     u301_20:
  3949     0093                     i1l2349:
  3950     0093  084D               	movf	___flmul@bexp,w
  3951     0094  1D03               	btfss	3,2
  3952     0095  2897               	goto	u302_21
  3953     0096  2898               	goto	u302_20
  3954     0097                     u302_21:
  3955     0097  28A1               	goto	i1l2355
  3956     0098                     u302_20:
  3957     0098                     i1l2351:
  3958     0098  3000               	movlw	0
  3959     0099  00BD               	movwf	?___flmul+3
  3960     009A  3000               	movlw	0
  3961     009B  00BC               	movwf	?___flmul+2
  3962     009C  3000               	movlw	0
  3963     009D  00BB               	movwf	?___flmul+1
  3964     009E  3000               	movlw	0
  3965     009F  00BA               	movwf	?___flmul
  3966     00A0  2B7E               	goto	i1l788
  3967     00A1                     i1l2355:
  3968     00A1  083A               	movf	___flmul@b,w
  3969     00A2  00F0               	movwf	__Umul8_16@multiplicand
  3970     00A3  0840               	movf	___flmul@a+2,w
  3971     00A4  120A  118A  27C5  120A  118A  	fcall	__Umul8_16
  3972     00A9  0871               	movf	?__Umul8_16+1,w
  3973     00AA  1283               	bcf	3,5	;RP0=0, select bank0
  3974     00AB  1303               	bcf	3,6	;RP1=0, select bank0
  3975     00AC  00D3               	movwf	___flmul@temp+1
  3976     00AD  0870               	movf	?__Umul8_16,w
  3977     00AE  00D2               	movwf	___flmul@temp
  3978     00AF                     i1l2357:
  3979     00AF  0852               	movf	___flmul@temp,w
  3980     00B0  00C2               	movwf	??___flmul
  3981     00B1  01C3               	clrf	??___flmul+1
  3982     00B2  01C4               	clrf	??___flmul+2
  3983     00B3  01C5               	clrf	??___flmul+3
  3984     00B4  0845               	movf	??___flmul+3,w
  3985     00B5  00CB               	movwf	___flmul@grs+3
  3986     00B6  0844               	movf	??___flmul+2,w
  3987     00B7  00CA               	movwf	___flmul@grs+2
  3988     00B8  0843               	movf	??___flmul+1,w
  3989     00B9  00C9               	movwf	___flmul@grs+1
  3990     00BA  0842               	movf	??___flmul,w
  3991     00BB  00C8               	movwf	___flmul@grs
  3992     00BC                     i1l2359:
  3993     00BC  0853               	movf	___flmul@temp+1,w
  3994     00BD  00C2               	movwf	??___flmul
  3995     00BE  01C3               	clrf	??___flmul+1
  3996     00BF  01C4               	clrf	??___flmul+2
  3997     00C0  01C5               	clrf	??___flmul+3
  3998     00C1  0845               	movf	??___flmul+3,w
  3999     00C2  00D1               	movwf	___flmul@prod+3
  4000     00C3  0844               	movf	??___flmul+2,w
  4001     00C4  00D0               	movwf	___flmul@prod+2
  4002     00C5  0843               	movf	??___flmul+1,w
  4003     00C6  00CF               	movwf	___flmul@prod+1
  4004     00C7  0842               	movf	??___flmul,w
  4005     00C8  00CE               	movwf	___flmul@prod
  4006     00C9  083B               	movf	___flmul@b+1,w
  4007     00CA  00F0               	movwf	__Umul8_16@multiplicand
  4008     00CB  083F               	movf	___flmul@a+1,w
  4009     00CC  120A  118A  27C5  120A  118A  	fcall	__Umul8_16
  4010     00D1  0871               	movf	?__Umul8_16+1,w
  4011     00D2  1283               	bcf	3,5	;RP0=0, select bank0
  4012     00D3  1303               	bcf	3,6	;RP1=0, select bank0
  4013     00D4  00D3               	movwf	___flmul@temp+1
  4014     00D5  0870               	movf	?__Umul8_16,w
  4015     00D6  00D2               	movwf	___flmul@temp
  4016     00D7                     i1l2361:
  4017     00D7  0852               	movf	___flmul@temp,w
  4018     00D8  00C2               	movwf	??___flmul
  4019     00D9  01C3               	clrf	??___flmul+1
  4020     00DA  01C4               	clrf	??___flmul+2
  4021     00DB  01C5               	clrf	??___flmul+3
  4022     00DC  0842               	movf	??___flmul,w
  4023     00DD  07C8               	addwf	___flmul@grs,f
  4024     00DE  0843               	movf	??___flmul+1,w
  4025     00DF  1103               	clrz
  4026     00E0  1803               	skipnc
  4027     00E1  3E01               	addlw	1
  4028     00E2  1903               	skipnz
  4029     00E3  28E5               	goto	u303_21
  4030     00E4  07C9               	addwf	___flmul@grs+1,f
  4031     00E5                     u303_21:
  4032     00E5  0844               	movf	??___flmul+2,w
  4033     00E6  1103               	clrz
  4034     00E7  1803               	skipnc
  4035     00E8  3E01               	addlw	1
  4036     00E9  1903               	skipnz
  4037     00EA  28EC               	goto	u303_22
  4038     00EB  07CA               	addwf	___flmul@grs+2,f
  4039     00EC                     u303_22:
  4040     00EC  0845               	movf	??___flmul+3,w
  4041     00ED  1103               	clrz
  4042     00EE  1803               	skipnc
  4043     00EF  3E01               	addlw	1
  4044     00F0  1903               	skipnz
  4045     00F1  28F3               	goto	u303_23
  4046     00F2  07CB               	addwf	___flmul@grs+3,f
  4047     00F3                     u303_23:
  4048     00F3                     i1l2363:
  4049     00F3  0853               	movf	___flmul@temp+1,w
  4050     00F4  00C2               	movwf	??___flmul
  4051     00F5  01C3               	clrf	??___flmul+1
  4052     00F6  01C4               	clrf	??___flmul+2
  4053     00F7  01C5               	clrf	??___flmul+3
  4054     00F8  0842               	movf	??___flmul,w
  4055     00F9  07CE               	addwf	___flmul@prod,f
  4056     00FA  0843               	movf	??___flmul+1,w
  4057     00FB  1103               	clrz
  4058     00FC  1803               	skipnc
  4059     00FD  3E01               	addlw	1
  4060     00FE  1903               	skipnz
  4061     00FF  2901               	goto	u304_21
  4062     0100  07CF               	addwf	___flmul@prod+1,f
  4063     0101                     u304_21:
  4064     0101  0844               	movf	??___flmul+2,w
  4065     0102  1103               	clrz
  4066     0103  1803               	skipnc
  4067     0104  3E01               	addlw	1
  4068     0105  1903               	skipnz
  4069     0106  2908               	goto	u304_22
  4070     0107  07D0               	addwf	___flmul@prod+2,f
  4071     0108                     u304_22:
  4072     0108  0845               	movf	??___flmul+3,w
  4073     0109  1103               	clrz
  4074     010A  1803               	skipnc
  4075     010B  3E01               	addlw	1
  4076     010C  1903               	skipnz
  4077     010D  290F               	goto	u304_23
  4078     010E  07D1               	addwf	___flmul@prod+3,f
  4079     010F                     u304_23:
  4080     010F  083C               	movf	___flmul@b+2,w
  4081     0110  00F0               	movwf	__Umul8_16@multiplicand
  4082     0111  083E               	movf	___flmul@a,w
  4083     0112  120A  118A  27C5  120A  118A  	fcall	__Umul8_16
  4084     0117  0871               	movf	?__Umul8_16+1,w
  4085     0118  1283               	bcf	3,5	;RP0=0, select bank0
  4086     0119  1303               	bcf	3,6	;RP1=0, select bank0
  4087     011A  00D3               	movwf	___flmul@temp+1
  4088     011B  0870               	movf	?__Umul8_16,w
  4089     011C  00D2               	movwf	___flmul@temp
  4090     011D                     i1l2365:
  4091     011D  0852               	movf	___flmul@temp,w
  4092     011E  00C2               	movwf	??___flmul
  4093     011F  01C3               	clrf	??___flmul+1
  4094     0120  01C4               	clrf	??___flmul+2
  4095     0121  01C5               	clrf	??___flmul+3
  4096     0122  0842               	movf	??___flmul,w
  4097     0123  07C8               	addwf	___flmul@grs,f
  4098     0124  0843               	movf	??___flmul+1,w
  4099     0125  1103               	clrz
  4100     0126  1803               	skipnc
  4101     0127  3E01               	addlw	1
  4102     0128  1903               	skipnz
  4103     0129  292B               	goto	u305_21
  4104     012A  07C9               	addwf	___flmul@grs+1,f
  4105     012B                     u305_21:
  4106     012B  0844               	movf	??___flmul+2,w
  4107     012C  1103               	clrz
  4108     012D  1803               	skipnc
  4109     012E  3E01               	addlw	1
  4110     012F  1903               	skipnz
  4111     0130  2932               	goto	u305_22
  4112     0131  07CA               	addwf	___flmul@grs+2,f
  4113     0132                     u305_22:
  4114     0132  0845               	movf	??___flmul+3,w
  4115     0133  1103               	clrz
  4116     0134  1803               	skipnc
  4117     0135  3E01               	addlw	1
  4118     0136  1903               	skipnz
  4119     0137  2939               	goto	u305_23
  4120     0138  07CB               	addwf	___flmul@grs+3,f
  4121     0139                     u305_23:
  4122     0139                     i1l2367:
  4123     0139  0853               	movf	___flmul@temp+1,w
  4124     013A  00C2               	movwf	??___flmul
  4125     013B  01C3               	clrf	??___flmul+1
  4126     013C  01C4               	clrf	??___flmul+2
  4127     013D  01C5               	clrf	??___flmul+3
  4128     013E  0842               	movf	??___flmul,w
  4129     013F  07CE               	addwf	___flmul@prod,f
  4130     0140  0843               	movf	??___flmul+1,w
  4131     0141  1103               	clrz
  4132     0142  1803               	skipnc
  4133     0143  3E01               	addlw	1
  4134     0144  1903               	skipnz
  4135     0145  2947               	goto	u306_21
  4136     0146  07CF               	addwf	___flmul@prod+1,f
  4137     0147                     u306_21:
  4138     0147  0844               	movf	??___flmul+2,w
  4139     0148  1103               	clrz
  4140     0149  1803               	skipnc
  4141     014A  3E01               	addlw	1
  4142     014B  1903               	skipnz
  4143     014C  294E               	goto	u306_22
  4144     014D  07D0               	addwf	___flmul@prod+2,f
  4145     014E                     u306_22:
  4146     014E  0845               	movf	??___flmul+3,w
  4147     014F  1103               	clrz
  4148     0150  1803               	skipnc
  4149     0151  3E01               	addlw	1
  4150     0152  1903               	skipnz
  4151     0153  2955               	goto	u306_23
  4152     0154  07D1               	addwf	___flmul@prod+3,f
  4153     0155                     u306_23:
  4154     0155                     i1l2369:
  4155     0155  3008               	movlw	8
  4156     0156  00C2               	movwf	??___flmul
  4157     0157                     u307_25:
  4158     0157  1003               	clrc
  4159     0158  0DC8               	rlf	___flmul@grs,f
  4160     0159  0DC9               	rlf	___flmul@grs+1,f
  4161     015A  0DCA               	rlf	___flmul@grs+2,f
  4162     015B  0DCB               	rlf	___flmul@grs+3,f
  4163     015C  0BC2               	decfsz	??___flmul,f
  4164     015D  2957               	goto	u307_25
  4165     015E                     i1l2371:
  4166     015E  083B               	movf	___flmul@b+1,w
  4167     015F  00F0               	movwf	__Umul8_16@multiplicand
  4168     0160  083E               	movf	___flmul@a,w
  4169     0161  120A  118A  27C5  120A  118A  	fcall	__Umul8_16
  4170     0166  0871               	movf	?__Umul8_16+1,w
  4171     0167  1283               	bcf	3,5	;RP0=0, select bank0
  4172     0168  1303               	bcf	3,6	;RP1=0, select bank0
  4173     0169  00D3               	movwf	___flmul@temp+1
  4174     016A  0870               	movf	?__Umul8_16,w
  4175     016B  00D2               	movwf	___flmul@temp
  4176     016C                     i1l2373:
  4177     016C  0852               	movf	___flmul@temp,w
  4178     016D  00C2               	movwf	??___flmul
  4179     016E  0853               	movf	___flmul@temp+1,w
  4180     016F  00C3               	movwf	??___flmul+1
  4181     0170  01C4               	clrf	??___flmul+2
  4182     0171  01C5               	clrf	??___flmul+3
  4183     0172  0842               	movf	??___flmul,w
  4184     0173  07C8               	addwf	___flmul@grs,f
  4185     0174  0843               	movf	??___flmul+1,w
  4186     0175  1103               	clrz
  4187     0176  1803               	skipnc
  4188     0177  3E01               	addlw	1
  4189     0178  1903               	skipnz
  4190     0179  297B               	goto	u308_21
  4191     017A  07C9               	addwf	___flmul@grs+1,f
  4192     017B                     u308_21:
  4193     017B  0844               	movf	??___flmul+2,w
  4194     017C  1103               	clrz
  4195     017D  1803               	skipnc
  4196     017E  3E01               	addlw	1
  4197     017F  1903               	skipnz
  4198     0180  2982               	goto	u308_22
  4199     0181  07CA               	addwf	___flmul@grs+2,f
  4200     0182                     u308_22:
  4201     0182  0845               	movf	??___flmul+3,w
  4202     0183  1103               	clrz
  4203     0184  1803               	skipnc
  4204     0185  3E01               	addlw	1
  4205     0186  1903               	skipnz
  4206     0187  2989               	goto	u308_23
  4207     0188  07CB               	addwf	___flmul@grs+3,f
  4208     0189                     u308_23:
  4209     0189                     i1l2375:
  4210     0189  083A               	movf	___flmul@b,w
  4211     018A  00F0               	movwf	__Umul8_16@multiplicand
  4212     018B  083F               	movf	___flmul@a+1,w
  4213     018C  120A  118A  27C5  120A  118A  	fcall	__Umul8_16
  4214     0191  0871               	movf	?__Umul8_16+1,w
  4215     0192  1283               	bcf	3,5	;RP0=0, select bank0
  4216     0193  1303               	bcf	3,6	;RP1=0, select bank0
  4217     0194  00D3               	movwf	___flmul@temp+1
  4218     0195  0870               	movf	?__Umul8_16,w
  4219     0196  00D2               	movwf	___flmul@temp
  4220     0197                     i1l2377:
  4221     0197  0852               	movf	___flmul@temp,w
  4222     0198  00C2               	movwf	??___flmul
  4223     0199  0853               	movf	___flmul@temp+1,w
  4224     019A  00C3               	movwf	??___flmul+1
  4225     019B  01C4               	clrf	??___flmul+2
  4226     019C  01C5               	clrf	??___flmul+3
  4227     019D  0842               	movf	??___flmul,w
  4228     019E  07C8               	addwf	___flmul@grs,f
  4229     019F  0843               	movf	??___flmul+1,w
  4230     01A0  1103               	clrz
  4231     01A1  1803               	skipnc
  4232     01A2  3E01               	addlw	1
  4233     01A3  1903               	skipnz
  4234     01A4  29A6               	goto	u309_21
  4235     01A5  07C9               	addwf	___flmul@grs+1,f
  4236     01A6                     u309_21:
  4237     01A6  0844               	movf	??___flmul+2,w
  4238     01A7  1103               	clrz
  4239     01A8  1803               	skipnc
  4240     01A9  3E01               	addlw	1
  4241     01AA  1903               	skipnz
  4242     01AB  29AD               	goto	u309_22
  4243     01AC  07CA               	addwf	___flmul@grs+2,f
  4244     01AD                     u309_22:
  4245     01AD  0845               	movf	??___flmul+3,w
  4246     01AE  1103               	clrz
  4247     01AF  1803               	skipnc
  4248     01B0  3E01               	addlw	1
  4249     01B1  1903               	skipnz
  4250     01B2  29B4               	goto	u309_23
  4251     01B3  07CB               	addwf	___flmul@grs+3,f
  4252     01B4                     u309_23:
  4253     01B4                     i1l2379:
  4254     01B4  3008               	movlw	8
  4255     01B5  00C2               	movwf	??___flmul
  4256     01B6                     u310_25:
  4257     01B6  1003               	clrc
  4258     01B7  0DC8               	rlf	___flmul@grs,f
  4259     01B8  0DC9               	rlf	___flmul@grs+1,f
  4260     01B9  0DCA               	rlf	___flmul@grs+2,f
  4261     01BA  0DCB               	rlf	___flmul@grs+3,f
  4262     01BB  0BC2               	decfsz	??___flmul,f
  4263     01BC  29B6               	goto	u310_25
  4264     01BD  083A               	movf	___flmul@b,w
  4265     01BE  00F0               	movwf	__Umul8_16@multiplicand
  4266     01BF  083E               	movf	___flmul@a,w
  4267     01C0  120A  118A  27C5  120A  118A  	fcall	__Umul8_16
  4268     01C5  0871               	movf	?__Umul8_16+1,w
  4269     01C6  1283               	bcf	3,5	;RP0=0, select bank0
  4270     01C7  1303               	bcf	3,6	;RP1=0, select bank0
  4271     01C8  00D3               	movwf	___flmul@temp+1
  4272     01C9  0870               	movf	?__Umul8_16,w
  4273     01CA  00D2               	movwf	___flmul@temp
  4274     01CB                     i1l2381:
  4275     01CB  0852               	movf	___flmul@temp,w
  4276     01CC  00C2               	movwf	??___flmul
  4277     01CD  0853               	movf	___flmul@temp+1,w
  4278     01CE  00C3               	movwf	??___flmul+1
  4279     01CF  01C4               	clrf	??___flmul+2
  4280     01D0  01C5               	clrf	??___flmul+3
  4281     01D1  0842               	movf	??___flmul,w
  4282     01D2  07C8               	addwf	___flmul@grs,f
  4283     01D3  0843               	movf	??___flmul+1,w
  4284     01D4  1103               	clrz
  4285     01D5  1803               	skipnc
  4286     01D6  3E01               	addlw	1
  4287     01D7  1903               	skipnz
  4288     01D8  29DA               	goto	u311_21
  4289     01D9  07C9               	addwf	___flmul@grs+1,f
  4290     01DA                     u311_21:
  4291     01DA  0844               	movf	??___flmul+2,w
  4292     01DB  1103               	clrz
  4293     01DC  1803               	skipnc
  4294     01DD  3E01               	addlw	1
  4295     01DE  1903               	skipnz
  4296     01DF  29E1               	goto	u311_22
  4297     01E0  07CA               	addwf	___flmul@grs+2,f
  4298     01E1                     u311_22:
  4299     01E1  0845               	movf	??___flmul+3,w
  4300     01E2  1103               	clrz
  4301     01E3  1803               	skipnc
  4302     01E4  3E01               	addlw	1
  4303     01E5  1903               	skipnz
  4304     01E6  29E8               	goto	u311_23
  4305     01E7  07CB               	addwf	___flmul@grs+3,f
  4306     01E8                     u311_23:
  4307     01E8                     i1l2383:
  4308     01E8  083B               	movf	___flmul@b+1,w
  4309     01E9  00F0               	movwf	__Umul8_16@multiplicand
  4310     01EA  0840               	movf	___flmul@a+2,w
  4311     01EB  120A  118A  27C5  120A  118A  	fcall	__Umul8_16
  4312     01F0  0871               	movf	?__Umul8_16+1,w
  4313     01F1  1283               	bcf	3,5	;RP0=0, select bank0
  4314     01F2  1303               	bcf	3,6	;RP1=0, select bank0
  4315     01F3  00D3               	movwf	___flmul@temp+1
  4316     01F4  0870               	movf	?__Umul8_16,w
  4317     01F5  00D2               	movwf	___flmul@temp
  4318     01F6  0852               	movf	___flmul@temp,w
  4319     01F7  00C2               	movwf	??___flmul
  4320     01F8  0853               	movf	___flmul@temp+1,w
  4321     01F9  00C3               	movwf	??___flmul+1
  4322     01FA  01C4               	clrf	??___flmul+2
  4323     01FB  01C5               	clrf	??___flmul+3
  4324     01FC  0842               	movf	??___flmul,w
  4325     01FD  07CE               	addwf	___flmul@prod,f
  4326     01FE  0843               	movf	??___flmul+1,w
  4327     01FF  1103               	clrz
  4328     0200  1803               	skipnc
  4329     0201  3E01               	addlw	1
  4330     0202  1903               	skipnz
  4331     0203  2A05               	goto	u312_21
  4332     0204  07CF               	addwf	___flmul@prod+1,f
  4333     0205                     u312_21:
  4334     0205  0844               	movf	??___flmul+2,w
  4335     0206  1103               	clrz
  4336     0207  1803               	skipnc
  4337     0208  3E01               	addlw	1
  4338     0209  1903               	skipnz
  4339     020A  2A0C               	goto	u312_22
  4340     020B  07D0               	addwf	___flmul@prod+2,f
  4341     020C                     u312_22:
  4342     020C  0845               	movf	??___flmul+3,w
  4343     020D  1103               	clrz
  4344     020E  1803               	skipnc
  4345     020F  3E01               	addlw	1
  4346     0210  1903               	skipnz
  4347     0211  2A13               	goto	u312_23
  4348     0212  07D1               	addwf	___flmul@prod+3,f
  4349     0213                     u312_23:
  4350     0213                     i1l2385:
  4351     0213  083C               	movf	___flmul@b+2,w
  4352     0214  00F0               	movwf	__Umul8_16@multiplicand
  4353     0215  083F               	movf	___flmul@a+1,w
  4354     0216  120A  118A  27C5  120A  118A  	fcall	__Umul8_16
  4355     021B  0871               	movf	?__Umul8_16+1,w
  4356     021C  1283               	bcf	3,5	;RP0=0, select bank0
  4357     021D  1303               	bcf	3,6	;RP1=0, select bank0
  4358     021E  00D3               	movwf	___flmul@temp+1
  4359     021F  0870               	movf	?__Umul8_16,w
  4360     0220  00D2               	movwf	___flmul@temp
  4361     0221                     i1l2387:
  4362     0221  0852               	movf	___flmul@temp,w
  4363     0222  00C2               	movwf	??___flmul
  4364     0223  0853               	movf	___flmul@temp+1,w
  4365     0224  00C3               	movwf	??___flmul+1
  4366     0225  01C4               	clrf	??___flmul+2
  4367     0226  01C5               	clrf	??___flmul+3
  4368     0227  0842               	movf	??___flmul,w
  4369     0228  07CE               	addwf	___flmul@prod,f
  4370     0229  0843               	movf	??___flmul+1,w
  4371     022A  1103               	clrz
  4372     022B  1803               	skipnc
  4373     022C  3E01               	addlw	1
  4374     022D  1903               	skipnz
  4375     022E  2A30               	goto	u313_21
  4376     022F  07CF               	addwf	___flmul@prod+1,f
  4377     0230                     u313_21:
  4378     0230  0844               	movf	??___flmul+2,w
  4379     0231  1103               	clrz
  4380     0232  1803               	skipnc
  4381     0233  3E01               	addlw	1
  4382     0234  1903               	skipnz
  4383     0235  2A37               	goto	u313_22
  4384     0236  07D0               	addwf	___flmul@prod+2,f
  4385     0237                     u313_22:
  4386     0237  0845               	movf	??___flmul+3,w
  4387     0238  1103               	clrz
  4388     0239  1803               	skipnc
  4389     023A  3E01               	addlw	1
  4390     023B  1903               	skipnz
  4391     023C  2A3E               	goto	u313_23
  4392     023D  07D1               	addwf	___flmul@prod+3,f
  4393     023E                     u313_23:
  4394     023E  083C               	movf	___flmul@b+2,w
  4395     023F  00F0               	movwf	__Umul8_16@multiplicand
  4396     0240  0840               	movf	___flmul@a+2,w
  4397     0241  120A  118A  27C5  120A  118A  	fcall	__Umul8_16
  4398     0246  0871               	movf	?__Umul8_16+1,w
  4399     0247  1283               	bcf	3,5	;RP0=0, select bank0
  4400     0248  1303               	bcf	3,6	;RP1=0, select bank0
  4401     0249  00D3               	movwf	___flmul@temp+1
  4402     024A  0870               	movf	?__Umul8_16,w
  4403     024B  00D2               	movwf	___flmul@temp
  4404     024C                     i1l2389:
  4405     024C  0852               	movf	___flmul@temp,w
  4406     024D  00C2               	movwf	??___flmul
  4407     024E  0853               	movf	___flmul@temp+1,w
  4408     024F  00C3               	movwf	??___flmul+1
  4409     0250  01C4               	clrf	??___flmul+2
  4410     0251  01C5               	clrf	??___flmul+3
  4411     0252  3008               	movlw	8
  4412     0253                     u314_25:
  4413     0253  1003               	clrc
  4414     0254  0DC2               	rlf	??___flmul,f
  4415     0255  0DC3               	rlf	??___flmul+1,f
  4416     0256  0DC4               	rlf	??___flmul+2,f
  4417     0257  0DC5               	rlf	??___flmul+3,f
  4418     0258                     u314_20:
  4419     0258  3EFF               	addlw	-1
  4420     0259  1D03               	skipz
  4421     025A  2A53               	goto	u314_25
  4422     025B  0842               	movf	??___flmul,w
  4423     025C  07CE               	addwf	___flmul@prod,f
  4424     025D  0843               	movf	??___flmul+1,w
  4425     025E  1103               	clrz
  4426     025F  1803               	skipnc
  4427     0260  3E01               	addlw	1
  4428     0261  1903               	skipnz
  4429     0262  2A64               	goto	u315_21
  4430     0263  07CF               	addwf	___flmul@prod+1,f
  4431     0264                     u315_21:
  4432     0264  0844               	movf	??___flmul+2,w
  4433     0265  1103               	clrz
  4434     0266  1803               	skipnc
  4435     0267  3E01               	addlw	1
  4436     0268  1903               	skipnz
  4437     0269  2A6B               	goto	u315_22
  4438     026A  07D0               	addwf	___flmul@prod+2,f
  4439     026B                     u315_22:
  4440     026B  0845               	movf	??___flmul+3,w
  4441     026C  1103               	clrz
  4442     026D  1803               	skipnc
  4443     026E  3E01               	addlw	1
  4444     026F  1903               	skipnz
  4445     0270  2A72               	goto	u315_23
  4446     0271  07D1               	addwf	___flmul@prod+3,f
  4447     0272                     u315_23:
  4448     0272                     i1l2391:
  4449     0272  0848               	movf	___flmul@grs,w
  4450     0273  00C2               	movwf	??___flmul
  4451     0274  0849               	movf	___flmul@grs+1,w
  4452     0275  00C3               	movwf	??___flmul+1
  4453     0276  084A               	movf	___flmul@grs+2,w
  4454     0277  00C4               	movwf	??___flmul+2
  4455     0278  084B               	movf	___flmul@grs+3,w
  4456     0279  00C5               	movwf	??___flmul+3
  4457     027A  3018               	movlw	24
  4458     027B                     u316_25:
  4459     027B  1003               	clrc
  4460     027C  0CC5               	rrf	??___flmul+3,f
  4461     027D  0CC4               	rrf	??___flmul+2,f
  4462     027E  0CC3               	rrf	??___flmul+1,f
  4463     027F  0CC2               	rrf	??___flmul,f
  4464     0280                     u316_20:
  4465     0280  3EFF               	addlw	-1
  4466     0281  1D03               	skipz
  4467     0282  2A7B               	goto	u316_25
  4468     0283  0842               	movf	??___flmul,w
  4469     0284  07CE               	addwf	___flmul@prod,f
  4470     0285  0843               	movf	??___flmul+1,w
  4471     0286  1103               	clrz
  4472     0287  1803               	skipnc
  4473     0288  3E01               	addlw	1
  4474     0289  1903               	skipnz
  4475     028A  2A8C               	goto	u317_21
  4476     028B  07CF               	addwf	___flmul@prod+1,f
  4477     028C                     u317_21:
  4478     028C  0844               	movf	??___flmul+2,w
  4479     028D  1103               	clrz
  4480     028E  1803               	skipnc
  4481     028F  3E01               	addlw	1
  4482     0290  1903               	skipnz
  4483     0291  2A93               	goto	u317_22
  4484     0292  07D0               	addwf	___flmul@prod+2,f
  4485     0293                     u317_22:
  4486     0293  0845               	movf	??___flmul+3,w
  4487     0294  1103               	clrz
  4488     0295  1803               	skipnc
  4489     0296  3E01               	addlw	1
  4490     0297  1903               	skipnz
  4491     0298  2A9A               	goto	u317_23
  4492     0299  07D1               	addwf	___flmul@prod+3,f
  4493     029A                     u317_23:
  4494     029A                     i1l2393:
  4495     029A  3008               	movlw	8
  4496     029B  00C2               	movwf	??___flmul
  4497     029C                     u318_25:
  4498     029C  1003               	clrc
  4499     029D  0DC8               	rlf	___flmul@grs,f
  4500     029E  0DC9               	rlf	___flmul@grs+1,f
  4501     029F  0DCA               	rlf	___flmul@grs+2,f
  4502     02A0  0DCB               	rlf	___flmul@grs+3,f
  4503     02A1  0BC2               	decfsz	??___flmul,f
  4504     02A2  2A9C               	goto	u318_25
  4505     02A3                     i1l2395:
  4506     02A3  084D               	movf	___flmul@bexp,w
  4507     02A4  074C               	addwf	___flmul@aexp,w
  4508     02A5  00C2               	movwf	??___flmul
  4509     02A6  01C3               	clrf	??___flmul+1
  4510     02A7  0DC3               	rlf	??___flmul+1,f
  4511     02A8  0842               	movf	??___flmul,w
  4512     02A9  3E82               	addlw	130
  4513     02AA  00D2               	movwf	___flmul@temp
  4514     02AB  0843               	movf	??___flmul+1,w
  4515     02AC  1803               	skipnc
  4516     02AD  3E01               	addlw	1
  4517     02AE  3EFF               	addlw	255
  4518     02AF  00D3               	movwf	___flmul@temp+1
  4519     02B0  2ACE               	goto	i1l2407
  4520     02B1                     i1l2397:
  4521     02B1  3001               	movlw	1
  4522     02B2  00C2               	movwf	??___flmul
  4523     02B3                     u319_25:
  4524     02B3  1003               	clrc
  4525     02B4  0DCE               	rlf	___flmul@prod,f
  4526     02B5  0DCF               	rlf	___flmul@prod+1,f
  4527     02B6  0DD0               	rlf	___flmul@prod+2,f
  4528     02B7  0DD1               	rlf	___flmul@prod+3,f
  4529     02B8  0BC2               	decfsz	??___flmul,f
  4530     02B9  2AB3               	goto	u319_25
  4531     02BA                     i1l2399:
  4532     02BA  1FCB               	btfss	___flmul@grs+3,7
  4533     02BB  2ABD               	goto	u320_21
  4534     02BC  2ABE               	goto	u320_20
  4535     02BD                     u320_21:
  4536     02BD  2ABF               	goto	i1l2403
  4537     02BE                     u320_20:
  4538     02BE                     i1l2401:
  4539     02BE  144E               	bsf	___flmul@prod,0
  4540     02BF                     i1l2403:
  4541     02BF  3001               	movlw	1
  4542     02C0  00C2               	movwf	??___flmul
  4543     02C1                     u321_25:
  4544     02C1  1003               	clrc
  4545     02C2  0DC8               	rlf	___flmul@grs,f
  4546     02C3  0DC9               	rlf	___flmul@grs+1,f
  4547     02C4  0DCA               	rlf	___flmul@grs+2,f
  4548     02C5  0DCB               	rlf	___flmul@grs+3,f
  4549     02C6  0BC2               	decfsz	??___flmul,f
  4550     02C7  2AC1               	goto	u321_25
  4551     02C8                     i1l2405:
  4552     02C8  30FF               	movlw	255
  4553     02C9  07D2               	addwf	___flmul@temp,f
  4554     02CA  1803               	skipnc
  4555     02CB  0AD3               	incf	___flmul@temp+1,f
  4556     02CC  30FF               	movlw	255
  4557     02CD  07D3               	addwf	___flmul@temp+1,f
  4558     02CE                     i1l2407:
  4559     02CE  1FD0               	btfss	___flmul@prod+2,7
  4560     02CF  2AD1               	goto	u322_21
  4561     02D0  2AD2               	goto	u322_20
  4562     02D1                     u322_21:
  4563     02D1  2AB1               	goto	i1l2397
  4564     02D2                     u322_20:
  4565     02D2                     i1l2409:
  4566     02D2  01CC               	clrf	___flmul@aexp
  4567     02D3                     i1l2411:
  4568     02D3  1FCB               	btfss	___flmul@grs+3,7
  4569     02D4  2AD6               	goto	u323_21
  4570     02D5  2AD7               	goto	u323_20
  4571     02D6                     u323_21:
  4572     02D6  2AF3               	goto	i1l2419
  4573     02D7                     u323_20:
  4574     02D7                     i1l2413:
  4575     02D7  30FF               	movlw	255
  4576     02D8  0548               	andwf	___flmul@grs,w
  4577     02D9  00C2               	movwf	??___flmul
  4578     02DA  30FF               	movlw	255
  4579     02DB  0549               	andwf	___flmul@grs+1,w
  4580     02DC  00C3               	movwf	??___flmul+1
  4581     02DD  30FF               	movlw	255
  4582     02DE  054A               	andwf	___flmul@grs+2,w
  4583     02DF  00C4               	movwf	??___flmul+2
  4584     02E0  307F               	movlw	127
  4585     02E1  054B               	andwf	___flmul@grs+3,w
  4586     02E2  00C5               	movwf	??___flmul+3
  4587     02E3  0845               	movf	??___flmul+3,w
  4588     02E4  0444               	iorwf	??___flmul+2,w
  4589     02E5  0443               	iorwf	??___flmul+1,w
  4590     02E6  0442               	iorwf	??___flmul,w
  4591     02E7  1903               	skipnz
  4592     02E8  2AEA               	goto	u324_21
  4593     02E9  2AEB               	goto	u324_20
  4594     02EA                     u324_21:
  4595     02EA  2AEE               	goto	i1l794
  4596     02EB                     u324_20:
  4597     02EB                     i1l2415:
  4598     02EB  01CC               	clrf	___flmul@aexp
  4599     02EC  0ACC               	incf	___flmul@aexp,f
  4600     02ED  2AF3               	goto	i1l2419
  4601     02EE                     i1l794:
  4602     02EE  1C4E               	btfss	___flmul@prod,0
  4603     02EF  2AF1               	goto	u325_21
  4604     02F0  2AF2               	goto	u325_20
  4605     02F1                     u325_21:
  4606     02F1  2AF3               	goto	i1l2419
  4607     02F2                     u325_20:
  4608     02F2  2AEB               	goto	i1l2415
  4609     02F3                     i1l2419:
  4610     02F3  084C               	movf	___flmul@aexp,w
  4611     02F4  1903               	btfsc	3,2
  4612     02F5  2AF7               	goto	u326_21
  4613     02F6  2AF8               	goto	u326_20
  4614     02F7                     u326_21:
  4615     02F7  2B29               	goto	i1l2429
  4616     02F8                     u326_20:
  4617     02F8                     i1l2421:
  4618     02F8  3001               	movlw	1
  4619     02F9  07CE               	addwf	___flmul@prod,f
  4620     02FA  3000               	movlw	0
  4621     02FB  1803               	skipnc
  4622     02FC  3001               	movlw	1
  4623     02FD  07CF               	addwf	___flmul@prod+1,f
  4624     02FE  3000               	movlw	0
  4625     02FF  1803               	skipnc
  4626     0300  3001               	movlw	1
  4627     0301  07D0               	addwf	___flmul@prod+2,f
  4628     0302  3000               	movlw	0
  4629     0303  1803               	skipnc
  4630     0304  3001               	movlw	1
  4631     0305  07D1               	addwf	___flmul@prod+3,f
  4632     0306                     i1l2423:
  4633     0306  1C51               	btfss	___flmul@prod+3,0
  4634     0307  2B09               	goto	u327_21
  4635     0308  2B0A               	goto	u327_20
  4636     0309                     u327_21:
  4637     0309  2B29               	goto	i1l2429
  4638     030A                     u327_20:
  4639     030A                     i1l2425:
  4640     030A  084E               	movf	___flmul@prod,w
  4641     030B  00C2               	movwf	??___flmul
  4642     030C  084F               	movf	___flmul@prod+1,w
  4643     030D  00C3               	movwf	??___flmul+1
  4644     030E  0850               	movf	___flmul@prod+2,w
  4645     030F  00C4               	movwf	??___flmul+2
  4646     0310  0851               	movf	___flmul@prod+3,w
  4647     0311  00C5               	movwf	??___flmul+3
  4648     0312  3001               	movlw	1
  4649     0313  00C6               	movwf	??___flmul+4
  4650     0314                     u328_25:
  4651     0314  0D45               	rlf	??___flmul+3,w
  4652     0315  0CC5               	rrf	??___flmul+3,f
  4653     0316  0CC4               	rrf	??___flmul+2,f
  4654     0317  0CC3               	rrf	??___flmul+1,f
  4655     0318  0CC2               	rrf	??___flmul,f
  4656     0319                     u328_20:
  4657     0319  0BC6               	decfsz	??___flmul+4,f
  4658     031A  2B14               	goto	u328_25
  4659     031B  0845               	movf	??___flmul+3,w
  4660     031C  00D1               	movwf	___flmul@prod+3
  4661     031D  0844               	movf	??___flmul+2,w
  4662     031E  00D0               	movwf	___flmul@prod+2
  4663     031F  0843               	movf	??___flmul+1,w
  4664     0320  00CF               	movwf	___flmul@prod+1
  4665     0321  0842               	movf	??___flmul,w
  4666     0322  00CE               	movwf	___flmul@prod
  4667     0323                     i1l2427:
  4668     0323  3001               	movlw	1
  4669     0324  07D2               	addwf	___flmul@temp,f
  4670     0325  1803               	skipnc
  4671     0326  0AD3               	incf	___flmul@temp+1,f
  4672     0327  3000               	movlw	0
  4673     0328  07D3               	addwf	___flmul@temp+1,f
  4674     0329                     i1l2429:
  4675     0329  0853               	movf	___flmul@temp+1,w
  4676     032A  3A80               	xorlw	128
  4677     032B  00FF               	movwf	btemp+1
  4678     032C  3080               	movlw	128
  4679     032D  027F               	subwf	btemp+1,w
  4680     032E  1D03               	skipz
  4681     032F  2B32               	goto	u329_25
  4682     0330  30FF               	movlw	255
  4683     0331  0252               	subwf	___flmul@temp,w
  4684     0332                     u329_25:
  4685     0332  1C03               	skipc
  4686     0333  2B35               	goto	u329_21
  4687     0334  2B36               	goto	u329_20
  4688     0335                     u329_21:
  4689     0335  2B41               	goto	i1l2433
  4690     0336                     u329_20:
  4691     0336                     i1l2431:
  4692     0336  307F               	movlw	127
  4693     0337  1283               	bcf	3,5	;RP0=0, select bank0
  4694     0338  1303               	bcf	3,6	;RP1=0, select bank0
  4695     0339  00D1               	movwf	___flmul@prod+3
  4696     033A  3080               	movlw	128
  4697     033B  00D0               	movwf	___flmul@prod+2
  4698     033C  3000               	movlw	0
  4699     033D  00CF               	movwf	___flmul@prod+1
  4700     033E  3000               	movlw	0
  4701     033F  00CE               	movwf	___flmul@prod
  4702     0340  2B72               	goto	i1l800
  4703     0341                     i1l2433:
  4704     0341  1283               	bcf	3,5	;RP0=0, select bank0
  4705     0342  1303               	bcf	3,6	;RP1=0, select bank0
  4706     0343  0853               	movf	___flmul@temp+1,w
  4707     0344  3A80               	xorlw	128
  4708     0345  00FF               	movwf	btemp+1
  4709     0346  3080               	movlw	128
  4710     0347  027F               	subwf	btemp+1,w
  4711     0348  1D03               	skipz
  4712     0349  2B4C               	goto	u330_25
  4713     034A  3001               	movlw	1
  4714     034B  0252               	subwf	___flmul@temp,w
  4715     034C                     u330_25:
  4716     034C  1803               	skipnc
  4717     034D  2B4F               	goto	u330_21
  4718     034E  2B50               	goto	u330_20
  4719     034F                     u330_21:
  4720     034F  2B5C               	goto	i1l2439
  4721     0350                     u330_20:
  4722     0350                     i1l2435:
  4723     0350  3000               	movlw	0
  4724     0351  1283               	bcf	3,5	;RP0=0, select bank0
  4725     0352  1303               	bcf	3,6	;RP1=0, select bank0
  4726     0353  00D1               	movwf	___flmul@prod+3
  4727     0354  3000               	movlw	0
  4728     0355  00D0               	movwf	___flmul@prod+2
  4729     0356  3000               	movlw	0
  4730     0357  00CF               	movwf	___flmul@prod+1
  4731     0358  3000               	movlw	0
  4732     0359  00CE               	movwf	___flmul@prod
  4733     035A                     i1l2437:
  4734     035A  01C7               	clrf	___flmul@sign
  4735     035B  2B72               	goto	i1l800
  4736     035C                     i1l2439:
  4737     035C  1283               	bcf	3,5	;RP0=0, select bank0
  4738     035D  1303               	bcf	3,6	;RP1=0, select bank0
  4739     035E  0852               	movf	___flmul@temp,w
  4740     035F  00CD               	movwf	___flmul@bexp
  4741     0360  30FF               	movlw	255
  4742     0361  05CE               	andwf	___flmul@prod,f
  4743     0362  30FF               	movlw	255
  4744     0363  05CF               	andwf	___flmul@prod+1,f
  4745     0364  307F               	movlw	127
  4746     0365  05D0               	andwf	___flmul@prod+2,f
  4747     0366  3000               	movlw	0
  4748     0367  05D1               	andwf	___flmul@prod+3,f
  4749     0368                     i1l2441:
  4750     0368  1C4D               	btfss	___flmul@bexp,0
  4751     0369  2B6B               	goto	u331_21
  4752     036A  2B6C               	goto	u331_20
  4753     036B                     u331_21:
  4754     036B  2B6D               	goto	i1l2445
  4755     036C                     u331_20:
  4756     036C                     i1l2443:
  4757     036C  17D0               	bsf	___flmul@prod+2,7
  4758     036D                     i1l2445:
  4759     036D  084D               	movf	___flmul@bexp,w
  4760     036E  00C2               	movwf	??___flmul
  4761     036F  1003               	clrc
  4762     0370  0C42               	rrf	??___flmul,w
  4763     0371  00D1               	movwf	___flmul@prod+3
  4764     0372                     i1l800:
  4765     0372  0847               	movf	___flmul@sign,w
  4766     0373  00C2               	movwf	??___flmul
  4767     0374  0842               	movf	??___flmul,w
  4768     0375  04D1               	iorwf	___flmul@prod+3,f
  4769     0376                     i1l2447:
  4770     0376  0851               	movf	___flmul@prod+3,w
  4771     0377  00BD               	movwf	?___flmul+3
  4772     0378  0850               	movf	___flmul@prod+2,w
  4773     0379  00BC               	movwf	?___flmul+2
  4774     037A  084F               	movf	___flmul@prod+1,w
  4775     037B  00BB               	movwf	?___flmul+1
  4776     037C  084E               	movf	___flmul@prod,w
  4777     037D  00BA               	movwf	?___flmul
  4778     037E                     i1l788:
  4779     037E  0008               	return
  4780     037F                     __end_of___flmul:
  4781                           
  4782                           	psect	text9
  4783     07C5                     __ptext9:	
  4784 ;; *************** function __Umul8_16 *****************
  4785 ;; Defined at:
  4786 ;;		line 4 in file "C:\Program Files\Microchip\xc8\v2.40\pic\sources\c90\common\Umul8_16.c"
  4787 ;; Parameters:    Size  Location     Type
  4788 ;;  multiplier      1    wreg     unsigned char 
  4789 ;;  multiplicand    1    0[COMMON] unsigned char 
  4790 ;; Auto vars:     Size  Location     Type
  4791 ;;  multiplier      1    8[COMMON] unsigned char 
  4792 ;;  word_mpld       2    6[COMMON] unsigned int 
  4793 ;;  product         2    4[COMMON] unsigned int 
  4794 ;; Return value:  Size  Location     Type
  4795 ;;                  2    0[COMMON] unsigned int 
  4796 ;; Registers used:
  4797 ;;		wreg, status,2, status,0
  4798 ;; Tracked objects:
  4799 ;;		On entry : 0/0
  4800 ;;		On exit  : 0/0
  4801 ;;		Unchanged: 0/0
  4802 ;; Data sizes:     COMMON   BANK0   BANK1   BANK3   BANK2
  4803 ;;      Params:         2       0       0       0       0
  4804 ;;      Locals:         5       0       0       0       0
  4805 ;;      Temps:          2       0       0       0       0
  4806 ;;      Totals:         9       0       0       0       0
  4807 ;;Total ram usage:        9 bytes
  4808 ;; Hardware stack levels used: 1
  4809 ;; This function calls:
  4810 ;;		Nothing
  4811 ;; This function is called by:
  4812 ;;		___flmul
  4813 ;; This function uses a non-reentrant model
  4814 ;;
  4815                           
  4816     07C5                     __Umul8_16:	
  4817                           ;psect for function __Umul8_16
  4818                           
  4819                           
  4820                           ;incstack = 0
  4821                           ; Regs used in __Umul8_16: [wreg+status,2+status,0]
  4822                           ;__Umul8_16@multiplier stored from wreg
  4823     07C5  00F8               	movwf	__Umul8_16@multiplier
  4824     07C6                     i1l1925:
  4825     07C6  01F4               	clrf	__Umul8_16@product
  4826     07C7  01F5               	clrf	__Umul8_16@product+1
  4827     07C8                     i1l1927:
  4828     07C8  0870               	movf	__Umul8_16@multiplicand,w
  4829     07C9  00F2               	movwf	??__Umul8_16
  4830     07CA  01F3               	clrf	??__Umul8_16+1
  4831     07CB  0872               	movf	??__Umul8_16,w
  4832     07CC  00F6               	movwf	__Umul8_16@word_mpld
  4833     07CD  0873               	movf	??__Umul8_16+1,w
  4834     07CE  00F7               	movwf	__Umul8_16@word_mpld+1
  4835     07CF                     i1l1929:
  4836     07CF  1C78               	btfss	__Umul8_16@multiplier,0
  4837     07D0  2FD2               	goto	u207_21
  4838     07D1  2FD3               	goto	u207_20
  4839     07D2                     u207_21:
  4840     07D2  2FD9               	goto	i1l807
  4841     07D3                     u207_20:
  4842     07D3                     i1l1931:
  4843     07D3  0876               	movf	__Umul8_16@word_mpld,w
  4844     07D4  07F4               	addwf	__Umul8_16@product,f
  4845     07D5  1803               	skipnc
  4846     07D6  0AF5               	incf	__Umul8_16@product+1,f
  4847     07D7  0877               	movf	__Umul8_16@word_mpld+1,w
  4848     07D8  07F5               	addwf	__Umul8_16@product+1,f
  4849     07D9                     i1l807:
  4850     07D9  3001               	movlw	1
  4851     07DA                     u208_25:
  4852     07DA  1003               	clrc
  4853     07DB  0DF6               	rlf	__Umul8_16@word_mpld,f
  4854     07DC  0DF7               	rlf	__Umul8_16@word_mpld+1,f
  4855     07DD  3EFF               	addlw	-1
  4856     07DE  1D03               	skipz
  4857     07DF  2FDA               	goto	u208_25
  4858     07E0  1003               	clrc
  4859     07E1  0CF8               	rrf	__Umul8_16@multiplier,f
  4860     07E2                     i1l1933:
  4861     07E2  0878               	movf	__Umul8_16@multiplier,w
  4862     07E3  1D03               	btfss	3,2
  4863     07E4  2FE6               	goto	u209_21
  4864     07E5  2FE7               	goto	u209_20
  4865     07E6                     u209_21:
  4866     07E6  2FCF               	goto	i1l1929
  4867     07E7                     u209_20:
  4868     07E7                     i1l1935:
  4869     07E7  0875               	movf	__Umul8_16@product+1,w
  4870     07E8  00F1               	movwf	?__Umul8_16+1
  4871     07E9  0874               	movf	__Umul8_16@product,w
  4872     07EA  00F0               	movwf	?__Umul8_16
  4873     07EB                     i1l809:
  4874     07EB  0008               	return
  4875     07EC                     __end_of__Umul8_16:
  4876                           
  4877                           	psect	text10
  4878     0BD5                     __ptext10:	
  4879 ;; *************** function ___fldiv *****************
  4880 ;; Defined at:
  4881 ;;		line 8 in file "C:\Program Files\Microchip\xc8\v2.40\pic\sources\c90\common\sprcdiv.c"
  4882 ;; Parameters:    Size  Location     Type
  4883 ;;  a               4    0[BANK0 ] unsigned int 
  4884 ;;  b               4    4[BANK0 ] unsigned int 
  4885 ;; Auto vars:     Size  Location     Type
  4886 ;;  grs             4   20[BANK0 ] unsigned long 
  4887 ;;  rem             4   13[BANK0 ] unsigned long 
  4888 ;;  new_exp         2   18[BANK0 ] int 
  4889 ;;  aexp            1   25[BANK0 ] unsigned char 
  4890 ;;  bexp            1   24[BANK0 ] unsigned char 
  4891 ;;  sign            1   17[BANK0 ] unsigned char 
  4892 ;; Return value:  Size  Location     Type
  4893 ;;                  4    0[BANK0 ] unsigned char 
  4894 ;; Registers used:
  4895 ;;		wreg, status,2, status,0, btemp+1
  4896 ;; Tracked objects:
  4897 ;;		On entry : 0/0
  4898 ;;		On exit  : 0/0
  4899 ;;		Unchanged: 0/0
  4900 ;; Data sizes:     COMMON   BANK0   BANK1   BANK3   BANK2
  4901 ;;      Params:         0       8       0       0       0
  4902 ;;      Locals:         0      13       0       0       0
  4903 ;;      Temps:          0       5       0       0       0
  4904 ;;      Totals:         0      26       0       0       0
  4905 ;;Total ram usage:       26 bytes
  4906 ;; Hardware stack levels used: 1
  4907 ;; This function calls:
  4908 ;;		Nothing
  4909 ;; This function is called by:
  4910 ;;		_map
  4911 ;; This function uses a non-reentrant model
  4912 ;;
  4913                           
  4914     0BD5                     ___fldiv:	
  4915                           ;psect for function ___fldiv
  4916                           
  4917     0BD5                     i1l2169:	
  4918                           ;incstack = 0
  4919                           ; Regs used in ___fldiv: [wreg+status,2+status,0+btemp+1]
  4920                           
  4921     0BD5  1283               	bcf	3,5	;RP0=0, select bank0
  4922     0BD6  1303               	bcf	3,6	;RP1=0, select bank0
  4923     0BD7  0827               	movf	___fldiv@b+3,w
  4924     0BD8  3980               	andlw	128
  4925     0BD9  00B1               	movwf	___fldiv@sign
  4926     0BDA                     i1l2171:
  4927     0BDA  0827               	movf	___fldiv@b+3,w
  4928     0BDB  00A8               	movwf	??___fldiv
  4929     0BDC  0728               	addwf	??___fldiv,w
  4930     0BDD  00B8               	movwf	___fldiv@bexp
  4931     0BDE                     i1l2173:
  4932     0BDE  1FA6               	btfss	___fldiv@b+2,7
  4933     0BDF  2BE1               	goto	u266_21
  4934     0BE0  2BE2               	goto	u266_20
  4935     0BE1                     u266_21:
  4936     0BE1  2BE3               	goto	i1l2177
  4937     0BE2                     u266_20:
  4938     0BE2                     i1l2175:
  4939     0BE2  1438               	bsf	___fldiv@bexp,0
  4940     0BE3                     i1l2177:
  4941     0BE3  0838               	movf	___fldiv@bexp,w
  4942     0BE4  1903               	btfsc	3,2
  4943     0BE5  2BE7               	goto	u267_21
  4944     0BE6  2BE8               	goto	u267_20
  4945     0BE7                     u267_21:
  4946     0BE7  2BF8               	goto	i1l2187
  4947     0BE8                     u267_20:
  4948     0BE8                     i1l2179:
  4949     0BE8  0A38               	incf	___fldiv@bexp,w
  4950     0BE9  1D03               	btfss	3,2
  4951     0BEA  2BEC               	goto	u268_21
  4952     0BEB  2BED               	goto	u268_20
  4953     0BEC                     u268_21:
  4954     0BEC  2BF5               	goto	i1l2183
  4955     0BED                     u268_20:
  4956     0BED                     i1l2181:
  4957     0BED  3000               	movlw	0
  4958     0BEE  00A7               	movwf	___fldiv@b+3
  4959     0BEF  3000               	movlw	0
  4960     0BF0  00A6               	movwf	___fldiv@b+2
  4961     0BF1  3000               	movlw	0
  4962     0BF2  00A5               	movwf	___fldiv@b+1
  4963     0BF3  3000               	movlw	0
  4964     0BF4  00A4               	movwf	___fldiv@b
  4965     0BF5                     i1l2183:
  4966     0BF5  17A6               	bsf	___fldiv@b+2,7
  4967     0BF6                     i1l2185:
  4968     0BF6  01A7               	clrf	___fldiv@b+3
  4969     0BF7  2C00               	goto	i1l2189
  4970     0BF8                     i1l2187:
  4971     0BF8  3000               	movlw	0
  4972     0BF9  00A7               	movwf	___fldiv@b+3
  4973     0BFA  3000               	movlw	0
  4974     0BFB  00A6               	movwf	___fldiv@b+2
  4975     0BFC  3000               	movlw	0
  4976     0BFD  00A5               	movwf	___fldiv@b+1
  4977     0BFE  3000               	movlw	0
  4978     0BFF  00A4               	movwf	___fldiv@b
  4979     0C00                     i1l2189:
  4980     0C00  0823               	movf	___fldiv@a+3,w
  4981     0C01  3980               	andlw	128
  4982     0C02  00A8               	movwf	??___fldiv
  4983     0C03  0828               	movf	??___fldiv,w
  4984     0C04  06B1               	xorwf	___fldiv@sign,f
  4985     0C05                     i1l2191:
  4986     0C05  0823               	movf	___fldiv@a+3,w
  4987     0C06  00A8               	movwf	??___fldiv
  4988     0C07  0728               	addwf	??___fldiv,w
  4989     0C08  00B9               	movwf	___fldiv@aexp
  4990     0C09                     i1l2193:
  4991     0C09  1FA2               	btfss	___fldiv@a+2,7
  4992     0C0A  2C0C               	goto	u269_21
  4993     0C0B  2C0D               	goto	u269_20
  4994     0C0C                     u269_21:
  4995     0C0C  2C0E               	goto	i1l2197
  4996     0C0D                     u269_20:
  4997     0C0D                     i1l2195:
  4998     0C0D  1439               	bsf	___fldiv@aexp,0
  4999     0C0E                     i1l2197:
  5000     0C0E  0839               	movf	___fldiv@aexp,w
  5001     0C0F  1903               	btfsc	3,2
  5002     0C10  2C12               	goto	u270_21
  5003     0C11  2C13               	goto	u270_20
  5004     0C12                     u270_21:
  5005     0C12  2C23               	goto	i1l2207
  5006     0C13                     u270_20:
  5007     0C13                     i1l2199:
  5008     0C13  0A39               	incf	___fldiv@aexp,w
  5009     0C14  1D03               	btfss	3,2
  5010     0C15  2C17               	goto	u271_21
  5011     0C16  2C18               	goto	u271_20
  5012     0C17                     u271_21:
  5013     0C17  2C20               	goto	i1l2203
  5014     0C18                     u271_20:
  5015     0C18                     i1l2201:
  5016     0C18  3000               	movlw	0
  5017     0C19  00A3               	movwf	___fldiv@a+3
  5018     0C1A  3000               	movlw	0
  5019     0C1B  00A2               	movwf	___fldiv@a+2
  5020     0C1C  3000               	movlw	0
  5021     0C1D  00A1               	movwf	___fldiv@a+1
  5022     0C1E  3000               	movlw	0
  5023     0C1F  00A0               	movwf	___fldiv@a
  5024     0C20                     i1l2203:
  5025     0C20  17A2               	bsf	___fldiv@a+2,7
  5026     0C21                     i1l2205:
  5027     0C21  01A3               	clrf	___fldiv@a+3
  5028     0C22  2C2B               	goto	i1l748
  5029     0C23                     i1l2207:
  5030     0C23  3000               	movlw	0
  5031     0C24  00A3               	movwf	___fldiv@a+3
  5032     0C25  3000               	movlw	0
  5033     0C26  00A2               	movwf	___fldiv@a+2
  5034     0C27  3000               	movlw	0
  5035     0C28  00A1               	movwf	___fldiv@a+1
  5036     0C29  3000               	movlw	0
  5037     0C2A  00A0               	movwf	___fldiv@a
  5038     0C2B                     i1l748:
  5039     0C2B  0823               	movf	___fldiv@a+3,w
  5040     0C2C  0422               	iorwf	___fldiv@a+2,w
  5041     0C2D  0421               	iorwf	___fldiv@a+1,w
  5042     0C2E  0420               	iorwf	___fldiv@a,w
  5043     0C2F  1D03               	skipz
  5044     0C30  2C32               	goto	u272_21
  5045     0C31  2C33               	goto	u272_20
  5046     0C32                     u272_21:
  5047     0C32  2C4C               	goto	i1l2217
  5048     0C33                     u272_20:
  5049     0C33                     i1l2209:
  5050     0C33  3000               	movlw	0
  5051     0C34  00A7               	movwf	___fldiv@b+3
  5052     0C35  3000               	movlw	0
  5053     0C36  00A6               	movwf	___fldiv@b+2
  5054     0C37  3000               	movlw	0
  5055     0C38  00A5               	movwf	___fldiv@b+1
  5056     0C39  3000               	movlw	0
  5057     0C3A  00A4               	movwf	___fldiv@b
  5058     0C3B  3080               	movlw	128
  5059     0C3C  04A6               	iorwf	___fldiv@b+2,f
  5060     0C3D  307F               	movlw	127
  5061     0C3E  04A7               	iorwf	___fldiv@b+3,f
  5062     0C3F                     i1l2211:
  5063     0C3F  0831               	movf	___fldiv@sign,w
  5064     0C40  00A8               	movwf	??___fldiv
  5065     0C41  0828               	movf	??___fldiv,w
  5066     0C42  04A7               	iorwf	___fldiv@b+3,f
  5067     0C43                     i1l2213:
  5068     0C43  0827               	movf	___fldiv@b+3,w
  5069     0C44  00A3               	movwf	?___fldiv+3
  5070     0C45  0826               	movf	___fldiv@b+2,w
  5071     0C46  00A2               	movwf	?___fldiv+2
  5072     0C47  0825               	movf	___fldiv@b+1,w
  5073     0C48  00A1               	movwf	?___fldiv+1
  5074     0C49  0824               	movf	___fldiv@b,w
  5075     0C4A  00A0               	movwf	?___fldiv
  5076     0C4B  2DA7               	goto	i1l750
  5077     0C4C                     i1l2217:
  5078     0C4C  0838               	movf	___fldiv@bexp,w
  5079     0C4D  1D03               	btfss	3,2
  5080     0C4E  2C50               	goto	u273_21
  5081     0C4F  2C51               	goto	u273_20
  5082     0C50                     u273_21:
  5083     0C50  2C5A               	goto	i1l2223
  5084     0C51                     u273_20:
  5085     0C51                     i1l2219:
  5086     0C51  3000               	movlw	0
  5087     0C52  00A3               	movwf	?___fldiv+3
  5088     0C53  3000               	movlw	0
  5089     0C54  00A2               	movwf	?___fldiv+2
  5090     0C55  3000               	movlw	0
  5091     0C56  00A1               	movwf	?___fldiv+1
  5092     0C57  3000               	movlw	0
  5093     0C58  00A0               	movwf	?___fldiv
  5094     0C59  2DA7               	goto	i1l750
  5095     0C5A                     i1l2223:
  5096     0C5A  0838               	movf	___fldiv@bexp,w
  5097     0C5B  00A8               	movwf	??___fldiv
  5098     0C5C  01A9               	clrf	??___fldiv+1
  5099     0C5D  0829               	movf	??___fldiv+1,w
  5100     0C5E  00AB               	movwf	??___fldiv+3
  5101     0C5F  0839               	movf	___fldiv@aexp,w
  5102     0C60  0228               	subwf	??___fldiv,w
  5103     0C61  00AA               	movwf	??___fldiv+2
  5104     0C62  1C03               	skipc
  5105     0C63  03AB               	decf	??___fldiv+3,f
  5106     0C64  082A               	movf	??___fldiv+2,w
  5107     0C65  3E7F               	addlw	127
  5108     0C66  00B2               	movwf	___fldiv@new_exp
  5109     0C67  082B               	movf	??___fldiv+3,w
  5110     0C68  1803               	skipnc
  5111     0C69  3E01               	addlw	1
  5112     0C6A  3E00               	addlw	0
  5113     0C6B  00B3               	movwf	___fldiv@new_exp+1
  5114     0C6C                     i1l2225:
  5115     0C6C  0827               	movf	___fldiv@b+3,w
  5116     0C6D  00B0               	movwf	___fldiv@rem+3
  5117     0C6E  0826               	movf	___fldiv@b+2,w
  5118     0C6F  00AF               	movwf	___fldiv@rem+2
  5119     0C70  0825               	movf	___fldiv@b+1,w
  5120     0C71  00AE               	movwf	___fldiv@rem+1
  5121     0C72  0824               	movf	___fldiv@b,w
  5122     0C73  00AD               	movwf	___fldiv@rem
  5123     0C74                     i1l2227:
  5124     0C74  3000               	movlw	0
  5125     0C75  00A7               	movwf	___fldiv@b+3
  5126     0C76  3000               	movlw	0
  5127     0C77  00A6               	movwf	___fldiv@b+2
  5128     0C78  3000               	movlw	0
  5129     0C79  00A5               	movwf	___fldiv@b+1
  5130     0C7A  3000               	movlw	0
  5131     0C7B  00A4               	movwf	___fldiv@b
  5132     0C7C                     i1l2229:
  5133     0C7C  3000               	movlw	0
  5134     0C7D  00B7               	movwf	___fldiv@grs+3
  5135     0C7E  3000               	movlw	0
  5136     0C7F  00B6               	movwf	___fldiv@grs+2
  5137     0C80  3000               	movlw	0
  5138     0C81  00B5               	movwf	___fldiv@grs+1
  5139     0C82  3000               	movlw	0
  5140     0C83  00B4               	movwf	___fldiv@grs
  5141     0C84                     i1l2231:
  5142     0C84  01B9               	clrf	___fldiv@aexp
  5143     0C85  2CD0               	goto	i1l2251
  5144     0C86                     i1l2233:
  5145     0C86  0839               	movf	___fldiv@aexp,w
  5146     0C87  1903               	btfsc	3,2
  5147     0C88  2C8A               	goto	u274_21
  5148     0C89  2C8B               	goto	u274_20
  5149     0C8A                     u274_21:
  5150     0C8A  2CAB               	goto	i1l2243
  5151     0C8B                     u274_20:
  5152     0C8B                     i1l2235:
  5153     0C8B  3001               	movlw	1
  5154     0C8C  00A8               	movwf	??___fldiv
  5155     0C8D                     u275_25:
  5156     0C8D  1003               	clrc
  5157     0C8E  0DAD               	rlf	___fldiv@rem,f
  5158     0C8F  0DAE               	rlf	___fldiv@rem+1,f
  5159     0C90  0DAF               	rlf	___fldiv@rem+2,f
  5160     0C91  0DB0               	rlf	___fldiv@rem+3,f
  5161     0C92  0BA8               	decfsz	??___fldiv,f
  5162     0C93  2C8D               	goto	u275_25
  5163     0C94  3001               	movlw	1
  5164     0C95  00A8               	movwf	??___fldiv
  5165     0C96                     u276_25:
  5166     0C96  1003               	clrc
  5167     0C97  0DA4               	rlf	___fldiv@b,f
  5168     0C98  0DA5               	rlf	___fldiv@b+1,f
  5169     0C99  0DA6               	rlf	___fldiv@b+2,f
  5170     0C9A  0DA7               	rlf	___fldiv@b+3,f
  5171     0C9B  0BA8               	decfsz	??___fldiv,f
  5172     0C9C  2C96               	goto	u276_25
  5173     0C9D                     i1l2237:
  5174     0C9D  1FB7               	btfss	___fldiv@grs+3,7
  5175     0C9E  2CA0               	goto	u277_21
  5176     0C9F  2CA1               	goto	u277_20
  5177     0CA0                     u277_21:
  5178     0CA0  2CA2               	goto	i1l2241
  5179     0CA1                     u277_20:
  5180     0CA1                     i1l2239:
  5181     0CA1  1424               	bsf	___fldiv@b,0
  5182     0CA2                     i1l2241:
  5183     0CA2  3001               	movlw	1
  5184     0CA3  00A8               	movwf	??___fldiv
  5185     0CA4                     u278_25:
  5186     0CA4  1003               	clrc
  5187     0CA5  0DB4               	rlf	___fldiv@grs,f
  5188     0CA6  0DB5               	rlf	___fldiv@grs+1,f
  5189     0CA7  0DB6               	rlf	___fldiv@grs+2,f
  5190     0CA8  0DB7               	rlf	___fldiv@grs+3,f
  5191     0CA9  0BA8               	decfsz	??___fldiv,f
  5192     0CAA  2CA4               	goto	u278_25
  5193     0CAB                     i1l2243:
  5194     0CAB  0823               	movf	___fldiv@a+3,w
  5195     0CAC  0230               	subwf	___fldiv@rem+3,w
  5196     0CAD  1D03               	skipz
  5197     0CAE  2CB9               	goto	u279_25
  5198     0CAF  0822               	movf	___fldiv@a+2,w
  5199     0CB0  022F               	subwf	___fldiv@rem+2,w
  5200     0CB1  1D03               	skipz
  5201     0CB2  2CB9               	goto	u279_25
  5202     0CB3  0821               	movf	___fldiv@a+1,w
  5203     0CB4  022E               	subwf	___fldiv@rem+1,w
  5204     0CB5  1D03               	skipz
  5205     0CB6  2CB9               	goto	u279_25
  5206     0CB7  0820               	movf	___fldiv@a,w
  5207     0CB8  022D               	subwf	___fldiv@rem,w
  5208     0CB9                     u279_25:
  5209     0CB9  1C03               	skipc
  5210     0CBA  2CBC               	goto	u279_21
  5211     0CBB  2CBD               	goto	u279_20
  5212     0CBC                     u279_21:
  5213     0CBC  2CCC               	goto	i1l2249
  5214     0CBD                     u279_20:
  5215     0CBD                     i1l2245:
  5216     0CBD  1737               	bsf	___fldiv@grs+3,6
  5217     0CBE                     i1l2247:
  5218     0CBE  0820               	movf	___fldiv@a,w
  5219     0CBF  02AD               	subwf	___fldiv@rem,f
  5220     0CC0  0821               	movf	___fldiv@a+1,w
  5221     0CC1  1C03               	skipc
  5222     0CC2  0F21               	incfsz	___fldiv@a+1,w
  5223     0CC3  02AE               	subwf	___fldiv@rem+1,f
  5224     0CC4  0822               	movf	___fldiv@a+2,w
  5225     0CC5  1C03               	skipc
  5226     0CC6  0F22               	incfsz	___fldiv@a+2,w
  5227     0CC7  02AF               	subwf	___fldiv@rem+2,f
  5228     0CC8  0823               	movf	___fldiv@a+3,w
  5229     0CC9  1C03               	skipc
  5230     0CCA  0F23               	incfsz	___fldiv@a+3,w
  5231     0CCB  02B0               	subwf	___fldiv@rem+3,f
  5232     0CCC                     i1l2249:
  5233     0CCC  3001               	movlw	1
  5234     0CCD  00A8               	movwf	??___fldiv
  5235     0CCE  0828               	movf	??___fldiv,w
  5236     0CCF  07B9               	addwf	___fldiv@aexp,f
  5237     0CD0                     i1l2251:
  5238     0CD0  301A               	movlw	26
  5239     0CD1  0239               	subwf	___fldiv@aexp,w
  5240     0CD2  1C03               	skipc
  5241     0CD3  2CD5               	goto	u280_21
  5242     0CD4  2CD6               	goto	u280_20
  5243     0CD5                     u280_21:
  5244     0CD5  2C86               	goto	i1l2233
  5245     0CD6                     u280_20:
  5246     0CD6                     i1l2253:
  5247     0CD6  0830               	movf	___fldiv@rem+3,w
  5248     0CD7  042F               	iorwf	___fldiv@rem+2,w
  5249     0CD8  042E               	iorwf	___fldiv@rem+1,w
  5250     0CD9  042D               	iorwf	___fldiv@rem,w
  5251     0CDA  1903               	skipnz
  5252     0CDB  2CDD               	goto	u281_21
  5253     0CDC  2CDE               	goto	u281_20
  5254     0CDD                     u281_21:
  5255     0CDD  2CFD               	goto	i1l2267
  5256     0CDE                     u281_20:
  5257     0CDE                     i1l2255:
  5258     0CDE  1434               	bsf	___fldiv@grs,0
  5259     0CDF  2CFD               	goto	i1l2267
  5260     0CE0                     i1l2257:
  5261     0CE0  3001               	movlw	1
  5262     0CE1  00A8               	movwf	??___fldiv
  5263     0CE2                     u282_25:
  5264     0CE2  1003               	clrc
  5265     0CE3  0DA4               	rlf	___fldiv@b,f
  5266     0CE4  0DA5               	rlf	___fldiv@b+1,f
  5267     0CE5  0DA6               	rlf	___fldiv@b+2,f
  5268     0CE6  0DA7               	rlf	___fldiv@b+3,f
  5269     0CE7  0BA8               	decfsz	??___fldiv,f
  5270     0CE8  2CE2               	goto	u282_25
  5271     0CE9                     i1l2259:
  5272     0CE9  1FB7               	btfss	___fldiv@grs+3,7
  5273     0CEA  2CEC               	goto	u283_21
  5274     0CEB  2CED               	goto	u283_20
  5275     0CEC                     u283_21:
  5276     0CEC  2CEE               	goto	i1l2263
  5277     0CED                     u283_20:
  5278     0CED                     i1l2261:
  5279     0CED  1424               	bsf	___fldiv@b,0
  5280     0CEE                     i1l2263:
  5281     0CEE  3001               	movlw	1
  5282     0CEF  00A8               	movwf	??___fldiv
  5283     0CF0                     u284_25:
  5284     0CF0  1003               	clrc
  5285     0CF1  0DB4               	rlf	___fldiv@grs,f
  5286     0CF2  0DB5               	rlf	___fldiv@grs+1,f
  5287     0CF3  0DB6               	rlf	___fldiv@grs+2,f
  5288     0CF4  0DB7               	rlf	___fldiv@grs+3,f
  5289     0CF5  0BA8               	decfsz	??___fldiv,f
  5290     0CF6  2CF0               	goto	u284_25
  5291     0CF7                     i1l2265:
  5292     0CF7  30FF               	movlw	255
  5293     0CF8  07B2               	addwf	___fldiv@new_exp,f
  5294     0CF9  1803               	skipnc
  5295     0CFA  0AB3               	incf	___fldiv@new_exp+1,f
  5296     0CFB  30FF               	movlw	255
  5297     0CFC  07B3               	addwf	___fldiv@new_exp+1,f
  5298     0CFD                     i1l2267:
  5299     0CFD  1FA6               	btfss	___fldiv@b+2,7
  5300     0CFE  2D00               	goto	u285_21
  5301     0CFF  2D01               	goto	u285_20
  5302     0D00                     u285_21:
  5303     0D00  2CE0               	goto	i1l2257
  5304     0D01                     u285_20:
  5305     0D01                     i1l2269:
  5306     0D01  01B9               	clrf	___fldiv@aexp
  5307     0D02                     i1l2271:
  5308     0D02  1FB7               	btfss	___fldiv@grs+3,7
  5309     0D03  2D05               	goto	u286_21
  5310     0D04  2D06               	goto	u286_20
  5311     0D05                     u286_21:
  5312     0D05  2D22               	goto	i1l2279
  5313     0D06                     u286_20:
  5314     0D06                     i1l2273:
  5315     0D06  30FF               	movlw	255
  5316     0D07  0534               	andwf	___fldiv@grs,w
  5317     0D08  00A8               	movwf	??___fldiv
  5318     0D09  30FF               	movlw	255
  5319     0D0A  0535               	andwf	___fldiv@grs+1,w
  5320     0D0B  00A9               	movwf	??___fldiv+1
  5321     0D0C  30FF               	movlw	255
  5322     0D0D  0536               	andwf	___fldiv@grs+2,w
  5323     0D0E  00AA               	movwf	??___fldiv+2
  5324     0D0F  307F               	movlw	127
  5325     0D10  0537               	andwf	___fldiv@grs+3,w
  5326     0D11  00AB               	movwf	??___fldiv+3
  5327     0D12  082B               	movf	??___fldiv+3,w
  5328     0D13  042A               	iorwf	??___fldiv+2,w
  5329     0D14  0429               	iorwf	??___fldiv+1,w
  5330     0D15  0428               	iorwf	??___fldiv,w
  5331     0D16  1903               	skipnz
  5332     0D17  2D19               	goto	u287_21
  5333     0D18  2D1A               	goto	u287_20
  5334     0D19                     u287_21:
  5335     0D19  2D1D               	goto	i1l764
  5336     0D1A                     u287_20:
  5337     0D1A                     i1l2275:
  5338     0D1A  01B9               	clrf	___fldiv@aexp
  5339     0D1B  0AB9               	incf	___fldiv@aexp,f
  5340     0D1C  2D22               	goto	i1l2279
  5341     0D1D                     i1l764:
  5342     0D1D  1C24               	btfss	___fldiv@b,0
  5343     0D1E  2D20               	goto	u288_21
  5344     0D1F  2D21               	goto	u288_20
  5345     0D20                     u288_21:
  5346     0D20  2D22               	goto	i1l2279
  5347     0D21                     u288_20:
  5348     0D21  2D1A               	goto	i1l2275
  5349     0D22                     i1l2279:
  5350     0D22  0839               	movf	___fldiv@aexp,w
  5351     0D23  1903               	btfsc	3,2
  5352     0D24  2D26               	goto	u289_21
  5353     0D25  2D27               	goto	u289_20
  5354     0D26                     u289_21:
  5355     0D26  2D58               	goto	i1l2289
  5356     0D27                     u289_20:
  5357     0D27                     i1l2281:
  5358     0D27  3001               	movlw	1
  5359     0D28  07A4               	addwf	___fldiv@b,f
  5360     0D29  3000               	movlw	0
  5361     0D2A  1803               	skipnc
  5362     0D2B  3001               	movlw	1
  5363     0D2C  07A5               	addwf	___fldiv@b+1,f
  5364     0D2D  3000               	movlw	0
  5365     0D2E  1803               	skipnc
  5366     0D2F  3001               	movlw	1
  5367     0D30  07A6               	addwf	___fldiv@b+2,f
  5368     0D31  3000               	movlw	0
  5369     0D32  1803               	skipnc
  5370     0D33  3001               	movlw	1
  5371     0D34  07A7               	addwf	___fldiv@b+3,f
  5372     0D35                     i1l2283:
  5373     0D35  1C27               	btfss	___fldiv@b+3,0
  5374     0D36  2D38               	goto	u290_21
  5375     0D37  2D39               	goto	u290_20
  5376     0D38                     u290_21:
  5377     0D38  2D58               	goto	i1l2289
  5378     0D39                     u290_20:
  5379     0D39                     i1l2285:
  5380     0D39  0824               	movf	___fldiv@b,w
  5381     0D3A  00A8               	movwf	??___fldiv
  5382     0D3B  0825               	movf	___fldiv@b+1,w
  5383     0D3C  00A9               	movwf	??___fldiv+1
  5384     0D3D  0826               	movf	___fldiv@b+2,w
  5385     0D3E  00AA               	movwf	??___fldiv+2
  5386     0D3F  0827               	movf	___fldiv@b+3,w
  5387     0D40  00AB               	movwf	??___fldiv+3
  5388     0D41  3001               	movlw	1
  5389     0D42  00AC               	movwf	??___fldiv+4
  5390     0D43                     u291_25:
  5391     0D43  0D2B               	rlf	??___fldiv+3,w
  5392     0D44  0CAB               	rrf	??___fldiv+3,f
  5393     0D45  0CAA               	rrf	??___fldiv+2,f
  5394     0D46  0CA9               	rrf	??___fldiv+1,f
  5395     0D47  0CA8               	rrf	??___fldiv,f
  5396     0D48                     u291_20:
  5397     0D48  0BAC               	decfsz	??___fldiv+4,f
  5398     0D49  2D43               	goto	u291_25
  5399     0D4A  082B               	movf	??___fldiv+3,w
  5400     0D4B  00A7               	movwf	___fldiv@b+3
  5401     0D4C  082A               	movf	??___fldiv+2,w
  5402     0D4D  00A6               	movwf	___fldiv@b+2
  5403     0D4E  0829               	movf	??___fldiv+1,w
  5404     0D4F  00A5               	movwf	___fldiv@b+1
  5405     0D50  0828               	movf	??___fldiv,w
  5406     0D51  00A4               	movwf	___fldiv@b
  5407     0D52                     i1l2287:
  5408     0D52  3001               	movlw	1
  5409     0D53  07B2               	addwf	___fldiv@new_exp,f
  5410     0D54  1803               	skipnc
  5411     0D55  0AB3               	incf	___fldiv@new_exp+1,f
  5412     0D56  3000               	movlw	0
  5413     0D57  07B3               	addwf	___fldiv@new_exp+1,f
  5414     0D58                     i1l2289:
  5415     0D58  0833               	movf	___fldiv@new_exp+1,w
  5416     0D59  3A80               	xorlw	128
  5417     0D5A  00FF               	movwf	btemp+1
  5418     0D5B  3080               	movlw	128
  5419     0D5C  027F               	subwf	btemp+1,w
  5420     0D5D  1D03               	skipz
  5421     0D5E  2D61               	goto	u292_25
  5422     0D5F  30FF               	movlw	255
  5423     0D60  0232               	subwf	___fldiv@new_exp,w
  5424     0D61                     u292_25:
  5425     0D61  1C03               	skipc
  5426     0D62  2D64               	goto	u292_21
  5427     0D63  2D65               	goto	u292_20
  5428     0D64                     u292_21:
  5429     0D64  2D73               	goto	i1l2293
  5430     0D65                     u292_20:
  5431     0D65                     i1l2291:
  5432     0D65  30FF               	movlw	255
  5433     0D66  1283               	bcf	3,5	;RP0=0, select bank0
  5434     0D67  1303               	bcf	3,6	;RP1=0, select bank0
  5435     0D68  00B2               	movwf	___fldiv@new_exp
  5436     0D69  3000               	movlw	0
  5437     0D6A  00B3               	movwf	___fldiv@new_exp+1
  5438     0D6B  3000               	movlw	0
  5439     0D6C  00A7               	movwf	___fldiv@b+3
  5440     0D6D  3000               	movlw	0
  5441     0D6E  00A6               	movwf	___fldiv@b+2
  5442     0D6F  3000               	movlw	0
  5443     0D70  00A5               	movwf	___fldiv@b+1
  5444     0D71  3000               	movlw	0
  5445     0D72  00A4               	movwf	___fldiv@b
  5446     0D73                     i1l2293:
  5447     0D73  1283               	bcf	3,5	;RP0=0, select bank0
  5448     0D74  1303               	bcf	3,6	;RP1=0, select bank0
  5449     0D75  0833               	movf	___fldiv@new_exp+1,w
  5450     0D76  3A80               	xorlw	128
  5451     0D77  00FF               	movwf	btemp+1
  5452     0D78  3080               	movlw	128
  5453     0D79  027F               	subwf	btemp+1,w
  5454     0D7A  1D03               	skipz
  5455     0D7B  2D7E               	goto	u293_25
  5456     0D7C  3001               	movlw	1
  5457     0D7D  0232               	subwf	___fldiv@new_exp,w
  5458     0D7E                     u293_25:
  5459     0D7E  1803               	skipnc
  5460     0D7F  2D81               	goto	u293_21
  5461     0D80  2D82               	goto	u293_20
  5462     0D81                     u293_21:
  5463     0D81  2D8F               	goto	i1l770
  5464     0D82                     u293_20:
  5465     0D82                     i1l2295:
  5466     0D82  1283               	bcf	3,5	;RP0=0, select bank0
  5467     0D83  1303               	bcf	3,6	;RP1=0, select bank0
  5468     0D84  01B2               	clrf	___fldiv@new_exp
  5469     0D85  01B3               	clrf	___fldiv@new_exp+1
  5470     0D86                     i1l2297:
  5471     0D86  3000               	movlw	0
  5472     0D87  00A7               	movwf	___fldiv@b+3
  5473     0D88  3000               	movlw	0
  5474     0D89  00A6               	movwf	___fldiv@b+2
  5475     0D8A  3000               	movlw	0
  5476     0D8B  00A5               	movwf	___fldiv@b+1
  5477     0D8C  3000               	movlw	0
  5478     0D8D  00A4               	movwf	___fldiv@b
  5479     0D8E                     i1l2299:
  5480     0D8E  01B1               	clrf	___fldiv@sign
  5481     0D8F                     i1l770:
  5482     0D8F  1283               	bcf	3,5	;RP0=0, select bank0
  5483     0D90  1303               	bcf	3,6	;RP1=0, select bank0
  5484     0D91  0832               	movf	___fldiv@new_exp,w
  5485     0D92  00B8               	movwf	___fldiv@bexp
  5486     0D93                     i1l2301:
  5487     0D93  1C38               	btfss	___fldiv@bexp,0
  5488     0D94  2D96               	goto	u294_21
  5489     0D95  2D97               	goto	u294_20
  5490     0D96                     u294_21:
  5491     0D96  2D99               	goto	i1l2305
  5492     0D97                     u294_20:
  5493     0D97                     i1l2303:
  5494     0D97  17A6               	bsf	___fldiv@b+2,7
  5495     0D98  2D9D               	goto	i1l772
  5496     0D99                     i1l2305:
  5497     0D99  307F               	movlw	127
  5498     0D9A  00A8               	movwf	??___fldiv
  5499     0D9B  0828               	movf	??___fldiv,w
  5500     0D9C  05A6               	andwf	___fldiv@b+2,f
  5501     0D9D                     i1l772:
  5502     0D9D  0838               	movf	___fldiv@bexp,w
  5503     0D9E  00A8               	movwf	??___fldiv
  5504     0D9F  1003               	clrc
  5505     0DA0  0C28               	rrf	??___fldiv,w
  5506     0DA1  00A7               	movwf	___fldiv@b+3
  5507     0DA2  0831               	movf	___fldiv@sign,w
  5508     0DA3  00A8               	movwf	??___fldiv
  5509     0DA4  0828               	movf	??___fldiv,w
  5510     0DA5  04A7               	iorwf	___fldiv@b+3,f
  5511     0DA6  2C43               	goto	i1l2213
  5512     0DA7                     i1l750:
  5513     0DA7  0008               	return
  5514     0DA8                     __end_of___fldiv:
  5515                           
  5516                           	psect	text11
  5517     0DA8                     __ptext11:	
  5518 ;; *************** function ___fladd *****************
  5519 ;; Defined at:
  5520 ;;		line 10 in file "C:\Program Files\Microchip\xc8\v2.40\pic\sources\c90\common\sprcadd.c"
  5521 ;; Parameters:    Size  Location     Type
  5522 ;;  b               4   52[BANK0 ] unsigned char 
  5523 ;;  a               4   56[BANK0 ] unsigned char 
  5524 ;; Auto vars:     Size  Location     Type
  5525 ;;  grs             1   71[BANK0 ] unsigned char 
  5526 ;;  bexp            1   70[BANK0 ] unsigned char 
  5527 ;;  aexp            1   69[BANK0 ] unsigned char 
  5528 ;;  signs           1   68[BANK0 ] unsigned char 
  5529 ;; Return value:  Size  Location     Type
  5530 ;;                  4   52[BANK0 ] unsigned char 
  5531 ;; Registers used:
  5532 ;;		wreg, status,2, status,0, btemp+1
  5533 ;; Tracked objects:
  5534 ;;		On entry : 0/0
  5535 ;;		On exit  : 0/0
  5536 ;;		Unchanged: 0/0
  5537 ;; Data sizes:     COMMON   BANK0   BANK1   BANK3   BANK2
  5538 ;;      Params:         0       8       0       0       0
  5539 ;;      Locals:         0       4       0       0       0
  5540 ;;      Temps:          0       8       0       0       0
  5541 ;;      Totals:         0      20       0       0       0
  5542 ;;Total ram usage:       20 bytes
  5543 ;; Hardware stack levels used: 1
  5544 ;; This function calls:
  5545 ;;		Nothing
  5546 ;; This function is called by:
  5547 ;;		_map
  5548 ;; This function uses a non-reentrant model
  5549 ;;
  5550                           
  5551     0DA8                     ___fladd:	
  5552                           ;psect for function ___fladd
  5553                           
  5554     0DA8                     i1l1975:	
  5555                           ;incstack = 0
  5556                           ; Regs used in ___fladd: [wreg+status,2+status,0+btemp+1]
  5557                           
  5558     0DA8  1283               	bcf	3,5	;RP0=0, select bank0
  5559     0DA9  1303               	bcf	3,6	;RP1=0, select bank0
  5560     0DAA  0857               	movf	___fladd@b+3,w
  5561     0DAB  3980               	andlw	128
  5562     0DAC  00E4               	movwf	___fladd@signs
  5563     0DAD                     i1l1977:
  5564     0DAD  0857               	movf	___fladd@b+3,w
  5565     0DAE  00DC               	movwf	??___fladd
  5566     0DAF  075C               	addwf	??___fladd,w
  5567     0DB0  00E6               	movwf	___fladd@bexp
  5568     0DB1                     i1l1979:
  5569     0DB1  1FD6               	btfss	___fladd@b+2,7
  5570     0DB2  2DB4               	goto	u220_21
  5571     0DB3  2DB5               	goto	u220_20
  5572     0DB4                     u220_21:
  5573     0DB4  2DB6               	goto	i1l1983
  5574     0DB5                     u220_20:
  5575     0DB5                     i1l1981:
  5576     0DB5  1466               	bsf	___fladd@bexp,0
  5577     0DB6                     i1l1983:
  5578     0DB6  0866               	movf	___fladd@bexp,w
  5579     0DB7  1903               	btfsc	3,2
  5580     0DB8  2DBA               	goto	u221_21
  5581     0DB9  2DBB               	goto	u221_20
  5582     0DBA                     u221_21:
  5583     0DBA  2DCB               	goto	i1l1993
  5584     0DBB                     u221_20:
  5585     0DBB                     i1l1985:
  5586     0DBB  0A66               	incf	___fladd@bexp,w
  5587     0DBC  1D03               	btfss	3,2
  5588     0DBD  2DBF               	goto	u222_21
  5589     0DBE  2DC0               	goto	u222_20
  5590     0DBF                     u222_21:
  5591     0DBF  2DC8               	goto	i1l1989
  5592     0DC0                     u222_20:
  5593     0DC0                     i1l1987:
  5594     0DC0  3000               	movlw	0
  5595     0DC1  00D7               	movwf	___fladd@b+3
  5596     0DC2  3000               	movlw	0
  5597     0DC3  00D6               	movwf	___fladd@b+2
  5598     0DC4  3000               	movlw	0
  5599     0DC5  00D5               	movwf	___fladd@b+1
  5600     0DC6  3000               	movlw	0
  5601     0DC7  00D4               	movwf	___fladd@b
  5602     0DC8                     i1l1989:
  5603     0DC8  17D6               	bsf	___fladd@b+2,7
  5604     0DC9                     i1l1991:
  5605     0DC9  01D7               	clrf	___fladd@b+3
  5606     0DCA  2DD3               	goto	i1l1995
  5607     0DCB                     i1l1993:
  5608     0DCB  3000               	movlw	0
  5609     0DCC  00D7               	movwf	___fladd@b+3
  5610     0DCD  3000               	movlw	0
  5611     0DCE  00D6               	movwf	___fladd@b+2
  5612     0DCF  3000               	movlw	0
  5613     0DD0  00D5               	movwf	___fladd@b+1
  5614     0DD1  3000               	movlw	0
  5615     0DD2  00D4               	movwf	___fladd@b
  5616     0DD3                     i1l1995:
  5617     0DD3  085B               	movf	___fladd@a+3,w
  5618     0DD4  3980               	andlw	128
  5619     0DD5  00E5               	movwf	___fladd@aexp
  5620     0DD6                     i1l1997:
  5621     0DD6  0865               	movf	___fladd@aexp,w
  5622     0DD7  0664               	xorwf	___fladd@signs,w
  5623     0DD8  1903               	skipnz
  5624     0DD9  2DDB               	goto	u223_21
  5625     0DDA  2DDC               	goto	u223_20
  5626     0DDB                     u223_21:
  5627     0DDB  2DDD               	goto	i1l2001
  5628     0DDC                     u223_20:
  5629     0DDC                     i1l1999:
  5630     0DDC  1764               	bsf	___fladd@signs,6
  5631     0DDD                     i1l2001:
  5632     0DDD  085B               	movf	___fladd@a+3,w
  5633     0DDE  00DC               	movwf	??___fladd
  5634     0DDF  075C               	addwf	??___fladd,w
  5635     0DE0  00E5               	movwf	___fladd@aexp
  5636     0DE1                     i1l2003:
  5637     0DE1  1FDA               	btfss	___fladd@a+2,7
  5638     0DE2  2DE4               	goto	u224_21
  5639     0DE3  2DE5               	goto	u224_20
  5640     0DE4                     u224_21:
  5641     0DE4  2DE6               	goto	i1l2007
  5642     0DE5                     u224_20:
  5643     0DE5                     i1l2005:
  5644     0DE5  1465               	bsf	___fladd@aexp,0
  5645     0DE6                     i1l2007:
  5646     0DE6  0865               	movf	___fladd@aexp,w
  5647     0DE7  1903               	btfsc	3,2
  5648     0DE8  2DEA               	goto	u225_21
  5649     0DE9  2DEB               	goto	u225_20
  5650     0DEA                     u225_21:
  5651     0DEA  2DFB               	goto	i1l2017
  5652     0DEB                     u225_20:
  5653     0DEB                     i1l2009:
  5654     0DEB  0A65               	incf	___fladd@aexp,w
  5655     0DEC  1D03               	btfss	3,2
  5656     0DED  2DEF               	goto	u226_21
  5657     0DEE  2DF0               	goto	u226_20
  5658     0DEF                     u226_21:
  5659     0DEF  2DF8               	goto	i1l2013
  5660     0DF0                     u226_20:
  5661     0DF0                     i1l2011:
  5662     0DF0  3000               	movlw	0
  5663     0DF1  00DB               	movwf	___fladd@a+3
  5664     0DF2  3000               	movlw	0
  5665     0DF3  00DA               	movwf	___fladd@a+2
  5666     0DF4  3000               	movlw	0
  5667     0DF5  00D9               	movwf	___fladd@a+1
  5668     0DF6  3000               	movlw	0
  5669     0DF7  00D8               	movwf	___fladd@a
  5670     0DF8                     i1l2013:
  5671     0DF8  17DA               	bsf	___fladd@a+2,7
  5672     0DF9                     i1l2015:
  5673     0DF9  01DB               	clrf	___fladd@a+3
  5674     0DFA  2E03               	goto	i1l692
  5675     0DFB                     i1l2017:
  5676     0DFB  3000               	movlw	0
  5677     0DFC  00DB               	movwf	___fladd@a+3
  5678     0DFD  3000               	movlw	0
  5679     0DFE  00DA               	movwf	___fladd@a+2
  5680     0DFF  3000               	movlw	0
  5681     0E00  00D9               	movwf	___fladd@a+1
  5682     0E01  3000               	movlw	0
  5683     0E02  00D8               	movwf	___fladd@a
  5684     0E03                     i1l692:
  5685     0E03  0866               	movf	___fladd@bexp,w
  5686     0E04  0265               	subwf	___fladd@aexp,w
  5687     0E05  1803               	skipnc
  5688     0E06  2E08               	goto	u227_21
  5689     0E07  2E09               	goto	u227_20
  5690     0E08                     u227_21:
  5691     0E08  2E2F               	goto	i1l2053
  5692     0E09                     u227_20:
  5693     0E09                     i1l2019:
  5694     0E09  1F64               	btfss	___fladd@signs,6
  5695     0E0A  2E0C               	goto	u228_21
  5696     0E0B  2E0D               	goto	u228_20
  5697     0E0C                     u228_21:
  5698     0E0C  2E11               	goto	i1l2023
  5699     0E0D                     u228_20:
  5700     0E0D                     i1l2021:
  5701     0E0D  3080               	movlw	128
  5702     0E0E  00DC               	movwf	??___fladd
  5703     0E0F  085C               	movf	??___fladd,w
  5704     0E10  06E4               	xorwf	___fladd@signs,f
  5705     0E11                     i1l2023:
  5706     0E11  0866               	movf	___fladd@bexp,w
  5707     0E12  00E7               	movwf	___fladd@grs
  5708     0E13                     i1l2025:
  5709     0E13  0865               	movf	___fladd@aexp,w
  5710     0E14  00E6               	movwf	___fladd@bexp
  5711     0E15                     i1l2027:
  5712     0E15  0867               	movf	___fladd@grs,w
  5713     0E16  00E5               	movwf	___fladd@aexp
  5714     0E17                     i1l2029:
  5715     0E17  0854               	movf	___fladd@b,w
  5716     0E18  00E7               	movwf	___fladd@grs
  5717     0E19                     i1l2031:
  5718     0E19  0858               	movf	___fladd@a,w
  5719     0E1A  00D4               	movwf	___fladd@b
  5720     0E1B                     i1l2033:
  5721     0E1B  0867               	movf	___fladd@grs,w
  5722     0E1C  00D8               	movwf	___fladd@a
  5723     0E1D                     i1l2035:
  5724     0E1D  0855               	movf	___fladd@b+1,w
  5725     0E1E  00E7               	movwf	___fladd@grs
  5726     0E1F                     i1l2037:
  5727     0E1F  0859               	movf	___fladd@a+1,w
  5728     0E20  00D5               	movwf	___fladd@b+1
  5729     0E21                     i1l2039:
  5730     0E21  0867               	movf	___fladd@grs,w
  5731     0E22  00D9               	movwf	___fladd@a+1
  5732     0E23                     i1l2041:
  5733     0E23  0856               	movf	___fladd@b+2,w
  5734     0E24  00E7               	movwf	___fladd@grs
  5735     0E25                     i1l2043:
  5736     0E25  085A               	movf	___fladd@a+2,w
  5737     0E26  00D6               	movwf	___fladd@b+2
  5738     0E27                     i1l2045:
  5739     0E27  0867               	movf	___fladd@grs,w
  5740     0E28  00DA               	movwf	___fladd@a+2
  5741     0E29                     i1l2047:
  5742     0E29  0857               	movf	___fladd@b+3,w
  5743     0E2A  00E7               	movwf	___fladd@grs
  5744     0E2B                     i1l2049:
  5745     0E2B  085B               	movf	___fladd@a+3,w
  5746     0E2C  00D7               	movwf	___fladd@b+3
  5747     0E2D                     i1l2051:
  5748     0E2D  0867               	movf	___fladd@grs,w
  5749     0E2E  00DB               	movwf	___fladd@a+3
  5750     0E2F                     i1l2053:
  5751     0E2F  01E7               	clrf	___fladd@grs
  5752     0E30                     i1l2055:
  5753     0E30  0865               	movf	___fladd@aexp,w
  5754     0E31  00DC               	movwf	??___fladd
  5755     0E32  01DD               	clrf	??___fladd+1
  5756     0E33  085D               	movf	??___fladd+1,w
  5757     0E34  00DF               	movwf	??___fladd+3
  5758     0E35  0866               	movf	___fladd@bexp,w
  5759     0E36  025C               	subwf	??___fladd,w
  5760     0E37  00DE               	movwf	??___fladd+2
  5761     0E38  1C03               	skipc
  5762     0E39  03DF               	decf	??___fladd+3,f
  5763     0E3A  085F               	movf	??___fladd+3,w
  5764     0E3B  3A80               	xorlw	128
  5765     0E3C  00FF               	movwf	btemp+1
  5766     0E3D  3080               	movlw	128
  5767     0E3E  027F               	subwf	btemp+1,w
  5768     0E3F  1D03               	skipz
  5769     0E40  2E43               	goto	u229_25
  5770     0E41  301A               	movlw	26
  5771     0E42  025E               	subwf	??___fladd+2,w
  5772     0E43                     u229_25:
  5773     0E43  1C03               	skipc
  5774     0E44  2E46               	goto	u229_21
  5775     0E45  2E47               	goto	u229_20
  5776     0E46                     u229_21:
  5777     0E46  2E7E               	goto	i1l2071
  5778     0E47                     u229_20:
  5779     0E47                     i1l2057:
  5780     0E47  1283               	bcf	3,5	;RP0=0, select bank0
  5781     0E48  1303               	bcf	3,6	;RP1=0, select bank0
  5782     0E49  0857               	movf	___fladd@b+3,w
  5783     0E4A  0456               	iorwf	___fladd@b+2,w
  5784     0E4B  0455               	iorwf	___fladd@b+1,w
  5785     0E4C  0454               	iorwf	___fladd@b,w
  5786     0E4D  1D03               	skipz
  5787     0E4E  2E50               	goto	u230_21
  5788     0E4F  2E52               	goto	u230_20
  5789     0E50                     u230_21:
  5790     0E50  3001               	movlw	1
  5791     0E51  2E53               	goto	u231_20
  5792     0E52                     u230_20:
  5793     0E52  3000               	movlw	0
  5794     0E53                     u231_20:
  5795     0E53  00E7               	movwf	___fladd@grs
  5796     0E54  3000               	movlw	0
  5797     0E55  00D7               	movwf	___fladd@b+3
  5798     0E56  3000               	movlw	0
  5799     0E57  00D6               	movwf	___fladd@b+2
  5800     0E58  3000               	movlw	0
  5801     0E59  00D5               	movwf	___fladd@b+1
  5802     0E5A  3000               	movlw	0
  5803     0E5B  00D4               	movwf	___fladd@b
  5804     0E5C  0865               	movf	___fladd@aexp,w
  5805     0E5D  00E6               	movwf	___fladd@bexp
  5806     0E5E  2E86               	goto	i1l696
  5807     0E5F                     i1l698:
  5808     0E5F  1C67               	btfss	___fladd@grs,0
  5809     0E60  2E62               	goto	u232_21
  5810     0E61  2E63               	goto	u232_20
  5811     0E62                     u232_21:
  5812     0E62  2E6A               	goto	i1l2061
  5813     0E63                     u232_20:
  5814     0E63                     i1l2059:
  5815     0E63  0867               	movf	___fladd@grs,w
  5816     0E64  00DC               	movwf	??___fladd
  5817     0E65  1003               	clrc
  5818     0E66  0C5C               	rrf	??___fladd,w
  5819     0E67  3801               	iorlw	1
  5820     0E68  00E7               	movwf	___fladd@grs
  5821     0E69  2E6C               	goto	i1l2063
  5822     0E6A                     i1l2061:
  5823     0E6A  1003               	clrc
  5824     0E6B  0CE7               	rrf	___fladd@grs,f
  5825     0E6C                     i1l2063:
  5826     0E6C  1C54               	btfss	___fladd@b,0
  5827     0E6D  2E6F               	goto	u233_21
  5828     0E6E  2E70               	goto	u233_20
  5829     0E6F                     u233_21:
  5830     0E6F  2E71               	goto	i1l2067
  5831     0E70                     u233_20:
  5832     0E70                     i1l2065:
  5833     0E70  17E7               	bsf	___fladd@grs,7
  5834     0E71                     i1l2067:
  5835     0E71  3001               	movlw	1
  5836     0E72  00DC               	movwf	??___fladd
  5837     0E73                     u234_25:
  5838     0E73  0D57               	rlf	___fladd@b+3,w
  5839     0E74  0CD7               	rrf	___fladd@b+3,f
  5840     0E75  0CD6               	rrf	___fladd@b+2,f
  5841     0E76  0CD5               	rrf	___fladd@b+1,f
  5842     0E77  0CD4               	rrf	___fladd@b,f
  5843     0E78  0BDC               	decfsz	??___fladd& (0+127),f
  5844     0E79  2E73               	goto	u234_25
  5845     0E7A                     i1l2069:
  5846     0E7A  3001               	movlw	1
  5847     0E7B  00DC               	movwf	??___fladd
  5848     0E7C  085C               	movf	??___fladd,w
  5849     0E7D  07E6               	addwf	___fladd@bexp,f
  5850     0E7E                     i1l2071:
  5851     0E7E  1283               	bcf	3,5	;RP0=0, select bank0
  5852     0E7F  1303               	bcf	3,6	;RP1=0, select bank0
  5853     0E80  0865               	movf	___fladd@aexp,w
  5854     0E81  0266               	subwf	___fladd@bexp,w
  5855     0E82  1C03               	skipc
  5856     0E83  2E85               	goto	u235_21
  5857     0E84  2E86               	goto	u235_20
  5858     0E85                     u235_21:
  5859     0E85  2E5F               	goto	i1l698
  5860     0E86                     u235_20:
  5861     0E86                     i1l696:
  5862     0E86  1B64               	btfsc	___fladd@signs,6
  5863     0E87  2E89               	goto	u236_21
  5864     0E88  2E8A               	goto	u236_20
  5865     0E89                     u236_21:
  5866     0E89  2ED3               	goto	i1l2097
  5867     0E8A                     u236_20:
  5868     0E8A                     i1l2073:
  5869     0E8A  0866               	movf	___fladd@bexp,w
  5870     0E8B  1D03               	btfss	3,2
  5871     0E8C  2E8E               	goto	u237_21
  5872     0E8D  2E8F               	goto	u237_20
  5873     0E8E                     u237_21:
  5874     0E8E  2E98               	goto	i1l2079
  5875     0E8F                     u237_20:
  5876     0E8F                     i1l2075:
  5877     0E8F  3000               	movlw	0
  5878     0E90  00D7               	movwf	?___fladd+3
  5879     0E91  3000               	movlw	0
  5880     0E92  00D6               	movwf	?___fladd+2
  5881     0E93  3000               	movlw	0
  5882     0E94  00D5               	movwf	?___fladd+1
  5883     0E95  3000               	movlw	0
  5884     0E96  00D4               	movwf	?___fladd
  5885     0E97  2FFF               	goto	i1l705
  5886     0E98                     i1l2079:
  5887     0E98  0858               	movf	___fladd@a,w
  5888     0E99  07D4               	addwf	___fladd@b,f
  5889     0E9A  0859               	movf	___fladd@a+1,w
  5890     0E9B  1103               	clrz
  5891     0E9C  1803               	skipnc
  5892     0E9D  3E01               	addlw	1
  5893     0E9E  1903               	skipnz
  5894     0E9F  2EA1               	goto	u238_21
  5895     0EA0  07D5               	addwf	___fladd@b+1,f
  5896     0EA1                     u238_21:
  5897     0EA1  085A               	movf	___fladd@a+2,w
  5898     0EA2  1103               	clrz
  5899     0EA3  1803               	skipnc
  5900     0EA4  3E01               	addlw	1
  5901     0EA5  1903               	skipnz
  5902     0EA6  2EA8               	goto	u238_22
  5903     0EA7  07D6               	addwf	___fladd@b+2,f
  5904     0EA8                     u238_22:
  5905     0EA8  085B               	movf	___fladd@a+3,w
  5906     0EA9  1103               	clrz
  5907     0EAA  1803               	skipnc
  5908     0EAB  3E01               	addlw	1
  5909     0EAC  1903               	skipnz
  5910     0EAD  2EAF               	goto	u238_23
  5911     0EAE  07D7               	addwf	___fladd@b+3,f
  5912     0EAF                     u238_23:
  5913     0EAF                     i1l2081:
  5914     0EAF  1C57               	btfss	___fladd@b+3,0
  5915     0EB0  2EB2               	goto	u239_21
  5916     0EB1  2EB3               	goto	u239_20
  5917     0EB2                     u239_21:
  5918     0EB2  2F87               	goto	i1l2131
  5919     0EB3                     u239_20:
  5920     0EB3                     i1l2083:
  5921     0EB3  1C67               	btfss	___fladd@grs,0
  5922     0EB4  2EB6               	goto	u240_21
  5923     0EB5  2EB7               	goto	u240_20
  5924     0EB6                     u240_21:
  5925     0EB6  2EBE               	goto	i1l2087
  5926     0EB7                     u240_20:
  5927     0EB7                     i1l2085:
  5928     0EB7  0867               	movf	___fladd@grs,w
  5929     0EB8  00DC               	movwf	??___fladd
  5930     0EB9  1003               	clrc
  5931     0EBA  0C5C               	rrf	??___fladd,w
  5932     0EBB  3801               	iorlw	1
  5933     0EBC  00E7               	movwf	___fladd@grs
  5934     0EBD  2EC0               	goto	i1l2089
  5935     0EBE                     i1l2087:
  5936     0EBE  1003               	clrc
  5937     0EBF  0CE7               	rrf	___fladd@grs,f
  5938     0EC0                     i1l2089:
  5939     0EC0  1C54               	btfss	___fladd@b,0
  5940     0EC1  2EC3               	goto	u241_21
  5941     0EC2  2EC4               	goto	u241_20
  5942     0EC3                     u241_21:
  5943     0EC3  2EC5               	goto	i1l2093
  5944     0EC4                     u241_20:
  5945     0EC4                     i1l2091:
  5946     0EC4  17E7               	bsf	___fladd@grs,7
  5947     0EC5                     i1l2093:
  5948     0EC5  3001               	movlw	1
  5949     0EC6  00DC               	movwf	??___fladd
  5950     0EC7                     u242_25:
  5951     0EC7  0D57               	rlf	___fladd@b+3,w
  5952     0EC8  0CD7               	rrf	___fladd@b+3,f
  5953     0EC9  0CD6               	rrf	___fladd@b+2,f
  5954     0ECA  0CD5               	rrf	___fladd@b+1,f
  5955     0ECB  0CD4               	rrf	___fladd@b,f
  5956     0ECC  0BDC               	decfsz	??___fladd& (0+127),f
  5957     0ECD  2EC7               	goto	u242_25
  5958     0ECE                     i1l2095:
  5959     0ECE  3001               	movlw	1
  5960     0ECF  00DC               	movwf	??___fladd
  5961     0ED0  085C               	movf	??___fladd,w
  5962     0ED1  07E6               	addwf	___fladd@bexp,f
  5963     0ED2  2F87               	goto	i1l2131
  5964     0ED3                     i1l2097:
  5965     0ED3  0857               	movf	___fladd@b+3,w
  5966     0ED4  3A80               	xorlw	128
  5967     0ED5  00FF               	movwf	btemp+1
  5968     0ED6  085B               	movf	___fladd@a+3,w
  5969     0ED7  3A80               	xorlw	128
  5970     0ED8  027F               	subwf	btemp+1,w
  5971     0ED9  1D03               	skipz
  5972     0EDA  2EE5               	goto	u243_23
  5973     0EDB  085A               	movf	___fladd@a+2,w
  5974     0EDC  0256               	subwf	___fladd@b+2,w
  5975     0EDD  1D03               	skipz
  5976     0EDE  2EE5               	goto	u243_23
  5977     0EDF  0859               	movf	___fladd@a+1,w
  5978     0EE0  0255               	subwf	___fladd@b+1,w
  5979     0EE1  1D03               	skipz
  5980     0EE2  2EE5               	goto	u243_23
  5981     0EE3  0858               	movf	___fladd@a,w
  5982     0EE4  0254               	subwf	___fladd@b,w
  5983     0EE5                     u243_23:
  5984     0EE5  1803               	skipnc
  5985     0EE6  2EE8               	goto	u243_21
  5986     0EE7  2EE9               	goto	u243_20
  5987     0EE8                     u243_21:
  5988     0EE8  2F41               	goto	i1l2107
  5989     0EE9                     u243_20:
  5990     0EE9                     i1l2099:
  5991     0EE9  30FF               	movlw	255
  5992     0EEA  00DC               	movwf	??___fladd
  5993     0EEB  30FF               	movlw	255
  5994     0EEC  00DD               	movwf	??___fladd+1
  5995     0EED  30FF               	movlw	255
  5996     0EEE  00DE               	movwf	??___fladd+2
  5997     0EEF  30FF               	movlw	255
  5998     0EF0  00DF               	movwf	??___fladd+3
  5999     0EF1  0858               	movf	___fladd@a,w
  6000     0EF2  00E0               	movwf	??___fladd+4
  6001     0EF3  0859               	movf	___fladd@a+1,w
  6002     0EF4  00E1               	movwf	??___fladd+5
  6003     0EF5  085A               	movf	___fladd@a+2,w
  6004     0EF6  00E2               	movwf	??___fladd+6
  6005     0EF7  085B               	movf	___fladd@a+3,w
  6006     0EF8  00E3               	movwf	??___fladd+7
  6007     0EF9  0854               	movf	___fladd@b,w
  6008     0EFA  02E0               	subwf	??___fladd+4,f
  6009     0EFB  0855               	movf	___fladd@b+1,w
  6010     0EFC  1C03               	skipc
  6011     0EFD  0F55               	incfsz	___fladd@b+1,w
  6012     0EFE  2F00               	goto	u244_21
  6013     0EFF  2F01               	goto	u244_22
  6014     0F00                     u244_21:
  6015     0F00  02E1               	subwf	??___fladd+5,f
  6016     0F01                     u244_22:
  6017     0F01  0856               	movf	___fladd@b+2,w
  6018     0F02  1C03               	skipc
  6019     0F03  0F56               	incfsz	___fladd@b+2,w
  6020     0F04  2F06               	goto	u244_23
  6021     0F05  2F07               	goto	u244_24
  6022     0F06                     u244_23:
  6023     0F06  02E2               	subwf	??___fladd+6,f
  6024     0F07                     u244_24:
  6025     0F07  0857               	movf	___fladd@b+3,w
  6026     0F08  1C03               	skipc
  6027     0F09  0F57               	incfsz	___fladd@b+3,w
  6028     0F0A  2F0C               	goto	u244_25
  6029     0F0B  2F0D               	goto	u244_26
  6030     0F0C                     u244_25:
  6031     0F0C  02E3               	subwf	??___fladd+7,f
  6032     0F0D                     u244_26:
  6033     0F0D  0860               	movf	??___fladd+4,w
  6034     0F0E  07DC               	addwf	??___fladd,f
  6035     0F0F  0861               	movf	??___fladd+5,w
  6036     0F10  1803               	skipnc
  6037     0F11  0F61               	incfsz	??___fladd+5,w
  6038     0F12  2F14               	goto	u245_20
  6039     0F13  2F15               	goto	u245_21
  6040     0F14                     u245_20:
  6041     0F14  07DD               	addwf	??___fladd+1,f
  6042     0F15                     u245_21:
  6043     0F15  0862               	movf	??___fladd+6,w
  6044     0F16  1803               	skipnc
  6045     0F17  0F62               	incfsz	??___fladd+6,w
  6046     0F18  2F1A               	goto	u245_22
  6047     0F19  2F1B               	goto	u245_23
  6048     0F1A                     u245_22:
  6049     0F1A  07DE               	addwf	??___fladd+2,f
  6050     0F1B                     u245_23:
  6051     0F1B  0863               	movf	??___fladd+7,w
  6052     0F1C  1803               	skipnc
  6053     0F1D  0A63               	incf	??___fladd+7,w
  6054     0F1E  07DF               	addwf	??___fladd+3,f
  6055     0F1F  085F               	movf	??___fladd+3,w
  6056     0F20  00D7               	movwf	___fladd@b+3
  6057     0F21  085E               	movf	??___fladd+2,w
  6058     0F22  00D6               	movwf	___fladd@b+2
  6059     0F23  085D               	movf	??___fladd+1,w
  6060     0F24  00D5               	movwf	___fladd@b+1
  6061     0F25  085C               	movf	??___fladd,w
  6062     0F26  00D4               	movwf	___fladd@b
  6063     0F27                     i1l2101:
  6064     0F27  3080               	movlw	128
  6065     0F28  00DC               	movwf	??___fladd
  6066     0F29  085C               	movf	??___fladd,w
  6067     0F2A  06E4               	xorwf	___fladd@signs,f
  6068     0F2B  09E7               	comf	___fladd@grs,f
  6069     0F2C  0AE7               	incf	___fladd@grs,f
  6070     0F2D                     i1l2103:
  6071     0F2D  0867               	movf	___fladd@grs,w
  6072     0F2E  1D03               	btfss	3,2
  6073     0F2F  2F31               	goto	u246_21
  6074     0F30  2F32               	goto	u246_20
  6075     0F31                     u246_21:
  6076     0F31  2F4F               	goto	i1l713
  6077     0F32                     u246_20:
  6078     0F32                     i1l2105:
  6079     0F32  3001               	movlw	1
  6080     0F33  07D4               	addwf	___fladd@b,f
  6081     0F34  3000               	movlw	0
  6082     0F35  1803               	skipnc
  6083     0F36  3001               	movlw	1
  6084     0F37  07D5               	addwf	___fladd@b+1,f
  6085     0F38  3000               	movlw	0
  6086     0F39  1803               	skipnc
  6087     0F3A  3001               	movlw	1
  6088     0F3B  07D6               	addwf	___fladd@b+2,f
  6089     0F3C  3000               	movlw	0
  6090     0F3D  1803               	skipnc
  6091     0F3E  3001               	movlw	1
  6092     0F3F  07D7               	addwf	___fladd@b+3,f
  6093     0F40  2F4F               	goto	i1l713
  6094     0F41                     i1l2107:
  6095     0F41  0858               	movf	___fladd@a,w
  6096     0F42  02D4               	subwf	___fladd@b,f
  6097     0F43  0859               	movf	___fladd@a+1,w
  6098     0F44  1C03               	skipc
  6099     0F45  0F59               	incfsz	___fladd@a+1,w
  6100     0F46  02D5               	subwf	___fladd@b+1,f
  6101     0F47  085A               	movf	___fladd@a+2,w
  6102     0F48  1C03               	skipc
  6103     0F49  0F5A               	incfsz	___fladd@a+2,w
  6104     0F4A  02D6               	subwf	___fladd@b+2,f
  6105     0F4B  085B               	movf	___fladd@a+3,w
  6106     0F4C  1C03               	skipc
  6107     0F4D  0F5B               	incfsz	___fladd@a+3,w
  6108     0F4E  02D7               	subwf	___fladd@b+3,f
  6109     0F4F                     i1l713:
  6110     0F4F  0857               	movf	___fladd@b+3,w
  6111     0F50  0456               	iorwf	___fladd@b+2,w
  6112     0F51  0455               	iorwf	___fladd@b+1,w
  6113     0F52  0454               	iorwf	___fladd@b,w
  6114     0F53  1D03               	skipz
  6115     0F54  2F56               	goto	u247_21
  6116     0F55  2F57               	goto	u247_20
  6117     0F56                     u247_21:
  6118     0F56  2F83               	goto	i1l2129
  6119     0F57                     u247_20:
  6120     0F57                     i1l2109:
  6121     0F57  0867               	movf	___fladd@grs,w
  6122     0F58  1D03               	btfss	3,2
  6123     0F59  2F5B               	goto	u248_21
  6124     0F5A  2F5C               	goto	u248_20
  6125     0F5B                     u248_21:
  6126     0F5B  2F83               	goto	i1l2129
  6127     0F5C                     u248_20:
  6128     0F5C                     i1l2111:
  6129     0F5C  3000               	movlw	0
  6130     0F5D  00D7               	movwf	?___fladd+3
  6131     0F5E  3000               	movlw	0
  6132     0F5F  00D6               	movwf	?___fladd+2
  6133     0F60  3000               	movlw	0
  6134     0F61  00D5               	movwf	?___fladd+1
  6135     0F62  3000               	movlw	0
  6136     0F63  00D4               	movwf	?___fladd
  6137     0F64  2FFF               	goto	i1l705
  6138     0F65                     i1l2115:
  6139     0F65  3001               	movlw	1
  6140     0F66  00DC               	movwf	??___fladd
  6141     0F67                     u249_25:
  6142     0F67  1003               	clrc
  6143     0F68  0DD4               	rlf	___fladd@b,f
  6144     0F69  0DD5               	rlf	___fladd@b+1,f
  6145     0F6A  0DD6               	rlf	___fladd@b+2,f
  6146     0F6B  0DD7               	rlf	___fladd@b+3,f
  6147     0F6C  0BDC               	decfsz	??___fladd,f
  6148     0F6D  2F67               	goto	u249_25
  6149     0F6E                     i1l2117:
  6150     0F6E  1FE7               	btfss	___fladd@grs,7
  6151     0F6F  2F71               	goto	u250_21
  6152     0F70  2F72               	goto	u250_20
  6153     0F71                     u250_21:
  6154     0F71  2F73               	goto	i1l717
  6155     0F72                     u250_20:
  6156     0F72                     i1l2119:
  6157     0F72  1454               	bsf	___fladd@b,0
  6158     0F73                     i1l717:
  6159     0F73  1C67               	btfss	___fladd@grs,0
  6160     0F74  2F76               	goto	u251_21
  6161     0F75  2F77               	goto	u251_20
  6162     0F76                     u251_21:
  6163     0F76  2F7A               	goto	i1l2123
  6164     0F77                     u251_20:
  6165     0F77                     i1l2121:
  6166     0F77  1403               	setc
  6167     0F78  0DE7               	rlf	___fladd@grs,f
  6168     0F79  2F7C               	goto	i1l2125
  6169     0F7A                     i1l2123:
  6170     0F7A  1003               	clrc
  6171     0F7B  0DE7               	rlf	___fladd@grs,f
  6172     0F7C                     i1l2125:
  6173     0F7C  0866               	movf	___fladd@bexp,w
  6174     0F7D  1903               	btfsc	3,2
  6175     0F7E  2F80               	goto	u252_21
  6176     0F7F  2F81               	goto	u252_20
  6177     0F80                     u252_21:
  6178     0F80  2F83               	goto	i1l2129
  6179     0F81                     u252_20:
  6180     0F81                     i1l2127:
  6181     0F81  3001               	movlw	1
  6182     0F82  02E6               	subwf	___fladd@bexp,f
  6183     0F83                     i1l2129:
  6184     0F83  1FD6               	btfss	___fladd@b+2,7
  6185     0F84  2F86               	goto	u253_21
  6186     0F85  2F87               	goto	u253_20
  6187     0F86                     u253_21:
  6188     0F86  2F65               	goto	i1l2115
  6189     0F87                     u253_20:
  6190     0F87                     i1l2131:
  6191     0F87  01E5               	clrf	___fladd@aexp
  6192     0F88                     i1l2133:
  6193     0F88  1FE7               	btfss	___fladd@grs,7
  6194     0F89  2F8B               	goto	u254_21
  6195     0F8A  2F8C               	goto	u254_20
  6196     0F8B                     u254_21:
  6197     0F8B  2F9A               	goto	i1l2141
  6198     0F8C                     u254_20:
  6199     0F8C                     i1l2135:
  6200     0F8C  0867               	movf	___fladd@grs,w
  6201     0F8D  397F               	andlw	127
  6202     0F8E  1903               	btfsc	3,2
  6203     0F8F  2F91               	goto	u255_21
  6204     0F90  2F92               	goto	u255_20
  6205     0F91                     u255_21:
  6206     0F91  2F95               	goto	i1l723
  6207     0F92                     u255_20:
  6208     0F92                     i1l2137:
  6209     0F92  01E5               	clrf	___fladd@aexp
  6210     0F93  0AE5               	incf	___fladd@aexp,f
  6211     0F94  2F9A               	goto	i1l2141
  6212     0F95                     i1l723:
  6213     0F95  1C54               	btfss	___fladd@b,0
  6214     0F96  2F98               	goto	u256_21
  6215     0F97  2F99               	goto	u256_20
  6216     0F98                     u256_21:
  6217     0F98  2F9A               	goto	i1l2141
  6218     0F99                     u256_20:
  6219     0F99  2F92               	goto	i1l2137
  6220     0F9A                     i1l2141:
  6221     0F9A  0865               	movf	___fladd@aexp,w
  6222     0F9B  1903               	btfsc	3,2
  6223     0F9C  2F9E               	goto	u257_21
  6224     0F9D  2F9F               	goto	u257_20
  6225     0F9E                     u257_21:
  6226     0F9E  2FD3               	goto	i1l726
  6227     0F9F                     u257_20:
  6228     0F9F                     i1l2143:
  6229     0F9F  3001               	movlw	1
  6230     0FA0  07D4               	addwf	___fladd@b,f
  6231     0FA1  3000               	movlw	0
  6232     0FA2  1803               	skipnc
  6233     0FA3  3001               	movlw	1
  6234     0FA4  07D5               	addwf	___fladd@b+1,f
  6235     0FA5  3000               	movlw	0
  6236     0FA6  1803               	skipnc
  6237     0FA7  3001               	movlw	1
  6238     0FA8  07D6               	addwf	___fladd@b+2,f
  6239     0FA9  3000               	movlw	0
  6240     0FAA  1803               	skipnc
  6241     0FAB  3001               	movlw	1
  6242     0FAC  07D7               	addwf	___fladd@b+3,f
  6243     0FAD                     i1l2145:
  6244     0FAD  1C57               	btfss	___fladd@b+3,0
  6245     0FAE  2FB0               	goto	u258_21
  6246     0FAF  2FB1               	goto	u258_20
  6247     0FB0                     u258_21:
  6248     0FB0  2FD3               	goto	i1l726
  6249     0FB1                     u258_20:
  6250     0FB1                     i1l2147:
  6251     0FB1  0854               	movf	___fladd@b,w
  6252     0FB2  00DC               	movwf	??___fladd
  6253     0FB3  0855               	movf	___fladd@b+1,w
  6254     0FB4  00DD               	movwf	??___fladd+1
  6255     0FB5  0856               	movf	___fladd@b+2,w
  6256     0FB6  00DE               	movwf	??___fladd+2
  6257     0FB7  0857               	movf	___fladd@b+3,w
  6258     0FB8  00DF               	movwf	??___fladd+3
  6259     0FB9  3001               	movlw	1
  6260     0FBA  00E0               	movwf	??___fladd+4
  6261     0FBB                     u259_25:
  6262     0FBB  0D5F               	rlf	??___fladd+3,w
  6263     0FBC  0CDF               	rrf	??___fladd+3,f
  6264     0FBD  0CDE               	rrf	??___fladd+2,f
  6265     0FBE  0CDD               	rrf	??___fladd+1,f
  6266     0FBF  0CDC               	rrf	??___fladd,f
  6267     0FC0                     u259_20:
  6268     0FC0  0BE0               	decfsz	??___fladd+4,f
  6269     0FC1  2FBB               	goto	u259_25
  6270     0FC2  085F               	movf	??___fladd+3,w
  6271     0FC3  00D7               	movwf	___fladd@b+3
  6272     0FC4  085E               	movf	??___fladd+2,w
  6273     0FC5  00D6               	movwf	___fladd@b+2
  6274     0FC6  085D               	movf	??___fladd+1,w
  6275     0FC7  00D5               	movwf	___fladd@b+1
  6276     0FC8  085C               	movf	??___fladd,w
  6277     0FC9  00D4               	movwf	___fladd@b
  6278     0FCA  0A66               	incf	___fladd@bexp,w
  6279     0FCB  1903               	btfsc	3,2
  6280     0FCC  2FCE               	goto	u260_21
  6281     0FCD  2FCF               	goto	u260_20
  6282     0FCE                     u260_21:
  6283     0FCE  2FD3               	goto	i1l726
  6284     0FCF                     u260_20:
  6285     0FCF                     i1l2149:
  6286     0FCF  3001               	movlw	1
  6287     0FD0  00DC               	movwf	??___fladd
  6288     0FD1  085C               	movf	??___fladd,w
  6289     0FD2  07E6               	addwf	___fladd@bexp,f
  6290     0FD3                     i1l726:
  6291     0FD3  0A66               	incf	___fladd@bexp,w
  6292     0FD4  1903               	btfsc	3,2
  6293     0FD5  2FD7               	goto	u261_21
  6294     0FD6  2FD8               	goto	u261_20
  6295     0FD7                     u261_21:
  6296     0FD7  2FDD               	goto	i1l2153
  6297     0FD8                     u261_20:
  6298     0FD8                     i1l2151:
  6299     0FD8  0866               	movf	___fladd@bexp,w
  6300     0FD9  1D03               	btfss	3,2
  6301     0FDA  2FDC               	goto	u262_21
  6302     0FDB  2FDD               	goto	u262_20
  6303     0FDC                     u262_21:
  6304     0FDC  2FEB               	goto	i1l2159
  6305     0FDD                     u262_20:
  6306     0FDD                     i1l2153:
  6307     0FDD  3000               	movlw	0
  6308     0FDE  00D7               	movwf	___fladd@b+3
  6309     0FDF  3000               	movlw	0
  6310     0FE0  00D6               	movwf	___fladd@b+2
  6311     0FE1  3000               	movlw	0
  6312     0FE2  00D5               	movwf	___fladd@b+1
  6313     0FE3  3000               	movlw	0
  6314     0FE4  00D4               	movwf	___fladd@b
  6315     0FE5                     i1l2155:
  6316     0FE5  0866               	movf	___fladd@bexp,w
  6317     0FE6  1D03               	btfss	3,2
  6318     0FE7  2FE9               	goto	u263_21
  6319     0FE8  2FEA               	goto	u263_20
  6320     0FE9                     u263_21:
  6321     0FE9  2FEB               	goto	i1l2159
  6322     0FEA                     u263_20:
  6323     0FEA                     i1l2157:
  6324     0FEA  01E4               	clrf	___fladd@signs
  6325     0FEB                     i1l2159:
  6326     0FEB  1C66               	btfss	___fladd@bexp,0
  6327     0FEC  2FEE               	goto	u264_21
  6328     0FED  2FEF               	goto	u264_20
  6329     0FEE                     u264_21:
  6330     0FEE  2FF1               	goto	i1l2163
  6331     0FEF                     u264_20:
  6332     0FEF                     i1l2161:
  6333     0FEF  17D6               	bsf	___fladd@b+2,7
  6334     0FF0  2FF5               	goto	i1l734
  6335     0FF1                     i1l2163:
  6336     0FF1  307F               	movlw	127
  6337     0FF2  00DC               	movwf	??___fladd
  6338     0FF3  085C               	movf	??___fladd,w
  6339     0FF4  05D6               	andwf	___fladd@b+2,f
  6340     0FF5                     i1l734:
  6341     0FF5  0866               	movf	___fladd@bexp,w
  6342     0FF6  00DC               	movwf	??___fladd
  6343     0FF7  1003               	clrc
  6344     0FF8  0C5C               	rrf	??___fladd,w
  6345     0FF9  00D7               	movwf	___fladd@b+3
  6346     0FFA                     i1l2165:
  6347     0FFA  1FE4               	btfss	___fladd@signs,7
  6348     0FFB  2FFD               	goto	u265_21
  6349     0FFC  2FFE               	goto	u265_20
  6350     0FFD                     u265_21:
  6351     0FFD  2FFF               	goto	i1l735
  6352     0FFE                     u265_20:
  6353     0FFE                     i1l2167:
  6354     0FFE  17D7               	bsf	___fladd@b+3,7
  6355     0FFF                     i1l735:
  6356     0FFF                     i1l705:
  6357     0FFF  0008               	return
  6358     1000                     __end_of___fladd:
  6359     007E                     btemp	set	126	;btemp
  6360     007E                     wtemp0	set	126
  6361                           
  6362                           	psect	idloc
  6363                           
  6364                           ;Config register IDLOC0 @ 0x2000
  6365                           ;	unspecified, using default values
  6366     2000                     	org	8192
  6367     2000  3FFF               	dw	16383
  6368                           
  6369                           ;Config register IDLOC1 @ 0x2001
  6370                           ;	unspecified, using default values
  6371     2001                     	org	8193
  6372     2001  3FFF               	dw	16383
  6373                           
  6374                           ;Config register IDLOC2 @ 0x2002
  6375                           ;	unspecified, using default values
  6376     2002                     	org	8194
  6377     2002  3FFF               	dw	16383
  6378                           
  6379                           ;Config register IDLOC3 @ 0x2003
  6380                           ;	unspecified, using default values
  6381     2003                     	org	8195
  6382     2003  3FFF               	dw	16383
  6383                           
  6384                           	psect	config
  6385                           
  6386                           ;Config register CONFIG1 @ 0x2007
  6387                           ;	Oscillator Selection bits
  6388                           ;	FOSC = INTRC_NOCLKOUT, INTOSCIO oscillator: I/O function on RA6/OSC2/CLKOUT pin, I/O f
      +                          unction on RA7/OSC1/CLKIN
  6389                           ;	Watchdog Timer Enable bit
  6390                           ;	WDTE = OFF, WDT disabled and can be enabled by SWDTEN bit of the WDTCON register
  6391                           ;	Power-up Timer Enable bit
  6392                           ;	PWRTE = OFF, PWRT disabled
  6393                           ;	RE3/MCLR pin function select bit
  6394                           ;	MCLRE = OFF, RE3/MCLR pin function is digital input, MCLR internally tied to VDD
  6395                           ;	Code Protection bit
  6396                           ;	CP = OFF, Program memory code protection is disabled
  6397                           ;	Data Code Protection bit
  6398                           ;	CPD = OFF, Data memory code protection is disabled
  6399                           ;	Brown Out Reset Selection bits
  6400                           ;	BOREN = OFF, BOR disabled
  6401                           ;	Internal External Switchover bit
  6402                           ;	IESO = OFF, Internal/External Switchover mode is disabled
  6403                           ;	Fail-Safe Clock Monitor Enabled bit
  6404                           ;	FCMEN = OFF, Fail-Safe Clock Monitor is disabled
  6405                           ;	Low Voltage Programming Enable bit
  6406                           ;	LVP = OFF, RB3 pin has digital I/O, HV on MCLR must be used for programming
  6407                           ;	In-Circuit Debugger Mode bit
  6408                           ;	DEBUG = 0x1, unprogramme  6409     2007                     	org	8199
  6410     2007  20D4               	dw	8404
  6411                           
  6412                           ;Config register CONFIG2 @ 0x2008
  6413                           ;	Brown-out Reset Selection bit
  6414                           ;	BOR4V = BOR40V, Brown-out Reset set to 4.0V
  6415                           ;	Flash Program Memory Self Write Enable bits
  6416                           ;	WRT = OFF, Write protection off
  6417     2008                     	org	8200
  6418     2008  3FFF               	dw	16383

Data Sizes:
    Strings     0
    Constant    0
    Data        4
    BSS         37
    Persistent  0
    Stack       0

Auto Spaces:
    Space          Size  Autos    Used
    COMMON           14     14      14
    BANK0            80     80      80
    BANK1            80     20      61
    BANK3            96      4       4
    BANK2            96      0       0

Pointer List with Targets:

    None.

Critical Paths under _main in COMMON

    None.

Critical Paths under _isr in COMMON

    _map->___xxtofl
    ___fltol->___xxtofl
    ___flmul->___xxtofl
    ___fldiv->___xxtofl
    ___fladd->___xxtofl

Critical Paths under _main in BANK0

    None.

Critical Paths under _isr in BANK0

    _map->___fltol
    ___fltol->___fladd
    ___flmul->___fldiv
    ___fladd->___flmul

Critical Paths under _main in BANK1

    _main->_readFromEEPROM
    _main->_writeToEEPROM

Critical Paths under _isr in BANK1

    _isr->_map
    _map->___fltol

Critical Paths under _main in BANK3

    _main->_setup

Critical Paths under _isr in BANK3

    None.

Critical Paths under _main in BANK2

    None.

Critical Paths under _isr in BANK2

    None.

Call Graph Tables:

 ---------------------------------------------------------------------------------
 (Depth) Function   	        Calls       Base Space   Used Autos Params    Refs
 ---------------------------------------------------------------------------------
 (0) _main                                                 2     2      0     624
                                              2 BANK3      2     2      0
                     _readFromEEPROM
                              _setup
                      _writeToEEPROM
 ---------------------------------------------------------------------------------
 (1) _writeToEEPROM                                        2     1      1     602
                                             19 BANK1      1     0      1
                                              0 BANK3      1     1      0
 ---------------------------------------------------------------------------------
 (1) _setup                                                2     2      0       0
                                              0 BANK3      2     2      0
 ---------------------------------------------------------------------------------
 (1) _readFromEEPROM                                       1     1      0      22
                                             19 BANK1      1     1      0
 ---------------------------------------------------------------------------------
 Estimated maximum stack depth 1
 ---------------------------------------------------------------------------------
 (Depth) Function   	        Calls       Base Space   Used Autos Params    Refs
 ---------------------------------------------------------------------------------
 (2) _isr                                                  7     7      0    8605
                                             12 BANK1      7     7      0
                                _map
 ---------------------------------------------------------------------------------
 (3) _map                                                 10     0     10    8557
                                              2 BANK1     10     0     10
                            ___fladd
                            ___fldiv
                            ___flmul
                            ___fltol
                           ___xxtofl
 ---------------------------------------------------------------------------------
 (4) ___xxtofl                                            14    10      4     626
                                              0 COMMON    14    10      4
 ---------------------------------------------------------------------------------
 (4) ___fltol                                             10     6      4     305
                                             72 BANK0      8     4      4
                                              0 BANK1      2     2      0
                            ___fladd (ARG)
                            ___fldiv (ARG)
                            ___flmul (ARG)
                           ___xxtofl (ARG)
 ---------------------------------------------------------------------------------
 (4) ___flmul                                             26    18      8    2417
                                             26 BANK0     26    18      8
                          __Umul8_16
                            ___fldiv (ARG)
                           ___xxtofl (ARG)
 ---------------------------------------------------------------------------------
 (5) __Umul8_16                                            9     7      2     799
                                              0 COMMON     9     7      2
 ---------------------------------------------------------------------------------
 (4) ___fldiv                                             26    18      8    1273
                                              0 BANK0     26    18      8
                           ___xxtofl (ARG)
 ---------------------------------------------------------------------------------
 (4) ___fladd                                             20    12      8    2262
                                             52 BANK0     20    12      8
                            ___fldiv (ARG)
                            ___flmul (ARG)
                           ___xxtofl (ARG)
 ---------------------------------------------------------------------------------
 Estimated maximum stack depth 5
 ---------------------------------------------------------------------------------

 Call Graph Graphs:

 _main (ROOT)
   _readFromEEPROM
   _setup
   _writeToEEPROM

 _isr (ROOT)
   _map
     ___fladd
       ___fldiv (ARG)
         ___xxtofl (ARG)
       ___flmul (ARG)
         __Umul8_16
         ___fldiv (ARG)
         ___xxtofl (ARG)
       ___xxtofl (ARG)
     ___fldiv
     ___flmul
     ___fltol
       ___fladd (ARG)
       ___fldiv (ARG)
       ___flmul (ARG)
       ___xxtofl (ARG)
     ___xxtofl

 Address spaces:
Name               Size   Autos  Total    Cost      Usage
BANK3               60      4       4       9        4.2%
BITBANK3            60      0       0       8        0.0%
SFR3                 0      0       0       4        0.0%
BITSFR3              0      0       0       4        0.0%
BANK2               60      0       0      11        0.0%
BITBANK2            60      0       0      10        0.0%
SFR2                 0      0       0       5        0.0%
BITSFR2              0      0       0       5        0.0%
BANK1               50     14      3D       7       76.2%
BITBANK1            50      0       0       6        0.0%
SFR1                 0      0       0       2        0.0%
BITSFR1              0      0       0       2        0.0%
BANK0               50     50      50       5      100.0%
BITBANK0            50      0       0       4        0.0%
SFR0                 0      0       0       1        0.0%
BITSFR0              0      0       0       1        0.0%
COMMON               E      E       E       1      100.0%
BITCOMMON            E      0       0       0        0.0%
CODE                 0      0       0       0        0.0%
DATA                 0      0      9F      12        0.0%
ABS                  0      0      9F       3        0.0%
NULL                 0      0       0       0        0.0%
STACK                0      0       0       2        0.0%
EEDATA             100      0       0       0        0.0%


Microchip Technology PIC Macro Assembler V2.40 build 20220703182018 
Symbol Table                                                                                   Thu Jun 01 14:19:53 2023

           ___fldiv@aexp 0039             ___fldiv@bexp 0038                        _x 00B8  
           ___fldiv@sign 0031                       _RD 0C60                       _WR 0C61  
                     _x0 00B6                       _x1 00B4                       _y0 00B2  
                     _y1 00B0                       fsr 0004      __Umul8_16@word_mpld 0076  
                    l301 08F0                      l310 0924                      l304 0903  
                    l313 0928                      l307 0907                      l248 0689  
                    l258 06DD                      l292 0A27                      l294 0A2B  
                    l295 0A65                      _GIE 005F                      _map 0A66  
                    _isr 037F                      indf 0000             ___flmul@aexp 004C  
           ___flmul@bexp 004D             ___flmul@sign 0047             ___flmul@temp 0052  
           ___flmul@prod 004E             ___fltol@exp1 00C6                     l3001 09F8  
                   l3011 0A09                     l3003 0A03                     l3021 0A11  
                   l3013 0A0A                     l3005 0A06                     l3101 091A  
                   l3031 0A21                     l3023 0A15                     l3015 0A0B  
                   l3007 0A07                     l3111 0923                     l3103 091B  
                   l3041 0A36                     l3033 0A22                     l3025 0A19  
                   l3017 0A0E                     l3009 0A08                     l3105 0920  
                   l3201 073D                     l3121 0609                     l3113 05E9  
                   l3051 0A40                     l3043 0A3A                     l3035 0A23  
                   l3027 0A1B                     l3019 0A0F                     l3107 0921  
                   l3211 0758                     l3203 0742                     l3131 062C  
                   l3123 060D                     l3115 05EE                     l3061 0A47  
                   l3053 0A43                     l3045 0A3B                     l3037 0A24  
                   l3029 0A1F                     l3109 0922                     l3221 0773  
                   l3213 075F                     l3205 0749                     l3141 0655  
                   l3133 0639                     l3125 0614                     l3117 05F5  
                   l3071 0A4C                     l3063 0A48                     l3055 0A44  
                   l3047 0A3E                     l3039 0A26                     l3215 0762  
                   l3207 074E                     l3223 0776                     l3151 0681  
                   l3143 065C                     l3135 063D                     l3127 0621  
                   l3119 05FE                     l3081 0A53                     l3073 0A4D  
                   l3065 0A49                     l3057 0A45                     l3049 0A3F  
                   l3225 077C                     l3217 0769                     l3209 0755  
                   l3161 069C                     l3153 0684                     l3145 0669  
                   l3137 0644                     l3129 0625                     l3091 0A5D  
                   l3083 0A54                     l3075 0A4E                     l3067 0A4A  
                   l3059 0A46                     l3227 0781                     l3219 076C  
                   l3171 06E9                     l3163 06A1                     l3147 066D  
                   l3139 0651                     l3155 0689                     l3093 0A5E  
                   l3085 0A55                     l3077 0A4F                     l3069 0A4B  
                   l3181 0709                     l3173 06F1                     l3165 06D7  
                   l3157 0693                     l3149 0674                     l3087 0A56  
                   l3079 0A50                     l3095 0907                     l3191 0720  
                   l3183 070C                     l3175 06F6                     l3167 06DE  
                   l3159 0697                     l3089 0A59                     l3097 090B  
                   l3193 0727                     l3185 0713                     l3177 06FD  
                   l3169 06E4                     l2651 08F6                     l3099 0917  
                   l3187 0716                     l3179 0702                     l3195 072A  
                   l2653 08FC                     l3197 0730                     l3189 071D  
                   l2655 08FF                     l3199 0735                     l2649 08F0  
                   ?_map 00C7                     l2951 09C0                     l2961 09D0  
                   l2953 09C2                     l2945 09B7                     l2971 09D5  
                   l2963 09D1                     l2955 09C3                     l2947 09BB  
                   l2981 09DB                     l2973 09D6                     l2965 09D2  
                   l2957 09C4                     l2949 09BC                     l2991 09E9  
                   l2983 09E1                     l2975 09D7                     l2967 09D3  
                   l2959 09CD                     l2993 09EB                     l2985 09E4  
                   l2977 09D8                     l2969 09D4                     l2995 09EF  
                   l2987 09E5                     l2979 09DA                     l2997 09F3  
                   l2989 09E6                     l2999 09F7                     _ADIF 0066  
                   ?_isr 0070                     _T0IE 005D                     _T0IF 005A  
                   u4200 0639                     u4201 0638                     u4130 0A2B  
                   u4210 0651                     u4131 0A2A                     u4211 0650  
                   u4140 090B                     u4300 0713                     u4220 0669  
                   u4141 090A                     u4301 0712                     u4221 0668  
                   u4150 0928                     u4310 071D                     u4230 0681  
                   u4151 0927                     u4311 071C                     u4231 0680  
                   u4400 077C                     u4320 0727                     u4240 069C  
                   u4160 05F5                     u4401 077B                     u4321 0726  
                   u4241 069B                     u4161 05F4                     u4330 0730  
                   u4250 06DC                     u4170 05FE                     u4331 072F  
                   u4251 06DB                     u4171 05FD                     u4340 073D  
                   u4260 06E4                     u4180 0609                     u4341 073C  
                   u4261 06E3                     u4181 0608                     u3470 08F6  
                   u4350 0749                     u4270 06F1                     u4190 0621  
                   u3471 08F5                     u4351 0748                     u4271 06F0  
                   u4191 0620                     u4360 0755                     u4280 06FD  
                   u4361 0754                     u4281 06FC                     u4417 068F  
                   u4370 075F                     u4290 0709                     u4427 09FE  
                   u4371 075E                     u4291 0708                     u4380 0769  
                   u4381 0768                     u4390 0773                     u4391 0772  
                   _TMR0 0001                     _flag 00BB                     _main 05E9  
                   _pot3 00C4                     _pot4 00C3                     _pot5 00C2  
                   _pot6 00C1                     map@x 00C7                     btemp 007E  
                   start 0010          ___fldiv@new_exp 0032                    ??_map 007E  
                  ??_isr 00D1            ___fltol@sign1 00C5          __end_of___fladd 1000  
                  ?_main 0070          __end_of___fldiv 0DA8                    _EEADR 010D  
                  _EEDAT 010C          __end_of___flmul 037F          __end_of___fltol 09B7  
                  _ANSEL 0188                    i1l200 0532                    i1l220 05AB  
                  i1l212 0583                    i1l204 054D                    i1l231 05DD  
                  i1l223 05BF                    i1l215 059F                    i1l232 05D8  
                  i1l224 05BB                    i1l216 059A                    i1l208 0568  
                  i1l227 05CF                    i1l219 05AF                    i1l235 05DE  
                  i1l228 05CB                    i1l191 0514                    i1l175 03E2  
                  i1l800 0372                    i1l713 0F4F                    i1l705 0FFF  
                  i1l298 0B1C                    i1l723 0F95                    i1l717 0F73  
                  i1l734 0FF5                    i1l726 0FD3                    i1l750 0DA7  
                  i1l735 0FFF                    i1l807 07D9                    i1l592 099F  
                  i1l832 0B3F                    i1l809 07EB                    i1l585 09B6  
                  i1l770 0D8F                    i1l834 0BD4                    i1l595 09B6  
                  i1l692 0E03                    i1l772 0D9D                    i1l764 0D1D  
                  i1l748 0C2B                    i1l845 0B9E                    i1l846 0BAA  
                  i1l838 0B82                    i1l696 0E86                    i1l698 0E5F  
                  i1l794 02EE                    i1l788 037E                    _RCREG 001A  
                  _SPBRG 0099                    _PORTA 0005                    _PORTB 0006  
                  _PORTC 0007                    _PORTD 0008                    _PORTE 0009  
                  _TRISA 0085                    _TRISB 0086                    _TRISC 0087  
                  _TRISD 0088                    _TRISE 0089                    map@x0 00C9  
                  map@x1 00CB                    map@y0 00CD                    map@y1 00CF  
                  _servo 00A0                    _setup 09B7                    _state 00BA  
                  pclath 000A                    status 0003                    wtemp0 007E  
        __initialization 0013             __end_of_main 07C5    readFromEEPROM@address 00D8  
                 ??_main 0192                   _ADRESH 001E                   _ADRESL 009E  
                 _CCPR1L 0015                   _CCPR2L 001B                   _EECON2 018D  
                 ?_setup 0070                   _ANSELH 0189                   i1l2001 0DDD  
                 i1l2011 0DF0                   i1l2003 0DE1                   i1l2101 0F27  
                 i1l2021 0E0D                   i1l2013 0DF8                   i1l2005 0DE5  
                 i1l2111 0F5C                   i1l2103 0F2D                   i1l2031 0E19  
                 i1l2023 0E11                   i1l2015 0DF9                   i1l2007 0DE6  
                 i1l2121 0F77                   i1l2105 0F32                   i1l2041 0E23  
                 i1l2033 0E1B                   i1l2025 0E13                   i1l2009 0DEB  
                 i1l2017 0DFB                   i1l2201 0C18                   i1l2123 0F7A  
                 i1l2115 0F65                   i1l2107 0F41                   i1l2131 0F87  
                 i1l2051 0E2D                   i1l2043 0E25                   i1l2035 0E1D  
                 i1l2027 0E15                   i1l2019 0E09                   i1l2211 0C3F  
                 i1l2203 0C20                   i1l2141 0F9A                   i1l2133 0F88  
                 i1l2125 0F7C                   i1l2117 0F6E                   i1l2109 0F57  
                 i1l2061 0E6A                   i1l2045 0E27                   i1l2037 0E1F  
                 i1l2029 0E17                   i1l2053 0E2F                   i1l2301 0D93  
                 i1l2213 0C43                   i1l2205 0C21                   i1l2151 0FD8  
                 i1l2143 0F9F                   i1l2135 0F8C                   i1l2127 0F81  
                 i1l2119 0F72                   i1l2063 0E6C                   i1l2071 0E7E  
                 i1l2055 0E30                   i1l2047 0E29                   i1l2039 0E21  
                 i1l2303 0D97                   i1l2231 0C84                   i1l2223 0C5A  
                 i1l2207 0C23                   i1l2311 003A                   i1l2161 0FEF  
                 i1l2153 0FDD                   i1l2145 0FAD                   i1l2137 0F92  
                 i1l2129 0F83                   i1l2081 0EAF                   i1l2073 0E8A  
                 i1l2065 0E70                   i1l2057 0E47                   i1l2049 0E2B  
                 i1l2305 0D99                   i1l2241 0CA2                   i1l2233 0C86  
                 i1l2225 0C6C                   i1l2209 0C33                   i1l2217 0C4C  
                 i1l2401 02BE                   i1l2321 004D                   i1l2313 003F  
                 i1l2163 0FF1                   i1l2155 0FE5                   i1l2147 0FB1  
                 i1l2091 0EC4                   i1l2083 0EB3                   i1l2075 0E8F  
                 i1l2067 0E71                   i1l2059 0E63                   i1l2235 0C8B  
                 i1l2243 0CAB                   i1l2251 0CD0                   i1l2227 0C74  
                 i1l2219 0C51                   i1l2171 0BDA                   i1l2411 02D3  
                 i1l2403 02BF                   i1l2331 0069                   i1l2323 0052  
                 i1l2315 0043                   i1l2165 0FFA                   i1l2157 0FEA  
                 i1l2149 0FCF                   i1l2093 0EC5                   i1l2085 0EB7  
                 i1l2069 0E7A                   i1l2261 0CED                   i1l2253 0CD6  
                 i1l2245 0CBD                   i1l2237 0C9D                   i1l2229 0C7C  
                 i1l2181 0BED                   i1l2173 0BDE                   i1l2421 02F8  
                 i1l2413 02D7                   i1l2405 02C8                   i1l2341 007C  
                 i1l2333 006D                   i1l2325 005A                   i1l2317 0047  
                 i1l2167 0FFE                   i1l2159 0FEB                   i1l2095 0ECE  
                 i1l2087 0EBE                   i1l2079 0E98                   i1l2271 0D02  
                 i1l2263 0CEE                   i1l2255 0CDE                   i1l2247 0CBE  
                 i1l2239 0CA1                   i1l2191 0C05                   i1l2183 0BF5  
                 i1l2175 0BE2                   i1l2431 0336                   i1l2423 0306  
                 i1l2415 02EB                   i1l2407 02CE                   i1l2351 0098  
                 i1l2343 0084                   i1l2335 0071                   i1l2327 005C  
                 i1l2319 0048                   i1l2089 0EC0                   i1l2097 0ED3  
                 i1l2281 0D27                   i1l2273 0D06                   i1l2265 0CF7  
                 i1l2257 0CE0                   i1l2249 0CCC                   i1l2193 0C09  
                 i1l2185 0BF6                   i1l2177 0BE3                   i1l2169 0BD5  
                 i1l2441 0368                   i1l2433 0341                   i1l2425 030A  
                 i1l2409 02D2                   i1l2361 00D7                   i1l2345 0086  
                 i1l2337 0072                   i1l2329 0064                   i1l2099 0EE9  
                 i1l2291 0D65                   i1l2283 0D35                   i1l2275 0D1A  
                 i1l2259 0CE9                   i1l2267 0CFD                   i1l2195 0C0D  
                 i1l2179 0BE8                   i1l2187 0BF8                   i1l2443 036C  
                 i1l2435 0350                   i1l2427 0323                   i1l2419 02F3  
                 i1l2371 015E                   i1l2363 00F3                   i1l2355 00A1  
                 i1l2347 008E                   i1l2339 0077                   i1l2451 0B1E  
                 i1l2293 0D73                   i1l2285 0D39                   i1l2269 0D01  
                 i1l2197 0C0E                   i1l2189 0C00                   i1l2445 036D  
                 i1l2437 035A                   i1l2429 0329                   i1l2381 01CB  
                 i1l2373 016C                   i1l2365 011D                   i1l2357 00AF  
                 i1l2349 0093                   i1l2453 0B23                   i1l2701 03CE  
                 i1l2295 0D82                   i1l2287 0D52                   i1l2279 0D22  
                 i1l2199 0C13                   i1l2447 0376                   i1l2439 035C  
                 i1l2391 0272                   i1l2383 01E8                   i1l2375 0189  
                 i1l2367 0139                   i1l2359 00BC                   i1l2471 0B6B  
                 i1l2463 0B50                   i1l2455 0B27                   i1l2711 03E8  
                 i1l2703 03D5                   u210_20 0936                   i1l2297 0D86  
                 i1l2289 0D58                   i1l2393 029A                   i1l2385 0213  
                 i1l2377 0197                   i1l2369 0155                   u210_21 0935  
                 i1l2481 0BA2                   i1l2473 0B79                   i1l2465 0B53  
                 i1l2457 0B37                   i1l2801 058C                   i1l2721 0409  
                 i1l2713 03EF                   i1l2705 03DB                   i1l2299 0D8E  
                 i1l1931 07D3                   i1l2395 02A3                   i1l2387 0221  
                 i1l2379 01B4                   i1l2491 0BCC                   i1l2483 0BAC  
                 i1l2475 0B89                   i1l2467 0B60                   i1l2459 0B47  
                 i1l2811 05A3                   i1l2803 058D                   i1l2731 043F  
                 i1l2723 0412                   i1l2715 03FB                   i1l2707 03E2  
                 i1l1933 07E2                   i1l1925 07C6                   i1l2397 02B1  
                 i1l2389 024C                   i1l1941 0936                   i1l2485 0BC2  
                 i1l2477 0B94                   i1l2469 0B67                   i1l2821 05C7  
                 i1l2813 05B3                   i1l2805 0591                   i1l2741 0472  
                 i1l2733 0446                   i1l2717 03FE                   i1l2725 042B  
                 i1l2709 03E4                   i1l1935 07E7                   i1l1927 07C8  
                 i1l2399 02BA                   i1l1951 0963                   i1l2487 0BC7  
                 i1l2479 0B98                   i1l2495 0A66                   i1l2823 05C8  
                 i1l2815 05B7                   i1l2807 0595                   i1l2751 04EA  
                 i1l2743 0496                   i1l2735 044A                   i1l2727 0430  
                 i1l2719 0405                   u211_20 0951                   i1l1929 07CF  
                 i1l1961 0973                   i1l1953 0967                   i1l1945 0941  
                 i1l2489 0BCB                   i1l2825 05D3                   i1l2817 05B8  
                 i1l2809 0599                   i1l2761 0520                   i1l2753 04F0  
                 i1l2745 049C                   i1l2737 0453                   i1l2729 043C  
                 i1l2681 038E                   i1l1971 09A4                   i1l1955 096B  
                 i1l1963 0989                   i1l1947 0958                   i1l1939 0929  
                 i1l2827 05D7                   i1l2819 05C3                   i1l2771 053B  
                 i1l2763 0526                   i1l2747 04C0                   i1l2739 046C  
                 i1l2755 0514                   i1l2691 03AE                   i1l2683 0392  
                 i1l1981 0DB5                   i1l1973 09A9                   i1l1949 095B  
                 u211_25 094C                   i1l2781 0556                   i1l2773 0541  
                 i1l2765 052A                   i1l2749 04C6                   i1l2757 0516  
                 i1l2693 03B4                   i1l2685 039A                   i1l2677 037F  
                 i1l1991 0DC9                   i1l1983 0DB6                   i1l1975 0DA8  
                 i1l2791 0571                   i1l2783 055C                   i1l2775 0545  
                 i1l2767 0530                   i1l2759 051A                   i1l2695 03BB  
                 i1l2687 03A1                   i1l2679 0385                   u220_20 0DB5  
                 u300_20 007C                   u212_20 096B                   i1l1985 0DBB  
                 i1l1993 0DCB                   u220_21 0DB4                   i1l1977 0DAD  
                 u300_21 007B                   i1l1969 0990                   u212_21 096A  
                 i1l2793 0577                   i1l2785 0560                   i1l2777 054B  
                 i1l2769 0535                   i1l2697 03C1                   i1l2689 03A7  
                 i1l1995 0DD3                   i1l1987 0DC0                   i1l1979 0DB1  
                 i1l2795 057B                   i1l2787 0566                   i1l2779 0550  
                 i1l2699 03C8                   i1l1997 0DD6                   i1l1989 0DC8  
                 i1l2797 0581                   i1l2789 056B                   i1l1999 0DDC  
                 i1l2799 0586                   u221_20 0DBB                   u301_20 0093  
                 u213_20 0972                   u221_21 0DBA                   u301_21 0092  
                 u213_21 0971                   u230_20 0E52                   u222_20 0DC0  
                 u302_20 0098                   u230_21 0E50                   u222_21 0DBF  
                 u302_21 0097                   u310_25 01B6                   u214_25 0974  
                 u231_20 0E53                   u223_20 0DDC                   u207_20 07D3  
                 u215_20 0988                   u223_21 0DDB                   u207_21 07D2  
                 u311_21 01DA                   u303_21 00E5                   u215_21 0987  
                 u311_22 01E1                   u303_22 00EC                   u311_23 01E8  
                 u303_23 00F3                   u240_20 0EB7                   u232_20 0E63  
                 u224_20 0DE5                   u320_20 02BE                   u216_20 098F  
                 u240_21 0EB6                   u232_21 0E62                   u224_21 0DE4  
                 u320_21 02BD                   u312_21 0205                   u304_21 0101  
                 u216_21 098E                   u312_22 020C                   u304_22 0108  
                 u312_23 0213                   u304_23 010F                   u208_25 07DA  
                 u241_20 0EC4                   u233_20 0E70                   u225_20 0DEB  
                 u209_20 07E7                   u241_21 0EC3                   u233_21 0E6F  
                 u225_21 0DEA                   u209_21 07E6                   u313_21 0230  
                 u305_21 012B                   u313_22 0237                   u305_22 0132  
                 u313_23 023E                   u305_23 0139                   u321_25 02C1  
                 u217_25 0994                   u250_20 0F72                   u226_20 0DF0  
                 u330_20 0350                   u322_20 02D2                   u314_20 0258  
                 u218_20 09A4                   u250_21 0F71                   u226_21 0DEF  
                 u330_21 034F                   u322_21 02D1                   u306_21 0147  
                 u218_21 09A3                   u306_22 014E                   u306_23 0155  
                 u242_25 0EC7                   u234_25 0E73                   u330_25 034C  
                 u314_25 0253                   u251_20 0F77                   u243_20 0EE9  
                 u235_20 0E86                   u227_20 0E09                   u331_20 036C  
                 u323_20 02D7                   u219_20 09A9                   u251_21 0F76  
                 u243_21 0EE8                   u235_21 0E85                   u227_21 0E08  
                 u331_21 036B                   u323_21 02D6                   u315_21 0264  
                 u219_21 09A8                   u315_22 026B                   u243_23 0EE5  
                 u315_23 0272                   u307_25 0157                   u260_20 0FCF  
                 u252_20 0F81                   u236_20 0E8A                   u228_20 0E0D  
                 u324_20 02EB                   u316_20 0280                   u340_20 0B98  
                 u332_20 0B23                   u260_21 0FCE                   u252_21 0F80  
                 u244_21 0F00                   u236_21 0E89                   u228_21 0E0C  
                 u324_21 02EA                   u308_21 017B                   u340_21 0B97  
                 u332_21 0B22                   u244_22 0F01                   u308_22 0182  
                 u244_23 0F06                   u308_23 0189                   u244_24 0F07  
                 u244_25 0F0C                   u316_25 027B                   u244_26 0F0D  
                 u261_20 0FD8                   u253_20 0F87                   u245_20 0F14  
                 u237_20 0E8F                   u229_20 0E47                   u325_20 02F2  
                 u341_20 0B9E                   u333_20 0B27                   u261_21 0FD7  
                 u253_21 0F86                   u245_21 0F15                   u237_21 0E8E  
                 u229_21 0E46                   u325_21 02F1                   u317_21 028C  
                 u309_21 01A6                   u341_21 0B9D                   u333_21 0B26  
                 u245_22 0F1A                   u317_22 0293                   u309_22 01AD  
                 u245_23 0F1B                   u317_23 029A                   u309_23 01B4  
                 u229_25 0E43                   u262_20 0FDD                   u254_20 0F8C  
                 u246_20 0F32                   u270_20 0C13                   u326_20 02F8  
                 u342_20 0BA2                   u334_20 0B47                   u350_20 0385  
                 u262_21 0FDC                   u254_21 0F8B                   u246_21 0F31  
                 u238_21 0EA1                   u270_21 0C12                   u326_21 02F7  
                 u342_21 0BA1                   u334_21 0B46                   u350_21 0384  
                 u238_22 0EA8                   u238_23 0EAF                   u318_25 029C  
                 u263_20 0FEA                   u255_20 0F92                   u247_20 0F57  
                 u239_20 0EB3                   u271_20 0C18                   u327_20 030A  
                 u343_20 0BB7                   u351_20 039A                   u263_21 0FE9  
                 u255_21 0F91                   u247_21 0F56                   u239_21 0EB2  
                 u271_21 0C17                   u327_21 0309                   u351_21 0399  
                 u319_25 02B3                   u343_25 0BB2                   u335_25 0B58  
                 u264_20 0FEF                   u256_20 0F99                   u248_20 0F5C  
                 u280_20 0CD6                   u272_20 0C33                   u328_20 0319  
                 u344_20 0BC7                   u336_20 0B66                   u352_20 03A7  
                 u264_21 0FEE                   u256_21 0F98                   u248_21 0F5B  
                 u280_21 0CD5                   u272_21 0C32                   u344_21 0BC6  
                 u336_21 0B65                   u352_21 03A6                   u328_25 0314  
                 u360_25 0417                   u265_20 0FFE                   u257_20 0F9F  
                 u281_20 0CDE                   u273_20 0C51                   u329_20 0336  
                 u345_20 0BCB                   u361_20 0430                   u353_20 03B4  
                 u265_21 0FFD                   u257_21 0F9E                   u281_21 0CDD  
                 u273_21 0C50                   u329_21 0335                   u345_21 0BCA  
                 u361_21 042F                   u353_21 03B3                   u249_25 0F67  
                 u329_25 0332                   u337_25 0B7A                   u258_20 0FB1  
                 u290_20 0D39                   u274_20 0C8B                   u266_20 0BE2  
                 u338_20 0B88                   u370_20 0530                   u362_20 0446  
                 u354_20 03C1                   u258_21 0FB0                   u290_21 0D38  
                 u274_21 0C8A                   u266_21 0BE1                   u338_21 0B87  
                 u370_21 052F                   u362_21 0445                   u354_21 03C0  
                 u282_25 0CE2                   u259_20 0FC0                   u291_20 0D48  
                 u283_20 0CED                   u267_20 0BE8                   u371_20 0541  
                 u355_20 03CE                   u283_21 0CEC                   u267_21 0BE7  
                 u371_21 0540                   u355_21 03CD                   u259_25 0FBB  
                 u291_25 0D43                   u275_25 0C8D                   u339_25 0B8D  
                 u363_25 0458                   u292_20 0D65                   u268_20 0BED  
                 u380_20 05A3                   u372_20 054B                   u364_20 0472  
                 u356_20 03DB                   u292_21 0D64                   u268_21 0BEC  
                 u380_21 05A2                   u372_21 054A                   u364_21 0471  
                 u356_21 03DA                   u292_25 0D61                   u284_25 0CF0  
                 u276_25 0C96                   u293_20 0D82                   u285_20 0D01  
                 u277_20 0CA1                   u269_20 0C0D                   u381_20 05AF  
                 u373_20 055C                   u365_20 049C                   u357_20 03E8  
                 u293_21 0D81                   u285_21 0D00                   u277_21 0CA0  
                 u269_21 0C0C                   u381_21 05AE                   u373_21 055B  
                 u365_21 049B                   u357_21 03E7                   u293_25 0D7E  
                 u294_20 0D97                   u286_20 0D06                   u382_20 05B3  
                 u374_20 0566                   u366_20 04C6                   u358_20 03EF  
                 u294_21 0D96                   u286_21 0D05                   u382_21 05B2  
                 u374_21 0565                   u366_21 04C5                   u358_21 03EE  
                 u278_25 0CA4                   u287_20 0D1A                   u279_20 0CBD  
                 u295_20 0047                   u383_20 05BF                   u375_20 0577  
                 u367_20 04F0                   u359_20 0405                   u287_21 0D19  
                 u279_21 0CBC                   u295_21 0046                   u383_21 05BE  
                 u375_21 0576                   u367_21 04EF                   u359_21 0404  
                 u279_25 0CB9                   u288_20 0D21                   u296_20 004D  
                 u384_20 05C3                   u376_20 0581                   u368_20 051A  
                 u288_21 0D20                   u296_21 004C                   u384_21 05C2  
                 u376_21 0580                   u368_21 0519                   u289_20 0D27  
                 u297_20 0052                   u385_20 05CF                   u377_20 0591  
                 u369_20 0526                   u289_21 0D26                   u297_21 0051  
                 u385_21 05CE                   u377_21 0590                   u369_21 0525  
                 u298_20 0071                   u386_20 05D3                   u378_20 0595  
                 u298_21 0070                   u386_21 05D2                   u378_21 0594  
                 u299_20 0077                   u387_20 05DD                   u379_20 059F  
                 u299_21 0076                   u387_21 05DC                   u379_21 059E  
                 _SPBRGH 009A         __end_of___xxtofl 0BD5        writeToEEPROM@data 0190  
              ??___fladd 005C                ??___fldiv 0028                ??___flmul 0042  
              ??___fltol 006C                   _toggle 00D9                   saved_w 007E  
           ___xxtofl@arg 007A             ___xxtofl@exp 0079             ___xxtofl@val 0070  
__end_of__initialization 0036               ___fltol@f1 0068           __pcstackCOMMON 0070  
           __pidataBANK1 07F4            __end_of_setup 0A66           _OPTION_REGbits 0081  
                ??_setup 0190               __pbssBANK1 00A0        __end_of__Umul8_16 07EC  
             __pmaintext 05E9            _writeToEEPROM 0904               __pintentry 0004  
                _CCP1CON 0017                  _CCP2CON 001D                ?___xxtofl 0070  
         ?_writeToEEPROM 00D8                  ___fladd 0DA8                  ___fldiv 0BD5  
                ___flmul 003A                  ___fltol 0929                  _isr$652 00D7  
                _isr$648 00D6                  __ptext1 0904                  __ptext2 09B7  
                __ptext3 08ED                  __ptext4 037F                  __ptext5 0A66  
                __ptext6 0B1D                  __ptext7 0929                  __ptext8 003A  
                __ptext9 07C5                _T2CONbits 0012               ??___xxtofl 0074  
                _valTmr0 00DC                  clrloop0 07ED     end_of_initialization 0036  
              _RCSTAbits 0018           _readFromEEPROM 08ED                _PORTBbits 0006  
              _PORTDbits 0008              ___fladd@grs 0067            ___xxtofl@sign 0078  
              _TRISCbits 0087              ___fldiv@grs 0034              ___fldiv@rem 002D  
            ___flmul@grs 0048              _CCP1CONbits 0017              _CCP2CONbits 001D  
              _TXSTAbits 0098          ??_writeToEEPROM 00D9   __end_of_readFromEEPROM 0904  
   writeToEEPROM@address 00D8              _BAUDCTLbits 0187      start_initialization 0013  
            __end_of_map 0B1D              __end_of_isr 05E9                __Umul8_16 07C5  
        ?_readFromEEPROM 0070              __pdataBANK1 00D9                ___fladd@a 0058  
              ___fladd@b 0054                ___fldiv@a 0020                ___fldiv@b 0024  
              ___flmul@a 003E                ___flmul@b 003A                ___latbits 0002  
          __pcstackBANK0 0020            __pcstackBANK1 00C5            __pcstackBANK3 0190  
              _dirEEPROM 00DB                 ?___fladd 0054                 ?___fldiv 0020  
               ?___flmul 003A                 ?___fltol 0068               ?__Umul8_16 0070  
      interrupt_function 0004                 _IOCBbits 0096                clear_ram0 07EC  
               _PIE1bits 008C                 _PIR1bits 000C                _valuePot1 00AE  
              _valuePot2 00AC                _valuePot3 00AA                _valuePot4 00A8  
              _valuePot5 00A6                _valuePot6 00A4               _ADCON0bits 001F  
             _ADCON1bits 009F                 _WPUBbits 0095               _EECON1bits 018C  
            ??__Umul8_16 0072                 ___xxtofl 0B1D                 __ptext10 0BD5  
               __ptext11 0DA8                 _counter1 00C0                 _counter2 00BF  
               _counter3 00BE                 _counter4 00BD         ??_readFromEEPROM 00D8  
               _potValue 00A2    __end_of_writeToEEPROM 0929               _INTCONbits 000B  
               intlevel1 0000              _tempCounter 00BC               _OSCCONbits 008F  
 __Umul8_16@multiplicand 0070            ___fladd@signs 0064             ___fladd@aexp 0065  
           ___fladd@bexp 0066     __Umul8_16@multiplier 0078        __Umul8_16@product 0074  
