

Microchip MPLAB XC8 Assembler V2.40 build 20220703182018 
                                                                                               Wed Aug 30 14:16:56 2023

Microchip MPLAB XC8 C Compiler v2.40 (Free license) build 20220703182018 Og1 
     1                           	processor	16F887
     2                           	pagewidth 120
     3                           	opt	flic
     4                           	psect	idataBANK3,global,class=CODE,delta=2,noexec
     5                           	psect	cinit,global,class=CODE,merge=1,delta=2
     6                           	psect	bssBANK0,global,class=BANK0,space=1,delta=1,noexec
     7                           	psect	bssBANK3,global,class=BANK3,space=1,delta=1,noexec
     8                           	psect	dataBANK3,global,class=BANK3,space=1,delta=1,noexec
     9                           	psect	clrtext,global,class=CODE,delta=2
    10                           	psect	cstackBANK3,global,class=BANK3,space=1,delta=1,noexec
    11                           	psect	cstackBANK1,global,class=BANK1,space=1,delta=1,noexec
    12                           	psect	cstackCOMMON,global,class=COMMON,space=1,delta=1,noexec
    13                           	psect	cstackBANK0,global,class=BANK0,space=1,delta=1,noexec
    14                           	psect	maintext,global,class=CODE,split=1,delta=2
    15                           	psect	text1,local,class=CODE,merge=1,delta=2
    16                           	psect	text2,local,class=CODE,merge=1,delta=2,group=1
    17                           	psect	text3,local,class=CODE,merge=1,delta=2,group=1
    18                           	psect	text4,local,class=CODE,merge=1,delta=2,group=1
    19                           	psect	text5,local,class=CODE,merge=1,delta=2,group=1
    20                           	psect	text6,local,class=CODE,merge=1,delta=2,group=1
    21                           	psect	text7,local,class=CODE,merge=1,delta=2
    22                           	psect	text8,local,class=CODE,merge=1,delta=2
    23                           	psect	text9,local,class=CODE,merge=1,delta=2
    24                           	psect	text10,local,class=CODE,merge=1,delta=2
    25                           	psect	text11,local,class=CODE,merge=1,delta=2
    26                           	psect	text12,local,class=CODE,merge=1,delta=2
    27                           	psect	intentry,global,class=CODE,delta=2
    28                           	psect	text13,local,class=CODE,merge=1,delta=2
    29                           	psect	text14,local,class=CODE,merge=1,delta=2
    30                           	psect	text15,local,class=CODE,merge=1,delta=2
    31                           	psect	text16,local,class=CODE,merge=1,delta=2
    32                           	psect	text17,local,class=CODE,merge=1,delta=2
    33                           	psect	text18,local,class=CODE,merge=1,delta=2
    34                           	psect	idloc,global,abs,ovrld,class=IDLOC,space=5,delta=2,noexec
    35                           	psect	config,global,abs,ovrld,class=CONFIG,space=4,delta=2,noexec
    36                           	dabs	1,0x7E,2
    37     0000                     
    38                           ; Version 2.40
    39                           ; Generated 17/11/2021 GMT
    40                           ; 
    41                           ; Copyright © 2021, Microchip Technology Inc. and its subsidiaries ("Microchip")
    42                           ; All rights reserved.
    43                           ; 
    44                           ; This software is developed by Microchip Technology Inc. and its subsidiaries ("Microch
      +                          ip").
    45                           ; 
    46                           ; Redistribution and use in source and binary forms, with or without modification, are
    47                           ; permitted provided that the following conditions are met:
    48                           ; 
    49                           ;     1. Redistributions of source code must retain the above copyright notice, this lis
      +                          t of
    50                           ;        conditions and the following disclaimer.
    51                           ; 
    52                           ;     2. Redistributions in binary form must reproduce the above copyright notice, this 
      +                          list
    53                           ;        of conditions and the following disclaimer in the documentation and/or other
    54                           ;        materials provided with the distribution. Publication is not required when
    55                           ;        this file is used in an embedded application.
    56                           ; 
    57                           ;     3. Microchip's name may not be used to endorse or promote products derived from th
      +                          is
    58                           ;        software without specific prior written permission.
    59                           ; 
    60                           ; THIS SOFTWARE IS PROVIDED BY MICROCHIP "AS IS" AND ANY EXPRESS OR IMPLIED WARRANTIES,
    61                           ; INCLUDING, BUT NOT LIMITED TO, THE IMPLIED WARRANTIES OF MERCHANTABILITY AND FITNESS F
      +                          OR
    62                           ; PURPOSE ARE DISCLAIMED.  IN NO EVENT SHALL MICROCHIP BE LIABLE FOR ANY DIRECT, INDIREC
      +                          T,
    63                           ; INCIDENTAL, SPECIAL, EXEMPLARY, OR CONSEQUENTIAL DAMAGES (INCLUDING BUT NOT LIMITED TO
    64                           ; PROCUREMENT OF SUBSTITUTE GOODS OR SERVICES; LOSS OF USE, DATA OR PROFITS; OR BUSINESS
    65                           ; INTERRUPTION) HOWSOEVER CAUSED AND ON ANY THEORY OF LIABILITY, WHETHER IN CONTRACT, ST
      +                          RICT
    66                           ; LIABILITY, OR TORT (INCLUDING NEGLIGENCE OR OTHERWISE) ARISING IN ANY WAY OUT OF THE U
      +                          SE OF
    67                           ; THIS SOFTWARE, EVEN IF ADVISED OF THE POSSIBILITY OF SUCH DAMAGE.
    68                           ; 
    69                           ; 
    70                           ; Code-generator required, PIC16F887 Definitions
    71                           ; 
    72                           ; SFR Addresses
    73     0000                     	;# 
    74     0001                     	;# 
    75     0002                     	;# 
    76     0003                     	;# 
    77     0004                     	;# 
    78     0005                     	;# 
    79     0006                     	;# 
    80     0007                     	;# 
    81     0008                     	;# 
    82     0009                     	;# 
    83     000A                     	;# 
    84     000B                     	;# 
    85     000C                     	;# 
    86     000D                     	;# 
    87     000E                     	;# 
    88     000E                     	;# 
    89     000F                     	;# 
    90     0010                     	;# 
    91     0011                     	;# 
    92     0012                     	;# 
    93     0013                     	;# 
    94     0014                     	;# 
    95     0015                     	;# 
    96     0015                     	;# 
    97     0016                     	;# 
    98     0017                     	;# 
    99     0018                     	;# 
   100     0019                     	;# 
   101     001A                     	;# 
   102     001B                     	;# 
   103     001B                     	;# 
   104     001C                     	;# 
   105     001D                     	;# 
   106     001E                     	;# 
   107     001F                     	;# 
   108     0081                     	;# 
   109     0085                     	;# 
   110     0086                     	;# 
   111     0087                     	;# 
   112     0088                     	;# 
   113     0089                     	;# 
   114     008C                     	;# 
   115     008D                     	;# 
   116     008E                     	;# 
   117     008F                     	;# 
   118     0090                     	;# 
   119     0091                     	;# 
   120     0092                     	;# 
   121     0093                     	;# 
   122     0093                     	;# 
   123     0093                     	;# 
   124     0094                     	;# 
   125     0095                     	;# 
   126     0096                     	;# 
   127     0097                     	;# 
   128     0098                     	;# 
   129     0099                     	;# 
   130     009A                     	;# 
   131     009B                     	;# 
   132     009C                     	;# 
   133     009D                     	;# 
   134     009E                     	;# 
   135     009F                     	;# 
   136     0105                     	;# 
   137     0107                     	;# 
   138     0108                     	;# 
   139     0109                     	;# 
   140     010C                     	;# 
   141     010C                     	;# 
   142     010D                     	;# 
   143     010E                     	;# 
   144     010F                     	;# 
   145     0185                     	;# 
   146     0187                     	;# 
   147     0188                     	;# 
   148     0189                     	;# 
   149     018C                     	;# 
   150     018D                     	;# 
   151     0000                     	;# 
   152     0001                     	;# 
   153     0002                     	;# 
   154     0003                     	;# 
   155     0004                     	;# 
   156     0005                     	;# 
   157     0006                     	;# 
   158     0007                     	;# 
   159     0008                     	;# 
   160     0009                     	;# 
   161     000A                     	;# 
   162     000B                     	;# 
   163     000C                     	;# 
   164     000D                     	;# 
   165     000E                     	;# 
   166     000E                     	;# 
   167     000F                     	;# 
   168     0010                     	;# 
   169     0011                     	;# 
   170     0012                     	;# 
   171     0013                     	;# 
   172     0014                     	;# 
   173     0015                     	;# 
   174     0015                     	;# 
   175     0016                     	;# 
   176     0017                     	;# 
   177     0018                     	;# 
   178     0019                     	;# 
   179     001A                     	;# 
   180     001B                     	;# 
   181     001B                     	;# 
   182     001C                     	;# 
   183     001D                     	;# 
   184     001E                     	;# 
   185     001F                     	;# 
   186     0081                     	;# 
   187     0085                     	;# 
   188     0086                     	;# 
   189     0087                     	;# 
   190     0088                     	;# 
   191     0089                     	;# 
   192     008C                     	;# 
   193     008D                     	;# 
   194     008E                     	;# 
   195     008F                     	;# 
   196     0090                     	;# 
   197     0091                     	;# 
   198     0092                     	;# 
   199     0093                     	;# 
   200     0093                     	;# 
   201     0093                     	;# 
   202     0094                     	;# 
   203     0095                     	;# 
   204     0096                     	;# 
   205     0097                     	;# 
   206     0098                     	;# 
   207     0099                     	;# 
   208     009A                     	;# 
   209     009B                     	;# 
   210     009C                     	;# 
   211     009D                     	;# 
   212     009E                     	;# 
   213     009F                     	;# 
   214     0105                     	;# 
   215     0107                     	;# 
   216     0108                     	;# 
   217     0109                     	;# 
   218     010C                     	;# 
   219     010C                     	;# 
   220     010D                     	;# 
   221     010E                     	;# 
   222     010F                     	;# 
   223     0185                     	;# 
   224     0187                     	;# 
   225     0188                     	;# 
   226     0189                     	;# 
   227     018C                     	;# 
   228     018D                     	;# 
   229     0000                     	;# 
   230     0001                     	;# 
   231     0002                     	;# 
   232     0003                     	;# 
   233     0004                     	;# 
   234     0005                     	;# 
   235     0006                     	;# 
   236     0007                     	;# 
   237     0008                     	;# 
   238     0009                     	;# 
   239     000A                     	;# 
   240     000B                     	;# 
   241     000C                     	;# 
   242     000D                     	;# 
   243     000E                     	;# 
   244     000E                     	;# 
   245     000F                     	;# 
   246     0010                     	;# 
   247     0011                     	;# 
   248     0012                     	;# 
   249     0013                     	;# 
   250     0014                     	;# 
   251     0015                     	;# 
   252     0015                     	;# 
   253     0016                     	;# 
   254     0017                     	;# 
   255     0018                     	;# 
   256     0019                     	;# 
   257     001A                     	;# 
   258     001B                     	;# 
   259     001B                     	;# 
   260     001C                     	;# 
   261     001D                     	;# 
   262     001E                     	;# 
   263     001F                     	;# 
   264     0081                     	;# 
   265     0085                     	;# 
   266     0086                     	;# 
   267     0087                     	;# 
   268     0088                     	;# 
   269     0089                     	;# 
   270     008C                     	;# 
   271     008D                     	;# 
   272     008E                     	;# 
   273     008F                     	;# 
   274     0090                     	;# 
   275     0091                     	;# 
   276     0092                     	;# 
   277     0093                     	;# 
   278     0093                     	;# 
   279     0093                     	;# 
   280     0094                     	;# 
   281     0095                     	;# 
   282     0096                     	;# 
   283     0097                     	;# 
   284     0098                     	;# 
   285     0099                     	;# 
   286     009A                     	;# 
   287     009B                     	;# 
   288     009C                     	;# 
   289     009D                     	;# 
   290     009E                     	;# 
   291     009F                     	;# 
   292     0105                     	;# 
   293     0107                     	;# 
   294     0108                     	;# 
   295     0109                     	;# 
   296     010C                     	;# 
   297     010C                     	;# 
   298     010D                     	;# 
   299     010E                     	;# 
   300     010F                     	;# 
   301     0185                     	;# 
   302     0187                     	;# 
   303     0188                     	;# 
   304     0189                     	;# 
   305     018C                     	;# 
   306     018D                     	;# 
   307     0000                     	;# 
   308     0001                     	;# 
   309     0002                     	;# 
   310     0003                     	;# 
   311     0004                     	;# 
   312     0005                     	;# 
   313     0006                     	;# 
   314     0007                     	;# 
   315     0008                     	;# 
   316     0009                     	;# 
   317     000A                     	;# 
   318     000B                     	;# 
   319     000C                     	;# 
   320     000D                     	;# 
   321     000E                     	;# 
   322     000E                     	;# 
   323     000F                     	;# 
   324     0010                     	;# 
   325     0011                     	;# 
   326     0012                     	;# 
   327     0013                     	;# 
   328     0014                     	;# 
   329     0015                     	;# 
   330     0015                     	;# 
   331     0016                     	;# 
   332     0017                     	;# 
   333     0018                     	;# 
   334     0019                     	;# 
   335     001A                     	;# 
   336     001B                     	;# 
   337     001B                     	;# 
   338     001C                     	;# 
   339     001D                     	;# 
   340     001E                     	;# 
   341     001F                     	;# 
   342     0081                     	;# 
   343     0085                     	;# 
   344     0086                     	;# 
   345     0087                     	;# 
   346     0088                     	;# 
   347     0089                     	;# 
   348     008C                     	;# 
   349     008D                     	;# 
   350     008E                     	;# 
   351     008F                     	;# 
   352     0090                     	;# 
   353     0091                     	;# 
   354     0092                     	;# 
   355     0093                     	;# 
   356     0093                     	;# 
   357     0093                     	;# 
   358     0094                     	;# 
   359     0095                     	;# 
   360     0096                     	;# 
   361     0097                     	;# 
   362     0098                     	;# 
   363     0099                     	;# 
   364     009A                     	;# 
   365     009B                     	;# 
   366     009C                     	;# 
   367     009D                     	;# 
   368     009E                     	;# 
   369     009F                     	;# 
   370     0105                     	;# 
   371     0107                     	;# 
   372     0108                     	;# 
   373     0109                     	;# 
   374     010C                     	;# 
   375     010C                     	;# 
   376     010D                     	;# 
   377     010E                     	;# 
   378     010F                     	;# 
   379     0185                     	;# 
   380     0187                     	;# 
   381     0188                     	;# 
   382     0189                     	;# 
   383     018C                     	;# 
   384     018D                     	;# 
   385     0000                     	;# 
   386     0001                     	;# 
   387     0002                     	;# 
   388     0003                     	;# 
   389     0004                     	;# 
   390     0005                     	;# 
   391     0006                     	;# 
   392     0007                     	;# 
   393     0008                     	;# 
   394     0009                     	;# 
   395     000A                     	;# 
   396     000B                     	;# 
   397     000C                     	;# 
   398     000D                     	;# 
   399     000E                     	;# 
   400     000E                     	;# 
   401     000F                     	;# 
   402     0010                     	;# 
   403     0011                     	;# 
   404     0012                     	;# 
   405     0013                     	;# 
   406     0014                     	;# 
   407     0015                     	;# 
   408     0015                     	;# 
   409     0016                     	;# 
   410     0017                     	;# 
   411     0018                     	;# 
   412     0019                     	;# 
   413     001A                     	;# 
   414     001B                     	;# 
   415     001B                     	;# 
   416     001C                     	;# 
   417     001D                     	;# 
   418     001E                     	;# 
   419     001F                     	;# 
   420     0081                     	;# 
   421     0085                     	;# 
   422     0086                     	;# 
   423     0087                     	;# 
   424     0088                     	;# 
   425     0089                     	;# 
   426     008C                     	;# 
   427     008D                     	;# 
   428     008E                     	;# 
   429     008F                     	;# 
   430     0090                     	;# 
   431     0091                     	;# 
   432     0092                     	;# 
   433     0093                     	;# 
   434     0093                     	;# 
   435     0093                     	;# 
   436     0094                     	;# 
   437     0095                     	;# 
   438     0096                     	;# 
   439     0097                     	;# 
   440     0098                     	;# 
   441     0099                     	;# 
   442     009A                     	;# 
   443     009B                     	;# 
   444     009C                     	;# 
   445     009D                     	;# 
   446     009E                     	;# 
   447     009F                     	;# 
   448     0105                     	;# 
   449     0107                     	;# 
   450     0108                     	;# 
   451     0109                     	;# 
   452     010C                     	;# 
   453     010C                     	;# 
   454     010D                     	;# 
   455     010E                     	;# 
   456     010F                     	;# 
   457     0185                     	;# 
   458     0187                     	;# 
   459     0188                     	;# 
   460     0189                     	;# 
   461     018C                     	;# 
   462     018D                     	;# 
   463                           
   464                           	psect	idataBANK3
   465     07FB                     __pidataBANK3:
   466                           
   467                           ;initializer for _toggle
   468     07FB  3401               	retlw	1
   469     07FC  3400               	retlw	0
   470     0010                     _T1CONbits	set	16
   471     000F                     _TMR1H	set	15
   472     000E                     _TMR1L	set	14
   473     0010                     _T1CON	set	16
   474     0009                     _PORTE	set	9
   475     0007                     _PORTC	set	7
   476     0006                     _PORTB	set	6
   477     0005                     _PORTA	set	5
   478     0008                     _PORTD	set	8
   479     0014                     _SSPCONbits	set	20
   480     000B                     _INTCONbits	set	11
   481     0008                     _PORTDbits	set	8
   482     0006                     _PORTBbits	set	6
   483     000C                     _PIR1bits	set	12
   484     0013                     _SSPBUF	set	19
   485     0014                     _SSPCON	set	20
   486     0029                     _RA1	set	41
   487     0028                     _RA0	set	40
   488     0063                     _SSPIF	set	99
   489     005E                     _PEIE	set	94
   490     005F                     _GIE	set	95
   491     008F                     _OSCCONbits	set	143
   492     0096                     _IOCBbits	set	150
   493     0095                     _WPUBbits	set	149
   494     0081                     _OPTION_REGbits	set	129
   495     0089                     _TRISE	set	137
   496     0088                     _TRISD	set	136
   497     0087                     _TRISC	set	135
   498     0086                     _TRISB	set	134
   499     0085                     _TRISA	set	133
   500     0094                     _SSPSTATbits	set	148
   501     0091                     _SSPCON2bits	set	145
   502     0087                     _TRISCbits	set	135
   503     0094                     _SSPSTAT	set	148
   504     0093                     _SSPADD	set	147
   505     0091                     _SSPCON2	set	145
   506     04A0                     _BF	set	1184
   507     0463                     _SSPIE	set	1123
   508     043C                     _TRISC4	set	1084
   509     043B                     _TRISC3	set	1083
   510     0189                     _ANSELH	set	393
   511     0188                     _ANSEL	set	392
   512                           
   513                           	psect	cinit
   514     0013                     start_initialization:	
   515                           ; #config settings
   516                           
   517     0013                     __initialization:
   518                           
   519                           ; Initialize objects allocated to BANK3
   520     0013  1683               	bsf	3,5	;RP0=1, select bank3
   521     0014  1703               	bsf	3,6	;RP1=1, select bank3
   522     0015  120A  118A  27FB  120A  118A  	fcall	__pidataBANK3	;fetch initializer
   523     001A  00D3               	movwf	__pdataBANK3& (0+127)
   524     001B  120A  118A  27FC  120A  118A  	fcall	__pidataBANK3+1	;fetch initializer
   525     0020  00D4               	movwf	(__pdataBANK3+1)& (0+127)
   526                           
   527                           ; Clear objects allocated to BANK3
   528     0021  1783               	bsf	3,7	;select IRP bank2
   529     0022  3090               	movlw	low __pbssBANK3
   530     0023  0084               	movwf	4
   531     0024  30C8               	movlw	low (__pbssBANK3+56)
   532     0025  120A  158A  2011  120A  118A  	fcall	clear_ram0
   533                           
   534                           ; Clear objects allocated to BANK0
   535     002A  1283               	bcf	3,5	;RP0=0, select bank0
   536     002B  1303               	bcf	3,6	;RP1=0, select bank0
   537     002C  01EE               	clrf	__pbssBANK0& (0+127)
   538     002D                     end_of_initialization:	
   539                           ;End of C runtime variable initialization code
   540                           
   541     002D                     __end_of__initialization:
   542     002D  0183               	clrf	3
   543     002E  120A  158A  2880   	ljmp	_main	;jump to C main() function
   544                           
   545                           	psect	bssBANK0
   546     006E                     __pbssBANK0:
   547     006E                     _receive:
   548     006E                     	ds	1
   549                           
   550                           	psect	bssBANK3
   551     0190                     __pbssBANK3:
   552     0190                     _writeInLCD:
   553     0190                     	ds	20
   554     01A4                     _distanceLCD:
   555     01A4                     	ds	20
   556     01B8                     _time:
   557     01B8                     	ds	4
   558     01BC                     _Ultra:
   559     01BC                     	ds	2
   560     01BE                     _LDC:
   561     01BE                     	ds	2
   562     01C0                     _RDC:
   563     01C0                     	ds	2
   564     01C2                     _z:
   565     01C2                     	ds	2
   566     01C4                     _received:
   567     01C4                     	ds	2
   568     01C6                     _distanceF:
   569     01C6                     	ds	2
   570                           
   571                           	psect	dataBANK3
   572     01D3                     __pdataBANK3:
   573     01D3                     _toggle:
   574     01D3                     	ds	2
   575                           
   576                           	psect	clrtext
   577     0811                     clear_ram0:	
   578                           ;	Called with FSR containing the base address, and
   579                           ;	W with the last address+1
   580                           
   581     0811  0064               	clrwdt	;clear the watchdog before getting into this loop
   582     0812                     clrloop0:
   583     0812  0180               	clrf	0	;clear RAM location pointed to by FSR
   584     0813  0A84               	incf	4,f	;increment pointer
   585     0814  0604               	xorwf	4,w	;XOR with final address
   586     0815  1903               	btfsc	3,2	;have we reached the end yet?
   587     0816  3400               	retlw	0	;all done for this memory range, return
   588     0817  0604               	xorwf	4,w	;XOR again to restore value
   589     0818  2812               	goto	clrloop0	;do the next byte
   590                           
   591                           	psect	cstackBANK3
   592     01C8                     __pcstackBANK3:
   593     01C8                     _ultrasonic_measure_distance$1310:
   594                           
   595                           ; 4 bytes @ 0x0
   596     01C8                     	ds	4
   597     01CC                     ultrasonic_measure_distance@pulse_duration:
   598                           
   599                           ; 2 bytes @ 0x4
   600     01CC                     	ds	2
   601     01CE                     ultrasonic_measure_distance@distance:
   602                           
   603                           ; 2 bytes @ 0x6
   604     01CE                     	ds	2
   605     01D0                     ??_main:
   606                           
   607                           ; 1 bytes @ 0x8
   608     01D0                     	ds	3
   609                           
   610                           	psect	cstackBANK1
   611     00A0                     __pcstackBANK1:
   612     00A0                     ??_I2C_Slave_Init:
   613     00A0                     ??_Lcd_Port:	
   614                           ; 1 bytes @ 0x0
   615                           
   616     00A0                     ?__Umul8_16:	
   617                           ; 1 bytes @ 0x0
   618                           
   619     00A0                     ?___xxtofl:	
   620                           ; 2 bytes @ 0x0
   621                           
   622     00A0                     I2C_Slave_Init@address:	
   623                           ; 4 bytes @ 0x0
   624                           
   625     00A0                     Lcd_Port@a:	
   626                           ; 1 bytes @ 0x0
   627                           
   628     00A0                     __Umul8_16@multiplicand:	
   629                           ; 1 bytes @ 0x0
   630                           
   631     00A0                     ___xxtofl@val:	
   632                           ; 1 bytes @ 0x0
   633                           
   634                           
   635                           ; 4 bytes @ 0x0
   636     00A0                     	ds	1
   637     00A1                     ??_setup:
   638     00A1                     ??_Lcd_Cmd:	
   639                           ; 1 bytes @ 0x1
   640                           
   641                           
   642                           ; 1 bytes @ 0x1
   643     00A1                     	ds	1
   644     00A2                     ??__Umul8_16:
   645                           
   646                           ; 1 bytes @ 0x2
   647     00A2                     	ds	1
   648     00A3                     Lcd_Cmd@a:
   649                           
   650                           ; 1 bytes @ 0x3
   651     00A3                     	ds	1
   652     00A4                     ??_Lcd_Init:
   653     00A4                     ??___xxtofl:	
   654                           ; 1 bytes @ 0x4
   655                           
   656     00A4                     __Umul8_16@product:	
   657                           ; 1 bytes @ 0x4
   658                           
   659                           
   660                           ; 2 bytes @ 0x4
   661     00A4                     	ds	2
   662     00A6                     __Umul8_16@word_mpld:
   663                           
   664                           ; 2 bytes @ 0x6
   665     00A6                     	ds	2
   666     00A8                     __Umul8_16@multiplier:
   667     00A8                     ___xxtofl@sign:	
   668                           ; 1 bytes @ 0x8
   669                           
   670                           
   671                           ; 1 bytes @ 0x8
   672     00A8                     	ds	1
   673     00A9                     ___xxtofl@exp:
   674                           
   675                           ; 1 bytes @ 0x9
   676     00A9                     	ds	1
   677     00AA                     ___xxtofl@arg:
   678                           
   679                           ; 4 bytes @ 0xA
   680     00AA                     	ds	4
   681     00AE                     ?___flmul:
   682     00AE                     ___flmul@b:	
   683                           ; 4 bytes @ 0xE
   684                           
   685                           
   686                           ; 4 bytes @ 0xE
   687     00AE                     	ds	4
   688     00B2                     ___flmul@a:
   689                           
   690                           ; 4 bytes @ 0x12
   691     00B2                     	ds	4
   692     00B6                     ??___flmul:
   693                           
   694                           ; 1 bytes @ 0x16
   695     00B6                     	ds	5
   696     00BB                     ___flmul@sign:
   697                           
   698                           ; 1 bytes @ 0x1B
   699     00BB                     	ds	1
   700     00BC                     ___flmul@grs:
   701                           
   702                           ; 4 bytes @ 0x1C
   703     00BC                     	ds	4
   704     00C0                     ___flmul@aexp:
   705                           
   706                           ; 1 bytes @ 0x20
   707     00C0                     	ds	1
   708     00C1                     ___flmul@bexp:
   709                           
   710                           ; 1 bytes @ 0x21
   711     00C1                     	ds	1
   712     00C2                     ___flmul@prod:
   713                           
   714                           ; 4 bytes @ 0x22
   715     00C2                     	ds	4
   716     00C6                     ___flmul@temp:
   717                           
   718                           ; 2 bytes @ 0x26
   719     00C6                     	ds	2
   720     00C8                     ?___fldiv:
   721     00C8                     ___fldiv@a:	
   722                           ; 4 bytes @ 0x28
   723                           
   724                           
   725                           ; 4 bytes @ 0x28
   726     00C8                     	ds	4
   727     00CC                     ___fldiv@b:
   728                           
   729                           ; 4 bytes @ 0x2C
   730     00CC                     	ds	4
   731     00D0                     ??___fldiv:
   732                           
   733                           ; 1 bytes @ 0x30
   734     00D0                     	ds	5
   735     00D5                     ___fldiv@rem:
   736                           
   737                           ; 4 bytes @ 0x35
   738     00D5                     	ds	4
   739     00D9                     ___fldiv@sign:
   740                           
   741                           ; 1 bytes @ 0x39
   742     00D9                     	ds	1
   743     00DA                     ___fldiv@new_exp:
   744                           
   745                           ; 2 bytes @ 0x3A
   746     00DA                     	ds	2
   747     00DC                     ___fldiv@grs:
   748                           
   749                           ; 4 bytes @ 0x3C
   750     00DC                     	ds	4
   751     00E0                     ___fldiv@bexp:
   752                           
   753                           ; 1 bytes @ 0x40
   754     00E0                     	ds	1
   755     00E1                     ___fldiv@aexp:
   756                           
   757                           ; 1 bytes @ 0x41
   758     00E1                     	ds	1
   759     00E2                     ?___fltol:
   760     00E2                     ___fltol@f1:	
   761                           ; 4 bytes @ 0x42
   762                           
   763                           
   764                           ; 4 bytes @ 0x42
   765     00E2                     	ds	4
   766     00E6                     ??___fltol:
   767                           
   768                           ; 1 bytes @ 0x46
   769     00E6                     	ds	4
   770     00EA                     ___fltol@sign1:
   771                           
   772                           ; 1 bytes @ 0x4A
   773     00EA                     	ds	1
   774     00EB                     ___fltol@exp1:
   775                           
   776                           ; 1 bytes @ 0x4B
   777     00EB                     	ds	1
   778     00EC                     ?_ultrasonic_measure_distance:
   779                           
   780                           ; 2 bytes @ 0x4C
   781     00EC                     	ds	2
   782     00EE                     ??_ultrasonic_measure_distance:
   783                           
   784                           ; 1 bytes @ 0x4E
   785     00EE                     	ds	1
   786                           
   787                           	psect	cstackCOMMON
   788     0070                     __pcstackCOMMON:
   789     0070                     ?_setup:
   790     0070                     ?_I2C_Slave_Init:	
   791                           ; 1 bytes @ 0x0
   792                           
   793     0070                     ?_Lcd_Port:	
   794                           ; 1 bytes @ 0x0
   795                           
   796     0070                     ?_Lcd_Cmd:	
   797                           ; 1 bytes @ 0x0
   798                           
   799     0070                     ?_Lcd_Init:	
   800                           ; 1 bytes @ 0x0
   801                           
   802     0070                     ?_isr:	
   803                           ; 1 bytes @ 0x0
   804                           
   805     0070                     ?_main:	
   806                           ; 1 bytes @ 0x0
   807                           
   808     0070                     ?i1__Umul8_16:	
   809                           ; 1 bytes @ 0x0
   810                           
   811     0070                     ?i1___xxtofl:	
   812                           ; 2 bytes @ 0x0
   813                           
   814     0070                     i1__Umul8_16@multiplicand:	
   815                           ; 4 bytes @ 0x0
   816                           
   817     0070                     i1___xxtofl@val:	
   818                           ; 1 bytes @ 0x0
   819                           
   820                           
   821                           ; 4 bytes @ 0x0
   822     0070                     	ds	2
   823     0072                     ??i1__Umul8_16:
   824                           
   825                           ; 1 bytes @ 0x2
   826     0072                     	ds	2
   827     0074                     ??i1___xxtofl:
   828     0074                     i1__Umul8_16@product:	
   829                           ; 1 bytes @ 0x4
   830                           
   831                           
   832                           ; 2 bytes @ 0x4
   833     0074                     	ds	2
   834     0076                     i1__Umul8_16@word_mpld:
   835                           
   836                           ; 2 bytes @ 0x6
   837     0076                     	ds	2
   838     0078                     i1__Umul8_16@multiplier:
   839     0078                     i1___xxtofl@sign:	
   840                           ; 1 bytes @ 0x8
   841                           
   842                           
   843                           ; 1 bytes @ 0x8
   844     0078                     	ds	1
   845     0079                     i1___xxtofl@exp:
   846                           
   847                           ; 1 bytes @ 0x9
   848     0079                     	ds	1
   849     007A                     i1___xxtofl@arg:
   850                           
   851                           ; 4 bytes @ 0xA
   852     007A                     	ds	4
   853                           
   854                           	psect	cstackBANK0
   855     0020                     __pcstackBANK0:
   856     0020                     ?i1___flmul:
   857     0020                     i1___flmul@b:	
   858                           ; 4 bytes @ 0x0
   859                           
   860                           
   861                           ; 4 bytes @ 0x0
   862     0020                     	ds	4
   863     0024                     i1___flmul@a:
   864                           
   865                           ; 4 bytes @ 0x4
   866     0024                     	ds	4
   867     0028                     ??i1___flmul:
   868                           
   869                           ; 1 bytes @ 0x8
   870     0028                     	ds	5
   871     002D                     i1___flmul@sign:
   872                           
   873                           ; 1 bytes @ 0xD
   874     002D                     	ds	1
   875     002E                     i1___flmul@grs:
   876                           
   877                           ; 4 bytes @ 0xE
   878     002E                     	ds	4
   879     0032                     i1___flmul@aexp:
   880                           
   881                           ; 1 bytes @ 0x12
   882     0032                     	ds	1
   883     0033                     i1___flmul@bexp:
   884                           
   885                           ; 1 bytes @ 0x13
   886     0033                     	ds	1
   887     0034                     i1___flmul@prod:
   888                           
   889                           ; 4 bytes @ 0x14
   890     0034                     	ds	4
   891     0038                     i1___flmul@temp:
   892                           
   893                           ; 2 bytes @ 0x18
   894     0038                     	ds	2
   895     003A                     ?i1___fldiv:
   896     003A                     i1___fldiv@a:	
   897                           ; 4 bytes @ 0x1A
   898                           
   899                           
   900                           ; 4 bytes @ 0x1A
   901     003A                     	ds	4
   902     003E                     i1___fldiv@b:
   903                           
   904                           ; 4 bytes @ 0x1E
   905     003E                     	ds	4
   906     0042                     ??i1___fldiv:
   907                           
   908                           ; 1 bytes @ 0x22
   909     0042                     	ds	5
   910     0047                     i1___fldiv@rem:
   911                           
   912                           ; 4 bytes @ 0x27
   913     0047                     	ds	4
   914     004B                     i1___fldiv@sign:
   915                           
   916                           ; 1 bytes @ 0x2B
   917     004B                     	ds	1
   918     004C                     i1___fldiv@new_exp:
   919                           
   920                           ; 2 bytes @ 0x2C
   921     004C                     	ds	2
   922     004E                     i1___fldiv@grs:
   923                           
   924                           ; 4 bytes @ 0x2E
   925     004E                     	ds	4
   926     0052                     i1___fldiv@bexp:
   927                           
   928                           ; 1 bytes @ 0x32
   929     0052                     	ds	1
   930     0053                     i1___fldiv@aexp:
   931                           
   932                           ; 1 bytes @ 0x33
   933     0053                     	ds	1
   934     0054                     ?i1___fltol:
   935     0054                     i1___fltol@f1:	
   936                           ; 4 bytes @ 0x34
   937                           
   938                           
   939                           ; 4 bytes @ 0x34
   940     0054                     	ds	4
   941     0058                     ??i1___fltol:
   942                           
   943                           ; 1 bytes @ 0x38
   944     0058                     	ds	4
   945     005C                     i1___fltol@sign1:
   946                           
   947                           ; 1 bytes @ 0x3C
   948     005C                     	ds	1
   949     005D                     i1___fltol@exp1:
   950                           
   951                           ; 1 bytes @ 0x3D
   952     005D                     	ds	1
   953     005E                     ?i1_ultrasonic_measure_distance:
   954                           
   955                           ; 2 bytes @ 0x3E
   956     005E                     	ds	2
   957     0060                     ??i1_ultrasonic_measure_distance:
   958                           
   959                           ; 1 bytes @ 0x40
   960     0060                     	ds	1
   961     0061                     i1_ultrasonic_measure_distance$1400:
   962                           
   963                           ; 4 bytes @ 0x41
   964     0061                     	ds	4
   965     0065                     i1ultrasonic_measure_distance@pulse_duration:
   966                           
   967                           ; 2 bytes @ 0x45
   968     0065                     	ds	2
   969     0067                     i1ultrasonic_measure_distance@distance:
   970                           
   971                           ; 2 bytes @ 0x47
   972     0067                     	ds	2
   973     0069                     ??_isr:
   974                           
   975                           ; 1 bytes @ 0x49
   976     0069                     	ds	5
   977                           
   978                           	psect	maintext
   979     0880                     __pmaintext:	
   980 ;;
   981 ;;Main: autosize = 0, tempsize = 3, incstack = 0, save=0
   982 ;;
   983 ;; *************** function _main *****************
   984 ;; Defined at:
   985 ;;		line 93 in file "main.c"
   986 ;; Parameters:    Size  Location     Type
   987 ;;		None
   988 ;; Auto vars:     Size  Location     Type
   989 ;;		None
   990 ;; Return value:  Size  Location     Type
   991 ;;                  1    wreg      void 
   992 ;; Registers used:
   993 ;;		wreg, status,2, status,0, btemp+1, pclath, cstack
   994 ;; Tracked objects:
   995 ;;		On entry : B00/0
   996 ;;		On exit  : 0/0
   997 ;;		Unchanged: 0/0
   998 ;; Data sizes:     COMMON   BANK0   BANK1   BANK3   BANK2
   999 ;;      Params:         0       0       0       0       0
  1000 ;;      Locals:         0       0       0       0       0
  1001 ;;      Temps:          0       0       0       3       0
  1002 ;;      Totals:         0       0       0       3       0
  1003 ;;Total ram usage:        3 bytes
  1004 ;; Hardware stack levels required when called: 7
  1005 ;; This function calls:
  1006 ;;		_Lcd_Init
  1007 ;;		_setup
  1008 ;;		_ultrasonic_measure_distance
  1009 ;; This function is called by:
  1010 ;;		Startup code after reset
  1011 ;; This function uses a non-reentrant model
  1012 ;;
  1013                           
  1014     0880                     _main:	
  1015                           ;psect for function _main
  1016                           
  1017     0880                     l3027:	
  1018                           ;incstack = 0
  1019                           ; Regs used in _main: [wreg+status,2+status,0+btemp+1+pclath+cstack]
  1020                           
  1021                           
  1022                           ;main.c: 94:     setup();
  1023     0880  120A  158A  2019  120A  158A  	fcall	_setup
  1024                           
  1025                           ;main.c: 95:     Lcd_Init();
  1026     0885  120A  158A  20C9  120A  158A  	fcall	_Lcd_Init
  1027     088A                     l3029:
  1028                           
  1029                           ;main.c: 98:             distanceF = ultrasonic_measure_distance();
  1030     088A  120A  118A  26BB  120A  158A  	fcall	_ultrasonic_measure_distance
  1031     088F  1683               	bsf	3,5	;RP0=1, select bank1
  1032     0890  1303               	bcf	3,6	;RP1=0, select bank1
  1033     0891  086D               	movf	(?_ultrasonic_measure_distance+1)^(0+128),w
  1034     0892  1683               	bsf	3,5	;RP0=1, select bank3
  1035     0893  1703               	bsf	3,6	;RP1=1, select bank3
  1036     0894  00C7               	movwf	(_distanceF+1)^(0+384)
  1037     0895  1683               	bsf	3,5	;RP0=1, select bank1
  1038     0896  1303               	bcf	3,6	;RP1=0, select bank1
  1039     0897  086C               	movf	?_ultrasonic_measure_distance^(0+128),w
  1040     0898  1683               	bsf	3,5	;RP0=1, select bank3
  1041     0899  1703               	bsf	3,6	;RP1=1, select bank3
  1042     089A  00C6               	movwf	_distanceF^(0+384)
  1043     089B                     l3031:
  1044                           
  1045                           ;main.c: 100:             PORTD = distanceF;
  1046     089B  0846               	movf	_distanceF^(0+384),w
  1047     089C  1283               	bcf	3,5	;RP0=0, select bank0
  1048     089D  1303               	bcf	3,6	;RP1=0, select bank0
  1049     089E  0088               	movwf	8	;volatile
  1050                           
  1051                           ;main.c: 102:             if(distanceF < 15) {
  1052     089F  1683               	bsf	3,5	;RP0=1, select bank3
  1053     08A0  1703               	bsf	3,6	;RP1=1, select bank3
  1054     08A1  0847               	movf	(_distanceF+1)^(0+384),w
  1055     08A2  3A80               	xorlw	128
  1056     08A3  00FF               	movwf	btemp+1
  1057     08A4  3080               	movlw	128
  1058     08A5  027F               	subwf	btemp+1,w
  1059     08A6  1D03               	skipz
  1060     08A7  28AA               	goto	u4545
  1061     08A8  300F               	movlw	15
  1062     08A9  0246               	subwf	_distanceF^(0+384),w
  1063     08AA                     u4545:
  1064     08AA  1803               	skipnc
  1065     08AB  28AD               	goto	u4541
  1066     08AC  28AE               	goto	u4540
  1067     08AD                     u4541:
  1068     08AD  28B3               	goto	l261
  1069     08AE                     u4540:
  1070     08AE                     l3033:
  1071                           
  1072                           ;main.c: 103:                 PORTDbits.RD2 = 1;
  1073     08AE  1283               	bcf	3,5	;RP0=0, select bank0
  1074     08AF  1303               	bcf	3,6	;RP1=0, select bank0
  1075     08B0  1508               	bsf	8,2	;volatile
  1076                           
  1077                           ;main.c: 104:                 PORTDbits.RD3 = 0;
  1078     08B1  1188               	bcf	8,3	;volatile
  1079                           
  1080                           ;main.c: 105:             }
  1081     08B2  28B7               	goto	l3035
  1082     08B3                     l261:	
  1083                           ;main.c: 106:             else{
  1084                           
  1085                           
  1086                           ;main.c: 107:                 PORTDbits.RD2 = 0;
  1087     08B3  1283               	bcf	3,5	;RP0=0, select bank0
  1088     08B4  1303               	bcf	3,6	;RP1=0, select bank0
  1089     08B5  1108               	bcf	8,2	;volatile
  1090                           
  1091                           ;main.c: 108:                 PORTDbits.RD3 = 1;
  1092     08B6  1588               	bsf	8,3	;volatile
  1093     08B7                     l3035:
  1094                           
  1095                           ;main.c: 110:             _delay((unsigned long)((1500)*(8000000/4000.0)));
  1096     08B7  3010               	movlw	16
  1097     08B8  1683               	bsf	3,5	;RP0=1, select bank3
  1098     08B9  1703               	bsf	3,6	;RP1=1, select bank3
  1099     08BA  00D2               	movwf	(??_main^(0+384)+2)
  1100     08BB  3039               	movlw	57
  1101     08BC  00D1               	movwf	(??_main^(0+384)+1)
  1102     08BD  300D               	movlw	13
  1103     08BE  00D0               	movwf	??_main^(0+384)
  1104     08BF                     u4557:
  1105     08BF  0BD0               	decfsz	??_main^(0+384),f
  1106     08C0  28BF               	goto	u4557
  1107     08C1  0BD1               	decfsz	(??_main^(0+384)+1),f
  1108     08C2  28BF               	goto	u4557
  1109     08C3  0BD2               	decfsz	(??_main^(0+384)+2),f
  1110     08C4  28BF               	goto	u4557
  1111     08C5  288A               	goto	l3029
  1112     08C6  120A  118A  2810   	ljmp	start
  1113     08C9                     __end_of_main:
  1114                           
  1115                           	psect	text1
  1116     06BB                     __ptext1:	
  1117 ;; *************** function _ultrasonic_measure_distance *****************
  1118 ;; Defined at:
  1119 ;;		line 159 in file "main.c"
  1120 ;; Parameters:    Size  Location     Type
  1121 ;;		None
  1122 ;; Auto vars:     Size  Location     Type
  1123 ;;  distance        2    6[BANK3 ] int 
  1124 ;;  pulse_durati    2    4[BANK3 ] unsigned int 
  1125 ;; Return value:  Size  Location     Type
  1126 ;;                  2   76[BANK1 ] int 
  1127 ;; Registers used:
  1128 ;;		wreg, status,2, status,0, btemp+1, pclath, cstack
  1129 ;; Tracked objects:
  1130 ;;		On entry : 0/0
  1131 ;;		On exit  : 0/0
  1132 ;;		Unchanged: 0/0
  1133 ;; Data sizes:     COMMON   BANK0   BANK1   BANK3   BANK2
  1134 ;;      Params:         0       0       2       0       0
  1135 ;;      Locals:         0       0       0       8       0
  1136 ;;      Temps:          0       0       1       0       0
  1137 ;;      Totals:         0       0       3       8       0
  1138 ;;Total ram usage:       11 bytes
  1139 ;; Hardware stack levels used: 1
  1140 ;; Hardware stack levels required when called: 6
  1141 ;; This function calls:
  1142 ;;		___fldiv
  1143 ;;		___flmul
  1144 ;;		___fltol
  1145 ;;		___xxtofl
  1146 ;; This function is called by:
  1147 ;;		_main
  1148 ;; This function uses a non-reentrant model
  1149 ;;
  1150                           
  1151     06BB                     _ultrasonic_measure_distance:	
  1152                           ;psect for function _ultrasonic_measure_distance
  1153                           
  1154     06BB                     l2795:	
  1155                           ;incstack = 0
  1156                           ; Regs used in _ultrasonic_measure_distance: [wreg+status,2+status,0+btemp+1+pclath+csta
      +                          ck]
  1157                           
  1158                           
  1159                           ;main.c: 160:     uint16_t pulse_duration;;main.c: 161:     int distance;;main.c: 164:  
      +                             RA0 = 1;
  1160     06BB  1283               	bcf	3,5	;RP0=0, select bank0
  1161     06BC  1303               	bcf	3,6	;RP1=0, select bank0
  1162     06BD  1405               	bsf	5,0	;volatile
  1163     06BE                     l2797:
  1164                           
  1165                           ;main.c: 165:     _delay((unsigned long)((10)*(8000000/4000000.0)));
  1166     06BE  3005               	movlw	5
  1167     06BF  1683               	bsf	3,5	;RP0=1, select bank1
  1168     06C0  1303               	bcf	3,6	;RP1=0, select bank1
  1169     06C1  00EE               	movwf	??_ultrasonic_measure_distance^(0+128)
  1170     06C2                     u4567:
  1171     06C2  0BEE               	decfsz	??_ultrasonic_measure_distance^(0+128),f
  1172     06C3  2EC2               	goto	u4567
  1173     06C4  2EC5               	nop2
  1174     06C5                     l2799:
  1175                           
  1176                           ;main.c: 166:     RA0 = 0;
  1177     06C5  1283               	bcf	3,5	;RP0=0, select bank0
  1178     06C6  1303               	bcf	3,6	;RP1=0, select bank0
  1179     06C7  1005               	bcf	5,0	;volatile
  1180     06C8                     l271:	
  1181                           ;main.c: 168:     while (RA1 == 0);
  1182                           
  1183     06C8  1C85               	btfss	5,1	;volatile
  1184     06C9  2ECB               	goto	u4221
  1185     06CA  2ECC               	goto	u4220
  1186     06CB                     u4221:
  1187     06CB  2EC8               	goto	l271
  1188     06CC                     u4220:
  1189     06CC                     l2801:
  1190                           
  1191                           ;main.c: 170:     TMR1L = 0x00;
  1192     06CC  018E               	clrf	14	;volatile
  1193                           
  1194                           ;main.c: 171:     TMR1H = 0X00;
  1195     06CD  018F               	clrf	15	;volatile
  1196     06CE                     l2803:
  1197                           
  1198                           ;main.c: 173:     T1CONbits.TMR1ON = 1;
  1199     06CE  1410               	bsf	16,0	;volatile
  1200     06CF                     l274:	
  1201                           ;main.c: 174:     while (RA1 == 1);
  1202                           
  1203     06CF  1885               	btfsc	5,1	;volatile
  1204     06D0  2ED2               	goto	u4231
  1205     06D1  2ED3               	goto	u4230
  1206     06D2                     u4231:
  1207     06D2  2ECF               	goto	l274
  1208     06D3                     u4230:
  1209     06D3                     l2805:
  1210                           
  1211                           ;main.c: 175:     pulse_duration = (TMR1H << 8) + TMR1L;
  1212     06D3  080F               	movf	15,w	;volatile
  1213     06D4  1683               	bsf	3,5	;RP0=1, select bank3
  1214     06D5  1703               	bsf	3,6	;RP1=1, select bank3
  1215     06D6  00CD               	movwf	(ultrasonic_measure_distance@pulse_duration+1)^(0+384)
  1216     06D7  1283               	bcf	3,5	;RP0=0, select bank0
  1217     06D8  1303               	bcf	3,6	;RP1=0, select bank0
  1218     06D9  080E               	movf	14,w	;volatile
  1219     06DA  1683               	bsf	3,5	;RP0=1, select bank3
  1220     06DB  1703               	bsf	3,6	;RP1=1, select bank3
  1221     06DC  00CC               	movwf	ultrasonic_measure_distance@pulse_duration^(0+384)
  1222     06DD                     l2807:
  1223                           
  1224                           ;main.c: 176:     T1CONbits.TMR1ON = 0;
  1225     06DD  1283               	bcf	3,5	;RP0=0, select bank0
  1226     06DE  1303               	bcf	3,6	;RP1=0, select bank0
  1227     06DF  1010               	bcf	16,0	;volatile
  1228     06E0                     l2809:
  1229                           
  1230                           ;main.c: 177:     distance = (pulse_duration*0.5*1)/58;
  1231     06E0  1683               	bsf	3,5	;RP0=1, select bank3
  1232     06E1  1703               	bsf	3,6	;RP1=1, select bank3
  1233     06E2  084C               	movf	ultrasonic_measure_distance@pulse_duration^(0+384),w
  1234     06E3  1683               	bsf	3,5	;RP0=1, select bank1
  1235     06E4  1303               	bcf	3,6	;RP1=0, select bank1
  1236     06E5  00A0               	movwf	___xxtofl@val^(0+128)
  1237     06E6  1683               	bsf	3,5	;RP0=1, select bank3
  1238     06E7  1703               	bsf	3,6	;RP1=1, select bank3
  1239     06E8  084D               	movf	(ultrasonic_measure_distance@pulse_duration+1)^(0+384),w
  1240     06E9  1683               	bsf	3,5	;RP0=1, select bank1
  1241     06EA  1303               	bcf	3,6	;RP1=0, select bank1
  1242     06EB  00A1               	movwf	(___xxtofl@val^(0+128)+1)
  1243     06EC  01A2               	clrf	(___xxtofl@val^(0+128)+2)
  1244     06ED  01A3               	clrf	(___xxtofl@val^(0+128)+3)
  1245     06EE  3000               	movlw	0
  1246     06EF  120A  158A  23A0  120A  118A  	fcall	___xxtofl
  1247     06F4  1683               	bsf	3,5	;RP0=1, select bank1
  1248     06F5  1303               	bcf	3,6	;RP1=0, select bank1
  1249     06F6  0823               	movf	(?___xxtofl+3)^(0+128),w
  1250     06F7  00B5               	movwf	(___flmul@a+3)^(0+128)
  1251     06F8  0822               	movf	(?___xxtofl+2)^(0+128),w
  1252     06F9  00B4               	movwf	(___flmul@a+2)^(0+128)
  1253     06FA  0821               	movf	(?___xxtofl+1)^(0+128),w
  1254     06FB  00B3               	movwf	(___flmul@a+1)^(0+128)
  1255     06FC  0820               	movf	?___xxtofl^(0+128),w
  1256     06FD  00B2               	movwf	___flmul@a^(0+128)
  1257     06FE  303F               	movlw	63
  1258     06FF  00B1               	movwf	(___flmul@b+3)^(0+128)
  1259     0700  3000               	movlw	0
  1260     0701  00B0               	movwf	(___flmul@b+2)^(0+128)
  1261     0702  3000               	movlw	0
  1262     0703  00AF               	movwf	(___flmul@b+1)^(0+128)
  1263     0704  3000               	movlw	0
  1264     0705  00AE               	movwf	___flmul@b^(0+128)
  1265     0706  120A  118A  2031  120A  118A  	fcall	___flmul
  1266     070B  1683               	bsf	3,5	;RP0=1, select bank1
  1267     070C  1303               	bcf	3,6	;RP1=0, select bank1
  1268     070D  0831               	movf	(?___flmul+3)^(0+128),w
  1269     070E  1683               	bsf	3,5	;RP0=1, select bank3
  1270     070F  1703               	bsf	3,6	;RP1=1, select bank3
  1271     0710  00CB               	movwf	(_ultrasonic_measure_distance$1310+3)^(0+384)
  1272     0711  1683               	bsf	3,5	;RP0=1, select bank1
  1273     0712  1303               	bcf	3,6	;RP1=0, select bank1
  1274     0713  0830               	movf	(?___flmul+2)^(0+128),w
  1275     0714  1683               	bsf	3,5	;RP0=1, select bank3
  1276     0715  1703               	bsf	3,6	;RP1=1, select bank3
  1277     0716  00CA               	movwf	(_ultrasonic_measure_distance$1310+2)^(0+384)
  1278     0717  1683               	bsf	3,5	;RP0=1, select bank1
  1279     0718  1303               	bcf	3,6	;RP1=0, select bank1
  1280     0719  082F               	movf	(?___flmul+1)^(0+128),w
  1281     071A  1683               	bsf	3,5	;RP0=1, select bank3
  1282     071B  1703               	bsf	3,6	;RP1=1, select bank3
  1283     071C  00C9               	movwf	(_ultrasonic_measure_distance$1310+1)^(0+384)
  1284     071D  1683               	bsf	3,5	;RP0=1, select bank1
  1285     071E  1303               	bcf	3,6	;RP1=0, select bank1
  1286     071F  082E               	movf	?___flmul^(0+128),w
  1287     0720  1683               	bsf	3,5	;RP0=1, select bank3
  1288     0721  1703               	bsf	3,6	;RP1=1, select bank3
  1289     0722  00C8               	movwf	_ultrasonic_measure_distance$1310^(0+384)
  1290     0723                     l2811:
  1291                           
  1292                           ;main.c: 177:     distance = (pulse_duration*0.5*1)/58;
  1293     0723  084B               	movf	(_ultrasonic_measure_distance$1310+3)^(0+384),w
  1294     0724  1683               	bsf	3,5	;RP0=1, select bank1
  1295     0725  1303               	bcf	3,6	;RP1=0, select bank1
  1296     0726  00B5               	movwf	(___flmul@a+3)^(0+128)
  1297     0727  1683               	bsf	3,5	;RP0=1, select bank3
  1298     0728  1703               	bsf	3,6	;RP1=1, select bank3
  1299     0729  084A               	movf	(_ultrasonic_measure_distance$1310+2)^(0+384),w
  1300     072A  1683               	bsf	3,5	;RP0=1, select bank1
  1301     072B  1303               	bcf	3,6	;RP1=0, select bank1
  1302     072C  00B4               	movwf	(___flmul@a+2)^(0+128)
  1303     072D  1683               	bsf	3,5	;RP0=1, select bank3
  1304     072E  1703               	bsf	3,6	;RP1=1, select bank3
  1305     072F  0849               	movf	(_ultrasonic_measure_distance$1310+1)^(0+384),w
  1306     0730  1683               	bsf	3,5	;RP0=1, select bank1
  1307     0731  1303               	bcf	3,6	;RP1=0, select bank1
  1308     0732  00B3               	movwf	(___flmul@a+1)^(0+128)
  1309     0733  1683               	bsf	3,5	;RP0=1, select bank3
  1310     0734  1703               	bsf	3,6	;RP1=1, select bank3
  1311     0735  0848               	movf	_ultrasonic_measure_distance$1310^(0+384),w
  1312     0736  1683               	bsf	3,5	;RP0=1, select bank1
  1313     0737  1303               	bcf	3,6	;RP1=0, select bank1
  1314     0738  00B2               	movwf	___flmul@a^(0+128)
  1315     0739  303F               	movlw	63
  1316     073A  00B1               	movwf	(___flmul@b+3)^(0+128)
  1317     073B  3080               	movlw	128
  1318     073C  00B0               	movwf	(___flmul@b+2)^(0+128)
  1319     073D  3000               	movlw	0
  1320     073E  00AF               	movwf	(___flmul@b+1)^(0+128)
  1321     073F  3000               	movlw	0
  1322     0740  00AE               	movwf	___flmul@b^(0+128)
  1323     0741  120A  118A  2031  120A  118A  	fcall	___flmul
  1324     0746  1683               	bsf	3,5	;RP0=1, select bank1
  1325     0747  1303               	bcf	3,6	;RP1=0, select bank1
  1326     0748  0831               	movf	(?___flmul+3)^(0+128),w
  1327     0749  00CF               	movwf	(___fldiv@b+3)^(0+128)
  1328     074A  0830               	movf	(?___flmul+2)^(0+128),w
  1329     074B  00CE               	movwf	(___fldiv@b+2)^(0+128)
  1330     074C  082F               	movf	(?___flmul+1)^(0+128),w
  1331     074D  00CD               	movwf	(___fldiv@b+1)^(0+128)
  1332     074E  082E               	movf	?___flmul^(0+128),w
  1333     074F  00CC               	movwf	___fldiv@b^(0+128)
  1334     0750  3042               	movlw	66
  1335     0751  00CB               	movwf	(___fldiv@a+3)^(0+128)
  1336     0752  3068               	movlw	104
  1337     0753  00CA               	movwf	(___fldiv@a+2)^(0+128)
  1338     0754  3000               	movlw	0
  1339     0755  00C9               	movwf	(___fldiv@a+1)^(0+128)
  1340     0756  3000               	movlw	0
  1341     0757  00C8               	movwf	___fldiv@a^(0+128)
  1342     0758  120A  158A  262D  120A  118A  	fcall	___fldiv
  1343     075D  1683               	bsf	3,5	;RP0=1, select bank1
  1344     075E  1303               	bcf	3,6	;RP1=0, select bank1
  1345     075F  084B               	movf	(?___fldiv+3)^(0+128),w
  1346     0760  00E5               	movwf	(___fltol@f1+3)^(0+128)
  1347     0761  084A               	movf	(?___fldiv+2)^(0+128),w
  1348     0762  00E4               	movwf	(___fltol@f1+2)^(0+128)
  1349     0763  0849               	movf	(?___fldiv+1)^(0+128),w
  1350     0764  00E3               	movwf	(___fltol@f1+1)^(0+128)
  1351     0765  0848               	movf	?___fldiv^(0+128),w
  1352     0766  00E2               	movwf	___fltol@f1^(0+128)
  1353     0767  120A  118A  2783  120A  118A  	fcall	___fltol
  1354     076C  1683               	bsf	3,5	;RP0=1, select bank1
  1355     076D  1303               	bcf	3,6	;RP1=0, select bank1
  1356     076E  0863               	movf	(?___fltol+1)^(0+128),w
  1357     076F  1683               	bsf	3,5	;RP0=1, select bank3
  1358     0770  1703               	bsf	3,6	;RP1=1, select bank3
  1359     0771  00CF               	movwf	(ultrasonic_measure_distance@distance+1)^(0+384)
  1360     0772  1683               	bsf	3,5	;RP0=1, select bank1
  1361     0773  1303               	bcf	3,6	;RP1=0, select bank1
  1362     0774  0862               	movf	?___fltol^(0+128),w
  1363     0775  1683               	bsf	3,5	;RP0=1, select bank3
  1364     0776  1703               	bsf	3,6	;RP1=1, select bank3
  1365     0777  00CE               	movwf	ultrasonic_measure_distance@distance^(0+384)
  1366                           
  1367                           ;main.c: 179:     return distance;
  1368     0778  084F               	movf	(ultrasonic_measure_distance@distance+1)^(0+384),w
  1369     0779  1683               	bsf	3,5	;RP0=1, select bank1
  1370     077A  1303               	bcf	3,6	;RP1=0, select bank1
  1371     077B  00ED               	movwf	(?_ultrasonic_measure_distance+1)^(0+128)
  1372     077C  1683               	bsf	3,5	;RP0=1, select bank3
  1373     077D  1703               	bsf	3,6	;RP1=1, select bank3
  1374     077E  084E               	movf	ultrasonic_measure_distance@distance^(0+384),w
  1375     077F  1683               	bsf	3,5	;RP0=1, select bank1
  1376     0780  1303               	bcf	3,6	;RP1=0, select bank1
  1377     0781  00EC               	movwf	?_ultrasonic_measure_distance^(0+128)
  1378     0782                     l277:
  1379     0782  0008               	return
  1380     0783                     __end_of_ultrasonic_measure_distance:
  1381                           
  1382                           	psect	text2
  1383     0BA0                     __ptext2:	
  1384 ;; *************** function ___xxtofl *****************
  1385 ;; Defined at:
  1386 ;;		line 10 in file "C:\Program Files\Microchip\xc8\v2.40\pic\sources\c90\common\xxtofl.c"
  1387 ;; Parameters:    Size  Location     Type
  1388 ;;  sign            1    wreg     unsigned char 
  1389 ;;  val             4    0[BANK1 ] long 
  1390 ;; Auto vars:     Size  Location     Type
  1391 ;;  sign            1    8[BANK1 ] unsigned char 
  1392 ;;  arg             4   10[BANK1 ] unsigned long 
  1393 ;;  exp             1    9[BANK1 ] unsigned char 
  1394 ;; Return value:  Size  Location     Type
  1395 ;;                  4    0[BANK1 ] unsigned char 
  1396 ;; Registers used:
  1397 ;;		wreg, status,2, status,0
  1398 ;; Tracked objects:
  1399 ;;		On entry : 0/0
  1400 ;;		On exit  : 0/0
  1401 ;;		Unchanged: 0/0
  1402 ;; Data sizes:     COMMON   BANK0   BANK1   BANK3   BANK2
  1403 ;;      Params:         0       0       4       0       0
  1404 ;;      Locals:         0       0       6       0       0
  1405 ;;      Temps:          0       0       4       0       0
  1406 ;;      Totals:         0       0      14       0       0
  1407 ;;Total ram usage:       14 bytes
  1408 ;; Hardware stack levels used: 1
  1409 ;; Hardware stack levels required when called: 4
  1410 ;; This function calls:
  1411 ;;		Nothing
  1412 ;; This function is called by:
  1413 ;;		_ultrasonic_measure_distance
  1414 ;;		_floattostr
  1415 ;; This function uses a non-reentrant model
  1416 ;;
  1417                           
  1418     0BA0                     ___xxtofl:	
  1419                           ;psect for function ___xxtofl
  1420                           
  1421                           
  1422                           ;incstack = 0
  1423                           ; Regs used in ___xxtofl: [wreg+status,2+status,0]
  1424                           ;___xxtofl@sign stored from wreg
  1425     0BA0  1683               	bsf	3,5	;RP0=1, select bank1
  1426     0BA1  1303               	bcf	3,6	;RP1=0, select bank1
  1427     0BA2  00A8               	movwf	___xxtofl@sign^(0+128)
  1428     0BA3                     l2357:
  1429     0BA3  0828               	movf	___xxtofl@sign^(0+128),w
  1430     0BA4  1903               	btfsc	3,2
  1431     0BA5  2BA7               	goto	u3171
  1432     0BA6  2BA8               	goto	u3170
  1433     0BA7                     u3171:
  1434     0BA7  2BBC               	goto	l2363
  1435     0BA8                     u3170:
  1436     0BA8                     l2359:
  1437     0BA8  1FA3               	btfss	(___xxtofl@val+3)^(0+128),7
  1438     0BA9  2BAB               	goto	u3181
  1439     0BAA  2BAC               	goto	u3180
  1440     0BAB                     u3181:
  1441     0BAB  2BBC               	goto	l2363
  1442     0BAC                     u3180:
  1443     0BAC                     l2361:
  1444     0BAC  0920               	comf	___xxtofl@val^(0+128),w
  1445     0BAD  00AA               	movwf	___xxtofl@arg^(0+128)
  1446     0BAE  0921               	comf	(___xxtofl@val^(0+128)+1),w
  1447     0BAF  00AB               	movwf	(___xxtofl@arg+1)^(0+128)
  1448     0BB0  0922               	comf	(___xxtofl@val^(0+128)+2),w
  1449     0BB1  00AC               	movwf	(___xxtofl@arg+2)^(0+128)
  1450     0BB2  0923               	comf	(___xxtofl@val^(0+128)+3),w
  1451     0BB3  00AD               	movwf	(___xxtofl@arg+3)^(0+128)
  1452     0BB4  0AAA               	incf	___xxtofl@arg^(0+128),f
  1453     0BB5  1903               	skipnz
  1454     0BB6  0AAB               	incf	(___xxtofl@arg+1)^(0+128),f
  1455     0BB7  1903               	skipnz
  1456     0BB8  0AAC               	incf	(___xxtofl@arg+2)^(0+128),f
  1457     0BB9  1903               	skipnz
  1458     0BBA  0AAD               	incf	(___xxtofl@arg+3)^(0+128),f
  1459     0BBB  2BC4               	goto	l796
  1460     0BBC                     l2363:
  1461     0BBC  0823               	movf	(___xxtofl@val+3)^(0+128),w
  1462     0BBD  00AD               	movwf	(___xxtofl@arg+3)^(0+128)
  1463     0BBE  0822               	movf	(___xxtofl@val+2)^(0+128),w
  1464     0BBF  00AC               	movwf	(___xxtofl@arg+2)^(0+128)
  1465     0BC0  0821               	movf	(___xxtofl@val+1)^(0+128),w
  1466     0BC1  00AB               	movwf	(___xxtofl@arg+1)^(0+128)
  1467     0BC2  0820               	movf	___xxtofl@val^(0+128),w
  1468     0BC3  00AA               	movwf	___xxtofl@arg^(0+128)
  1469     0BC4                     l796:
  1470     0BC4  0823               	movf	(___xxtofl@val+3)^(0+128),w
  1471     0BC5  0422               	iorwf	(___xxtofl@val+2)^(0+128),w
  1472     0BC6  0421               	iorwf	(___xxtofl@val+1)^(0+128),w
  1473     0BC7  0420               	iorwf	___xxtofl@val^(0+128),w
  1474     0BC8  1D03               	skipz
  1475     0BC9  2BCB               	goto	u3191
  1476     0BCA  2BCC               	goto	u3190
  1477     0BCB                     u3191:
  1478     0BCB  2BD5               	goto	l2369
  1479     0BCC                     u3190:
  1480     0BCC                     l2365:
  1481     0BCC  3000               	movlw	0
  1482     0BCD  00A3               	movwf	(?___xxtofl+3)^(0+128)
  1483     0BCE  3000               	movlw	0
  1484     0BCF  00A2               	movwf	(?___xxtofl+2)^(0+128)
  1485     0BD0  3000               	movlw	0
  1486     0BD1  00A1               	movwf	(?___xxtofl+1)^(0+128)
  1487     0BD2  3000               	movlw	0
  1488     0BD3  00A0               	movwf	?___xxtofl^(0+128)
  1489     0BD4  2C59               	goto	l798
  1490     0BD5                     l2369:
  1491     0BD5  3096               	movlw	150
  1492     0BD6  00A9               	movwf	___xxtofl@exp^(0+128)
  1493     0BD7  2BE5               	goto	l2373
  1494     0BD8                     l2371:
  1495     0BD8  3001               	movlw	1
  1496     0BD9  00A4               	movwf	??___xxtofl^(0+128)
  1497     0BDA  0824               	movf	??___xxtofl^(0+128),w
  1498     0BDB  07A9               	addwf	___xxtofl@exp^(0+128),f
  1499     0BDC  3001               	movlw	1
  1500     0BDD                     u3205:
  1501     0BDD  1003               	clrc
  1502     0BDE  0CAD               	rrf	(___xxtofl@arg+3)^(0+128),f
  1503     0BDF  0CAC               	rrf	(___xxtofl@arg+2)^(0+128),f
  1504     0BE0  0CAB               	rrf	(___xxtofl@arg+1)^(0+128),f
  1505     0BE1  0CAA               	rrf	___xxtofl@arg^(0+128),f
  1506     0BE2  3EFF               	addlw	-1
  1507     0BE3  1D03               	skipz
  1508     0BE4  2BDD               	goto	u3205
  1509     0BE5                     l2373:
  1510     0BE5  30FE               	movlw	254
  1511     0BE6  052D               	andwf	(___xxtofl@arg+3)^(0+128),w
  1512     0BE7  1D03               	btfss	3,2
  1513     0BE8  2BEA               	goto	u3211
  1514     0BE9  2BEB               	goto	u3210
  1515     0BEA                     u3211:
  1516     0BEA  2BD8               	goto	l2371
  1517     0BEB                     u3210:
  1518     0BEB  2C07               	goto	l802
  1519     0BEC                     l2375:
  1520     0BEC  3001               	movlw	1
  1521     0BED  00A4               	movwf	??___xxtofl^(0+128)
  1522     0BEE  0824               	movf	??___xxtofl^(0+128),w
  1523     0BEF  07A9               	addwf	___xxtofl@exp^(0+128),f
  1524     0BF0                     l2377:
  1525     0BF0  3001               	movlw	1
  1526     0BF1  07AA               	addwf	___xxtofl@arg^(0+128),f
  1527     0BF2  3000               	movlw	0
  1528     0BF3  1803               	skipnc
  1529     0BF4  3001               	movlw	1
  1530     0BF5  07AB               	addwf	(___xxtofl@arg+1)^(0+128),f
  1531     0BF6  3000               	movlw	0
  1532     0BF7  1803               	skipnc
  1533     0BF8  3001               	movlw	1
  1534     0BF9  07AC               	addwf	(___xxtofl@arg+2)^(0+128),f
  1535     0BFA  3000               	movlw	0
  1536     0BFB  1803               	skipnc
  1537     0BFC  3001               	movlw	1
  1538     0BFD  07AD               	addwf	(___xxtofl@arg+3)^(0+128),f
  1539     0BFE                     l2379:
  1540     0BFE  3001               	movlw	1
  1541     0BFF                     u3225:
  1542     0BFF  1003               	clrc
  1543     0C00  0CAD               	rrf	(___xxtofl@arg+3)^(0+128),f
  1544     0C01  0CAC               	rrf	(___xxtofl@arg+2)^(0+128),f
  1545     0C02  0CAB               	rrf	(___xxtofl@arg+1)^(0+128),f
  1546     0C03  0CAA               	rrf	___xxtofl@arg^(0+128),f
  1547     0C04  3EFF               	addlw	-1
  1548     0C05  1D03               	skipz
  1549     0C06  2BFF               	goto	u3225
  1550     0C07                     l802:
  1551     0C07  30FF               	movlw	255
  1552     0C08  052D               	andwf	(___xxtofl@arg+3)^(0+128),w
  1553     0C09  1D03               	btfss	3,2
  1554     0C0A  2C0C               	goto	u3231
  1555     0C0B  2C0D               	goto	u3230
  1556     0C0C                     u3231:
  1557     0C0C  2BEC               	goto	l2375
  1558     0C0D                     u3230:
  1559     0C0D  2C19               	goto	l2383
  1560     0C0E                     l2381:
  1561     0C0E  3001               	movlw	1
  1562     0C0F  02A9               	subwf	___xxtofl@exp^(0+128),f
  1563     0C10  3001               	movlw	1
  1564     0C11  00A4               	movwf	??___xxtofl^(0+128)
  1565     0C12                     u3245:
  1566     0C12  1003               	clrc
  1567     0C13  0DAA               	rlf	___xxtofl@arg^(0+128),f
  1568     0C14  0DAB               	rlf	(___xxtofl@arg+1)^(0+128),f
  1569     0C15  0DAC               	rlf	(___xxtofl@arg+2)^(0+128),f
  1570     0C16  0DAD               	rlf	(___xxtofl@arg+3)^(0+128),f
  1571     0C17  0BA4               	decfsz	??___xxtofl^(0+128),f
  1572     0C18  2C12               	goto	u3245
  1573     0C19                     l2383:
  1574     0C19  1BAC               	btfsc	(___xxtofl@arg+2)^(0+128),7
  1575     0C1A  2C1C               	goto	u3251
  1576     0C1B  2C1D               	goto	u3250
  1577     0C1C                     u3251:
  1578     0C1C  2C23               	goto	l809
  1579     0C1D                     u3250:
  1580     0C1D                     l2385:
  1581     0C1D  3002               	movlw	2
  1582     0C1E  0229               	subwf	___xxtofl@exp^(0+128),w
  1583     0C1F  1803               	skipnc
  1584     0C20  2C22               	goto	u3261
  1585     0C21  2C23               	goto	u3260
  1586     0C22                     u3261:
  1587     0C22  2C0E               	goto	l2381
  1588     0C23                     u3260:
  1589     0C23                     l809:
  1590     0C23  1829               	btfsc	___xxtofl@exp^(0+128),0
  1591     0C24  2C26               	goto	u3271
  1592     0C25  2C27               	goto	u3270
  1593     0C26                     u3271:
  1594     0C26  2C2F               	goto	l810
  1595     0C27                     u3270:
  1596     0C27                     l2387:
  1597     0C27  30FF               	movlw	255
  1598     0C28  05AA               	andwf	___xxtofl@arg^(0+128),f
  1599     0C29  30FF               	movlw	255
  1600     0C2A  05AB               	andwf	(___xxtofl@arg+1)^(0+128),f
  1601     0C2B  307F               	movlw	127
  1602     0C2C  05AC               	andwf	(___xxtofl@arg+2)^(0+128),f
  1603     0C2D  30FF               	movlw	255
  1604     0C2E  05AD               	andwf	(___xxtofl@arg+3)^(0+128),f
  1605     0C2F                     l810:
  1606     0C2F  1003               	clrc
  1607     0C30  0CA9               	rrf	___xxtofl@exp^(0+128),f
  1608     0C31                     l2389:
  1609     0C31  0829               	movf	___xxtofl@exp^(0+128),w
  1610     0C32  00A4               	movwf	??___xxtofl^(0+128)
  1611     0C33  01A5               	clrf	(??___xxtofl^(0+128)+1)
  1612     0C34  01A6               	clrf	(??___xxtofl^(0+128)+2)
  1613     0C35  01A7               	clrf	(??___xxtofl^(0+128)+3)
  1614     0C36  3018               	movlw	24
  1615     0C37                     u3285:
  1616     0C37  1003               	clrc
  1617     0C38  0DA4               	rlf	??___xxtofl^(0+128),f
  1618     0C39  0DA5               	rlf	(??___xxtofl^(0+128)+1),f
  1619     0C3A  0DA6               	rlf	(??___xxtofl^(0+128)+2),f
  1620     0C3B  0DA7               	rlf	(??___xxtofl^(0+128)+3),f
  1621     0C3C                     u3280:
  1622     0C3C  3EFF               	addlw	-1
  1623     0C3D  1D03               	skipz
  1624     0C3E  2C37               	goto	u3285
  1625     0C3F  0824               	movf	??___xxtofl^(0+128),w
  1626     0C40  04AA               	iorwf	___xxtofl@arg^(0+128),f
  1627     0C41  0825               	movf	(??___xxtofl+1)^(0+128),w
  1628     0C42  04AB               	iorwf	(___xxtofl@arg+1)^(0+128),f
  1629     0C43  0826               	movf	(??___xxtofl+2)^(0+128),w
  1630     0C44  04AC               	iorwf	(___xxtofl@arg+2)^(0+128),f
  1631     0C45  0827               	movf	(??___xxtofl+3)^(0+128),w
  1632     0C46  04AD               	iorwf	(___xxtofl@arg+3)^(0+128),f
  1633     0C47                     l2391:
  1634     0C47  0828               	movf	___xxtofl@sign^(0+128),w
  1635     0C48  1903               	btfsc	3,2
  1636     0C49  2C4B               	goto	u3291
  1637     0C4A  2C4C               	goto	u3290
  1638     0C4B                     u3291:
  1639     0C4B  2C51               	goto	l2397
  1640     0C4C                     u3290:
  1641     0C4C                     l2393:
  1642     0C4C  1FA3               	btfss	(___xxtofl@val+3)^(0+128),7
  1643     0C4D  2C4F               	goto	u3301
  1644     0C4E  2C50               	goto	u3300
  1645     0C4F                     u3301:
  1646     0C4F  2C51               	goto	l2397
  1647     0C50                     u3300:
  1648     0C50                     l2395:
  1649     0C50  17AD               	bsf	(___xxtofl@arg^(0+128)+3),7
  1650     0C51                     l2397:
  1651     0C51  082D               	movf	(___xxtofl@arg+3)^(0+128),w
  1652     0C52  00A3               	movwf	(?___xxtofl+3)^(0+128)
  1653     0C53  082C               	movf	(___xxtofl@arg+2)^(0+128),w
  1654     0C54  00A2               	movwf	(?___xxtofl+2)^(0+128)
  1655     0C55  082B               	movf	(___xxtofl@arg+1)^(0+128),w
  1656     0C56  00A1               	movwf	(?___xxtofl+1)^(0+128)
  1657     0C57  082A               	movf	___xxtofl@arg^(0+128),w
  1658     0C58  00A0               	movwf	?___xxtofl^(0+128)
  1659     0C59                     l798:
  1660     0C59  0008               	return
  1661     0C5A                     __end_of___xxtofl:
  1662                           
  1663                           	psect	text3
  1664     0783                     __ptext3:	
  1665 ;; *************** function ___fltol *****************
  1666 ;; Defined at:
  1667 ;;		line 43 in file "C:\Program Files\Microchip\xc8\v2.40\pic\sources\c90\common\fltol.c"
  1668 ;; Parameters:    Size  Location     Type
  1669 ;;  f1              4   66[BANK1 ] unsigned char 
  1670 ;; Auto vars:     Size  Location     Type
  1671 ;;  exp1            1   75[BANK1 ] unsigned char 
  1672 ;;  sign1           1   74[BANK1 ] unsigned char 
  1673 ;; Return value:  Size  Location     Type
  1674 ;;                  4   66[BANK1 ] long 
  1675 ;; Registers used:
  1676 ;;		wreg, status,2, status,0
  1677 ;; Tracked objects:
  1678 ;;		On entry : 0/0
  1679 ;;		On exit  : 0/0
  1680 ;;		Unchanged: 0/0
  1681 ;; Data sizes:     COMMON   BANK0   BANK1   BANK3   BANK2
  1682 ;;      Params:         0       0       4       0       0
  1683 ;;      Locals:         0       0       2       0       0
  1684 ;;      Temps:          0       0       4       0       0
  1685 ;;      Totals:         0       0      10       0       0
  1686 ;;Total ram usage:       10 bytes
  1687 ;; Hardware stack levels used: 1
  1688 ;; Hardware stack levels required when called: 4
  1689 ;; This function calls:
  1690 ;;		Nothing
  1691 ;; This function is called by:
  1692 ;;		_ultrasonic_measure_distance
  1693 ;;		_floattostr
  1694 ;; This function uses a non-reentrant model
  1695 ;;
  1696                           
  1697     0783                     ___fltol:	
  1698                           ;psect for function ___fltol
  1699                           
  1700     0783                     l2039:	
  1701                           ;incstack = 0
  1702                           ; Regs used in ___fltol: [wreg+status,2+status,0]
  1703                           
  1704     0783  1003               	clrc
  1705     0784  1683               	bsf	3,5	;RP0=1, select bank1
  1706     0785  1303               	bcf	3,6	;RP1=0, select bank1
  1707     0786  0D64               	rlf	(___fltol@f1+2)^(0+128),w
  1708     0787  0D65               	rlf	(___fltol@f1+3)^(0+128),w
  1709     0788  00EB               	movwf	___fltol@exp1^(0+128)
  1710     0789  086B               	movf	___fltol@exp1^(0+128),w
  1711     078A  1D03               	btfss	3,2
  1712     078B  2F8D               	goto	u2411
  1713     078C  2F8E               	goto	u2410
  1714     078D                     u2411:
  1715     078D  2F97               	goto	l2045
  1716     078E                     u2410:
  1717     078E                     l2041:
  1718     078E  3000               	movlw	0
  1719     078F  00E5               	movwf	(?___fltol+3)^(0+128)
  1720     0790  3000               	movlw	0
  1721     0791  00E4               	movwf	(?___fltol+2)^(0+128)
  1722     0792  3000               	movlw	0
  1723     0793  00E3               	movwf	(?___fltol+1)^(0+128)
  1724     0794  3000               	movlw	0
  1725     0795  00E2               	movwf	?___fltol^(0+128)
  1726     0796  2FFA               	goto	l549
  1727     0797                     l2045:
  1728     0797  0862               	movf	___fltol@f1^(0+128),w
  1729     0798  00E6               	movwf	??___fltol^(0+128)
  1730     0799  0863               	movf	(___fltol@f1+1)^(0+128),w
  1731     079A  00E7               	movwf	(??___fltol^(0+128)+1)
  1732     079B  0864               	movf	(___fltol@f1+2)^(0+128),w
  1733     079C  00E8               	movwf	(??___fltol^(0+128)+2)
  1734     079D  0865               	movf	(___fltol@f1+3)^(0+128),w
  1735     079E  00E9               	movwf	(??___fltol^(0+128)+3)
  1736     079F  301F               	movlw	31
  1737     07A0                     u2425:
  1738     07A0  1003               	clrc
  1739     07A1  0CE9               	rrf	(??___fltol^(0+128)+3),f
  1740     07A2  0CE8               	rrf	(??___fltol^(0+128)+2),f
  1741     07A3  0CE7               	rrf	(??___fltol^(0+128)+1),f
  1742     07A4  0CE6               	rrf	??___fltol^(0+128),f
  1743     07A5                     u2420:
  1744     07A5  3EFF               	addlw	-1
  1745     07A6  1D03               	skipz
  1746     07A7  2FA0               	goto	u2425
  1747     07A8  0866               	movf	??___fltol^(0+128),w
  1748     07A9  00EA               	movwf	___fltol@sign1^(0+128)
  1749     07AA                     l2047:
  1750     07AA  17E4               	bsf	(___fltol@f1^(0+128)+2),7
  1751     07AB                     l2049:
  1752     07AB  30FF               	movlw	255
  1753     07AC  05E2               	andwf	___fltol@f1^(0+128),f
  1754     07AD  30FF               	movlw	255
  1755     07AE  05E3               	andwf	(___fltol@f1+1)^(0+128),f
  1756     07AF  30FF               	movlw	255
  1757     07B0  05E4               	andwf	(___fltol@f1+2)^(0+128),f
  1758     07B1  3000               	movlw	0
  1759     07B2  05E5               	andwf	(___fltol@f1+3)^(0+128),f
  1760     07B3                     l2051:
  1761     07B3  3096               	movlw	150
  1762     07B4  02EB               	subwf	___fltol@exp1^(0+128),f
  1763     07B5                     l2053:
  1764     07B5  1FEB               	btfss	___fltol@exp1^(0+128),7
  1765     07B6  2FB8               	goto	u2431
  1766     07B7  2FB9               	goto	u2430
  1767     07B8                     u2431:
  1768     07B8  2FD3               	goto	l2063
  1769     07B9                     u2430:
  1770     07B9                     l2055:
  1771     07B9  086B               	movf	___fltol@exp1^(0+128),w
  1772     07BA  3A80               	xorlw	128
  1773     07BB  3E97               	addlw	151
  1774     07BC  1803               	skipnc
  1775     07BD  2FBF               	goto	u2441
  1776     07BE  2FC0               	goto	u2440
  1777     07BF                     u2441:
  1778     07BF  2FC1               	goto	l2061
  1779     07C0                     u2440:
  1780     07C0  2F8E               	goto	l2041
  1781     07C1                     l2061:
  1782     07C1  3001               	movlw	1
  1783     07C2                     u2455:
  1784     07C2  1003               	clrc
  1785     07C3  0CE5               	rrf	(___fltol@f1+3)^(0+128),f
  1786     07C4  0CE4               	rrf	(___fltol@f1+2)^(0+128),f
  1787     07C5  0CE3               	rrf	(___fltol@f1+1)^(0+128),f
  1788     07C6  0CE2               	rrf	___fltol@f1^(0+128),f
  1789     07C7  3EFF               	addlw	-1
  1790     07C8  1D03               	skipz
  1791     07C9  2FC2               	goto	u2455
  1792     07CA  3001               	movlw	1
  1793     07CB  00E6               	movwf	??___fltol^(0+128)
  1794     07CC  0866               	movf	??___fltol^(0+128),w
  1795     07CD  07EB               	addwf	___fltol@exp1^(0+128),f
  1796     07CE  1D03               	btfss	3,2
  1797     07CF  2FD1               	goto	u2461
  1798     07D0  2FD2               	goto	u2460
  1799     07D1                     u2461:
  1800     07D1  2FC1               	goto	l2061
  1801     07D2                     u2460:
  1802     07D2  2FEA               	goto	l2071
  1803     07D3                     l2063:
  1804     07D3  3020               	movlw	32
  1805     07D4  026B               	subwf	___fltol@exp1^(0+128),w
  1806     07D5  1C03               	skipc
  1807     07D6  2FD8               	goto	u2471
  1808     07D7  2FD9               	goto	u2470
  1809     07D8                     u2471:
  1810     07D8  2FE5               	goto	l556
  1811     07D9                     u2470:
  1812     07D9  2F8E               	goto	l2041
  1813     07DA                     l2069:
  1814     07DA  3001               	movlw	1
  1815     07DB  00E6               	movwf	??___fltol^(0+128)
  1816     07DC                     u2485:
  1817     07DC  1003               	clrc
  1818     07DD  0DE2               	rlf	___fltol@f1^(0+128),f
  1819     07DE  0DE3               	rlf	(___fltol@f1+1)^(0+128),f
  1820     07DF  0DE4               	rlf	(___fltol@f1+2)^(0+128),f
  1821     07E0  0DE5               	rlf	(___fltol@f1+3)^(0+128),f
  1822     07E1  0BE6               	decfsz	??___fltol^(0+128),f
  1823     07E2  2FDC               	goto	u2485
  1824     07E3  3001               	movlw	1
  1825     07E4  02EB               	subwf	___fltol@exp1^(0+128),f
  1826     07E5                     l556:
  1827     07E5  086B               	movf	___fltol@exp1^(0+128),w
  1828     07E6  1D03               	btfss	3,2
  1829     07E7  2FE9               	goto	u2491
  1830     07E8  2FEA               	goto	u2490
  1831     07E9                     u2491:
  1832     07E9  2FDA               	goto	l2069
  1833     07EA                     u2490:
  1834     07EA                     l2071:
  1835     07EA  086A               	movf	___fltol@sign1^(0+128),w
  1836     07EB  1903               	btfsc	3,2
  1837     07EC  2FEE               	goto	u2501
  1838     07ED  2FEF               	goto	u2500
  1839     07EE                     u2501:
  1840     07EE  2FFA               	goto	l559
  1841     07EF                     u2500:
  1842     07EF                     l2073:
  1843     07EF  09E2               	comf	___fltol@f1^(0+128),f
  1844     07F0  09E3               	comf	(___fltol@f1+1)^(0+128),f
  1845     07F1  09E4               	comf	(___fltol@f1+2)^(0+128),f
  1846     07F2  09E5               	comf	(___fltol@f1+3)^(0+128),f
  1847     07F3  0AE2               	incf	___fltol@f1^(0+128),f
  1848     07F4  1903               	skipnz
  1849     07F5  0AE3               	incf	(___fltol@f1+1)^(0+128),f
  1850     07F6  1903               	skipnz
  1851     07F7  0AE4               	incf	(___fltol@f1+2)^(0+128),f
  1852     07F8  1903               	skipnz
  1853     07F9  0AE5               	incf	(___fltol@f1+3)^(0+128),f
  1854     07FA                     l559:
  1855     07FA                     l549:
  1856     07FA  0008               	return
  1857     07FB                     __end_of___fltol:
  1858                           
  1859                           	psect	text4
  1860     0031                     __ptext4:	
  1861 ;; *************** function ___flmul *****************
  1862 ;; Defined at:
  1863 ;;		line 8 in file "C:\Program Files\Microchip\xc8\v2.40\pic\sources\c90\common\sprcmul.c"
  1864 ;; Parameters:    Size  Location     Type
  1865 ;;  b               4   14[BANK1 ] long 
  1866 ;;  a               4   18[BANK1 ] long 
  1867 ;; Auto vars:     Size  Location     Type
  1868 ;;  prod            4   34[BANK1 ] struct .
  1869 ;;  grs             4   28[BANK1 ] unsigned long 
  1870 ;;  temp            2   38[BANK1 ] struct .
  1871 ;;  bexp            1   33[BANK1 ] unsigned char 
  1872 ;;  aexp            1   32[BANK1 ] unsigned char 
  1873 ;;  sign            1   27[BANK1 ] unsigned char 
  1874 ;; Return value:  Size  Location     Type
  1875 ;;                  4   14[BANK1 ] unsigned char 
  1876 ;; Registers used:
  1877 ;;		wreg, status,2, status,0, btemp+1, pclath, cstack
  1878 ;; Tracked objects:
  1879 ;;		On entry : 0/0
  1880 ;;		On exit  : 0/0
  1881 ;;		Unchanged: 0/0
  1882 ;; Data sizes:     COMMON   BANK0   BANK1   BANK3   BANK2
  1883 ;;      Params:         0       0       8       0       0
  1884 ;;      Locals:         0       0      13       0       0
  1885 ;;      Temps:          0       0       5       0       0
  1886 ;;      Totals:         0       0      26       0       0
  1887 ;;Total ram usage:       26 bytes
  1888 ;; Hardware stack levels used: 1
  1889 ;; Hardware stack levels required when called: 5
  1890 ;; This function calls:
  1891 ;;		__Umul8_16
  1892 ;; This function is called by:
  1893 ;;		_ultrasonic_measure_distance
  1894 ;;		_floattostr
  1895 ;; This function uses a non-reentrant model
  1896 ;;
  1897                           
  1898     0031                     ___flmul:	
  1899                           ;psect for function ___flmul
  1900                           
  1901     0031                     l2217:	
  1902                           ;incstack = 0
  1903                           ; Regs used in ___flmul: [wreg+status,2+status,0+btemp+1+pclath+cstack]
  1904                           
  1905     0031  1683               	bsf	3,5	;RP0=1, select bank1
  1906     0032  1303               	bcf	3,6	;RP1=0, select bank1
  1907     0033  0831               	movf	(___flmul@b^(0+128)+3),w
  1908     0034  3980               	andlw	128
  1909     0035  00BB               	movwf	___flmul@sign^(0+128)
  1910     0036                     l2219:
  1911     0036  0831               	movf	(___flmul@b^(0+128)+3),w
  1912     0037  00B6               	movwf	??___flmul^(0+128)
  1913     0038  0736               	addwf	??___flmul^(0+128),w
  1914     0039  00C1               	movwf	___flmul@bexp^(0+128)
  1915     003A                     l2221:
  1916     003A  1FB0               	btfss	(___flmul@b^(0+128)+2),7
  1917     003B  283D               	goto	u2801
  1918     003C  283E               	goto	u2800
  1919     003D                     u2801:
  1920     003D  283F               	goto	l2225
  1921     003E                     u2800:
  1922     003E                     l2223:
  1923     003E  1441               	bsf	___flmul@bexp^(0+128),0
  1924     003F                     l2225:
  1925     003F  0841               	movf	___flmul@bexp^(0+128),w
  1926     0040  1903               	btfsc	3,2
  1927     0041  2843               	goto	u2811
  1928     0042  2844               	goto	u2810
  1929     0043                     u2811:
  1930     0043  2853               	goto	l2233
  1931     0044                     u2810:
  1932     0044                     l2227:
  1933     0044  0A41               	incf	___flmul@bexp^(0+128),w
  1934     0045  1D03               	btfss	3,2
  1935     0046  2848               	goto	u2821
  1936     0047  2849               	goto	u2820
  1937     0048                     u2821:
  1938     0048  2851               	goto	l2231
  1939     0049                     u2820:
  1940     0049                     l2229:
  1941     0049  3000               	movlw	0
  1942     004A  00B1               	movwf	(___flmul@b+3)^(0+128)
  1943     004B  3000               	movlw	0
  1944     004C  00B0               	movwf	(___flmul@b+2)^(0+128)
  1945     004D  3000               	movlw	0
  1946     004E  00AF               	movwf	(___flmul@b+1)^(0+128)
  1947     004F  3000               	movlw	0
  1948     0050  00AE               	movwf	___flmul@b^(0+128)
  1949     0051                     l2231:
  1950     0051  17B0               	bsf	(___flmul@b^(0+128)+2),7
  1951     0052  285B               	goto	l2235
  1952     0053                     l2233:
  1953     0053  3000               	movlw	0
  1954     0054  00B1               	movwf	(___flmul@b+3)^(0+128)
  1955     0055  3000               	movlw	0
  1956     0056  00B0               	movwf	(___flmul@b+2)^(0+128)
  1957     0057  3000               	movlw	0
  1958     0058  00AF               	movwf	(___flmul@b+1)^(0+128)
  1959     0059  3000               	movlw	0
  1960     005A  00AE               	movwf	___flmul@b^(0+128)
  1961     005B                     l2235:
  1962     005B  0835               	movf	(___flmul@a^(0+128)+3),w
  1963     005C  3980               	andlw	128
  1964     005D  00B6               	movwf	??___flmul^(0+128)
  1965     005E  0836               	movf	??___flmul^(0+128),w
  1966     005F  06BB               	xorwf	___flmul@sign^(0+128),f
  1967     0060                     l2237:
  1968     0060  0835               	movf	(___flmul@a^(0+128)+3),w
  1969     0061  00B6               	movwf	??___flmul^(0+128)
  1970     0062  0736               	addwf	??___flmul^(0+128),w
  1971     0063  00C0               	movwf	___flmul@aexp^(0+128)
  1972     0064                     l2239:
  1973     0064  1FB4               	btfss	(___flmul@a^(0+128)+2),7
  1974     0065  2867               	goto	u2831
  1975     0066  2868               	goto	u2830
  1976     0067                     u2831:
  1977     0067  2869               	goto	l2243
  1978     0068                     u2830:
  1979     0068                     l2241:
  1980     0068  1440               	bsf	___flmul@aexp^(0+128),0
  1981     0069                     l2243:
  1982     0069  0840               	movf	___flmul@aexp^(0+128),w
  1983     006A  1903               	btfsc	3,2
  1984     006B  286D               	goto	u2841
  1985     006C  286E               	goto	u2840
  1986     006D                     u2841:
  1987     006D  287D               	goto	l2251
  1988     006E                     u2840:
  1989     006E                     l2245:
  1990     006E  0A40               	incf	___flmul@aexp^(0+128),w
  1991     006F  1D03               	btfss	3,2
  1992     0070  2872               	goto	u2851
  1993     0071  2873               	goto	u2850
  1994     0072                     u2851:
  1995     0072  287B               	goto	l2249
  1996     0073                     u2850:
  1997     0073                     l2247:
  1998     0073  3000               	movlw	0
  1999     0074  00B5               	movwf	(___flmul@a+3)^(0+128)
  2000     0075  3000               	movlw	0
  2001     0076  00B4               	movwf	(___flmul@a+2)^(0+128)
  2002     0077  3000               	movlw	0
  2003     0078  00B3               	movwf	(___flmul@a+1)^(0+128)
  2004     0079  3000               	movlw	0
  2005     007A  00B2               	movwf	___flmul@a^(0+128)
  2006     007B                     l2249:
  2007     007B  17B4               	bsf	(___flmul@a^(0+128)+2),7
  2008     007C  2885               	goto	l2253
  2009     007D                     l2251:
  2010     007D  3000               	movlw	0
  2011     007E  00B5               	movwf	(___flmul@a+3)^(0+128)
  2012     007F  3000               	movlw	0
  2013     0080  00B4               	movwf	(___flmul@a+2)^(0+128)
  2014     0081  3000               	movlw	0
  2015     0082  00B3               	movwf	(___flmul@a+1)^(0+128)
  2016     0083  3000               	movlw	0
  2017     0084  00B2               	movwf	___flmul@a^(0+128)
  2018     0085                     l2253:
  2019     0085  0840               	movf	___flmul@aexp^(0+128),w
  2020     0086  1903               	btfsc	3,2
  2021     0087  2889               	goto	u2861
  2022     0088  288A               	goto	u2860
  2023     0089                     u2861:
  2024     0089  288F               	goto	l2257
  2025     008A                     u2860:
  2026     008A                     l2255:
  2027     008A  0841               	movf	___flmul@bexp^(0+128),w
  2028     008B  1D03               	btfss	3,2
  2029     008C  288E               	goto	u2871
  2030     008D  288F               	goto	u2870
  2031     008E                     u2871:
  2032     008E  2898               	goto	l2261
  2033     008F                     u2870:
  2034     008F                     l2257:
  2035     008F  3000               	movlw	0
  2036     0090  00B1               	movwf	(?___flmul+3)^(0+128)
  2037     0091  3000               	movlw	0
  2038     0092  00B0               	movwf	(?___flmul+2)^(0+128)
  2039     0093  3000               	movlw	0
  2040     0094  00AF               	movwf	(?___flmul+1)^(0+128)
  2041     0095  3000               	movlw	0
  2042     0096  00AE               	movwf	?___flmul^(0+128)
  2043     0097  2B75               	goto	l752
  2044     0098                     l2261:
  2045     0098  082E               	movf	___flmul@b^(0+128),w
  2046     0099  00A0               	movwf	__Umul8_16@multiplicand^(0+128)
  2047     009A  0834               	movf	(___flmul@a^(0+128)+2),w
  2048     009B  160A  118A  27D7  120A  118A  	fcall	__Umul8_16
  2049     00A0  1683               	bsf	3,5	;RP0=1, select bank1
  2050     00A1  1303               	bcf	3,6	;RP1=0, select bank1
  2051     00A2  0821               	movf	(?__Umul8_16+1)^(0+128),w
  2052     00A3  00C7               	movwf	(___flmul@temp+1)^(0+128)
  2053     00A4  0820               	movf	?__Umul8_16^(0+128),w
  2054     00A5  00C6               	movwf	___flmul@temp^(0+128)
  2055     00A6                     l2263:
  2056     00A6  0846               	movf	___flmul@temp^(0+128),w
  2057     00A7  00B6               	movwf	??___flmul^(0+128)
  2058     00A8  01B7               	clrf	(??___flmul^(0+128)+1)
  2059     00A9  01B8               	clrf	(??___flmul^(0+128)+2)
  2060     00AA  01B9               	clrf	(??___flmul^(0+128)+3)
  2061     00AB  0839               	movf	(??___flmul+3)^(0+128),w
  2062     00AC  00BF               	movwf	(___flmul@grs+3)^(0+128)
  2063     00AD  0838               	movf	(??___flmul+2)^(0+128),w
  2064     00AE  00BE               	movwf	(___flmul@grs+2)^(0+128)
  2065     00AF  0837               	movf	(??___flmul+1)^(0+128),w
  2066     00B0  00BD               	movwf	(___flmul@grs+1)^(0+128)
  2067     00B1  0836               	movf	??___flmul^(0+128),w
  2068     00B2  00BC               	movwf	___flmul@grs^(0+128)
  2069     00B3                     l2265:
  2070     00B3  0847               	movf	(___flmul@temp^(0+128)+1),w
  2071     00B4  00B6               	movwf	??___flmul^(0+128)
  2072     00B5  01B7               	clrf	(??___flmul^(0+128)+1)
  2073     00B6  01B8               	clrf	(??___flmul^(0+128)+2)
  2074     00B7  01B9               	clrf	(??___flmul^(0+128)+3)
  2075     00B8  0839               	movf	(??___flmul+3)^(0+128),w
  2076     00B9  00C5               	movwf	(___flmul@prod+3)^(0+128)
  2077     00BA  0838               	movf	(??___flmul+2)^(0+128),w
  2078     00BB  00C4               	movwf	(___flmul@prod+2)^(0+128)
  2079     00BC  0837               	movf	(??___flmul+1)^(0+128),w
  2080     00BD  00C3               	movwf	(___flmul@prod+1)^(0+128)
  2081     00BE  0836               	movf	??___flmul^(0+128),w
  2082     00BF  00C2               	movwf	___flmul@prod^(0+128)
  2083     00C0  082F               	movf	(___flmul@b^(0+128)+1),w
  2084     00C1  00A0               	movwf	__Umul8_16@multiplicand^(0+128)
  2085     00C2  0833               	movf	(___flmul@a^(0+128)+1),w
  2086     00C3  160A  118A  27D7  120A  118A  	fcall	__Umul8_16
  2087     00C8  1683               	bsf	3,5	;RP0=1, select bank1
  2088     00C9  1303               	bcf	3,6	;RP1=0, select bank1
  2089     00CA  0821               	movf	(?__Umul8_16+1)^(0+128),w
  2090     00CB  00C7               	movwf	(___flmul@temp+1)^(0+128)
  2091     00CC  0820               	movf	?__Umul8_16^(0+128),w
  2092     00CD  00C6               	movwf	___flmul@temp^(0+128)
  2093     00CE                     l2267:
  2094     00CE  0846               	movf	___flmul@temp^(0+128),w
  2095     00CF  00B6               	movwf	??___flmul^(0+128)
  2096     00D0  01B7               	clrf	(??___flmul^(0+128)+1)
  2097     00D1  01B8               	clrf	(??___flmul^(0+128)+2)
  2098     00D2  01B9               	clrf	(??___flmul^(0+128)+3)
  2099     00D3  0836               	movf	??___flmul^(0+128),w
  2100     00D4  07BC               	addwf	___flmul@grs^(0+128),f
  2101     00D5  0837               	movf	(??___flmul+1)^(0+128),w
  2102     00D6  1103               	clrz
  2103     00D7  1803               	skipnc
  2104     00D8  3E01               	addlw	1
  2105     00D9  1903               	skipnz
  2106     00DA  28DC               	goto	u2881
  2107     00DB  07BD               	addwf	(___flmul@grs+1)^(0+128),f
  2108     00DC                     u2881:
  2109     00DC  0838               	movf	(??___flmul+2)^(0+128),w
  2110     00DD  1103               	clrz
  2111     00DE  1803               	skipnc
  2112     00DF  3E01               	addlw	1
  2113     00E0  1903               	skipnz
  2114     00E1  28E3               	goto	u2882
  2115     00E2  07BE               	addwf	(___flmul@grs+2)^(0+128),f
  2116     00E3                     u2882:
  2117     00E3  0839               	movf	(??___flmul+3)^(0+128),w
  2118     00E4  1103               	clrz
  2119     00E5  1803               	skipnc
  2120     00E6  3E01               	addlw	1
  2121     00E7  1903               	skipnz
  2122     00E8  28EA               	goto	u2883
  2123     00E9  07BF               	addwf	(___flmul@grs+3)^(0+128),f
  2124     00EA                     u2883:
  2125     00EA                     l2269:
  2126     00EA  0847               	movf	(___flmul@temp^(0+128)+1),w
  2127     00EB  00B6               	movwf	??___flmul^(0+128)
  2128     00EC  01B7               	clrf	(??___flmul^(0+128)+1)
  2129     00ED  01B8               	clrf	(??___flmul^(0+128)+2)
  2130     00EE  01B9               	clrf	(??___flmul^(0+128)+3)
  2131     00EF  0836               	movf	??___flmul^(0+128),w
  2132     00F0  07C2               	addwf	___flmul@prod^(0+128),f
  2133     00F1  0837               	movf	(??___flmul+1)^(0+128),w
  2134     00F2  1103               	clrz
  2135     00F3  1803               	skipnc
  2136     00F4  3E01               	addlw	1
  2137     00F5  1903               	skipnz
  2138     00F6  28F8               	goto	u2891
  2139     00F7  07C3               	addwf	(___flmul@prod+1)^(0+128),f
  2140     00F8                     u2891:
  2141     00F8  0838               	movf	(??___flmul+2)^(0+128),w
  2142     00F9  1103               	clrz
  2143     00FA  1803               	skipnc
  2144     00FB  3E01               	addlw	1
  2145     00FC  1903               	skipnz
  2146     00FD  28FF               	goto	u2892
  2147     00FE  07C4               	addwf	(___flmul@prod+2)^(0+128),f
  2148     00FF                     u2892:
  2149     00FF  0839               	movf	(??___flmul+3)^(0+128),w
  2150     0100  1103               	clrz
  2151     0101  1803               	skipnc
  2152     0102  3E01               	addlw	1
  2153     0103  1903               	skipnz
  2154     0104  2906               	goto	u2893
  2155     0105  07C5               	addwf	(___flmul@prod+3)^(0+128),f
  2156     0106                     u2893:
  2157     0106  0830               	movf	(___flmul@b^(0+128)+2),w
  2158     0107  00A0               	movwf	__Umul8_16@multiplicand^(0+128)
  2159     0108  0832               	movf	___flmul@a^(0+128),w
  2160     0109  160A  118A  27D7  120A  118A  	fcall	__Umul8_16
  2161     010E  1683               	bsf	3,5	;RP0=1, select bank1
  2162     010F  1303               	bcf	3,6	;RP1=0, select bank1
  2163     0110  0821               	movf	(?__Umul8_16+1)^(0+128),w
  2164     0111  00C7               	movwf	(___flmul@temp+1)^(0+128)
  2165     0112  0820               	movf	?__Umul8_16^(0+128),w
  2166     0113  00C6               	movwf	___flmul@temp^(0+128)
  2167     0114                     l2271:
  2168     0114  0846               	movf	___flmul@temp^(0+128),w
  2169     0115  00B6               	movwf	??___flmul^(0+128)
  2170     0116  01B7               	clrf	(??___flmul^(0+128)+1)
  2171     0117  01B8               	clrf	(??___flmul^(0+128)+2)
  2172     0118  01B9               	clrf	(??___flmul^(0+128)+3)
  2173     0119  0836               	movf	??___flmul^(0+128),w
  2174     011A  07BC               	addwf	___flmul@grs^(0+128),f
  2175     011B  0837               	movf	(??___flmul+1)^(0+128),w
  2176     011C  1103               	clrz
  2177     011D  1803               	skipnc
  2178     011E  3E01               	addlw	1
  2179     011F  1903               	skipnz
  2180     0120  2922               	goto	u2901
  2181     0121  07BD               	addwf	(___flmul@grs+1)^(0+128),f
  2182     0122                     u2901:
  2183     0122  0838               	movf	(??___flmul+2)^(0+128),w
  2184     0123  1103               	clrz
  2185     0124  1803               	skipnc
  2186     0125  3E01               	addlw	1
  2187     0126  1903               	skipnz
  2188     0127  2929               	goto	u2902
  2189     0128  07BE               	addwf	(___flmul@grs+2)^(0+128),f
  2190     0129                     u2902:
  2191     0129  0839               	movf	(??___flmul+3)^(0+128),w
  2192     012A  1103               	clrz
  2193     012B  1803               	skipnc
  2194     012C  3E01               	addlw	1
  2195     012D  1903               	skipnz
  2196     012E  2930               	goto	u2903
  2197     012F  07BF               	addwf	(___flmul@grs+3)^(0+128),f
  2198     0130                     u2903:
  2199     0130                     l2273:
  2200     0130  0847               	movf	(___flmul@temp^(0+128)+1),w
  2201     0131  00B6               	movwf	??___flmul^(0+128)
  2202     0132  01B7               	clrf	(??___flmul^(0+128)+1)
  2203     0133  01B8               	clrf	(??___flmul^(0+128)+2)
  2204     0134  01B9               	clrf	(??___flmul^(0+128)+3)
  2205     0135  0836               	movf	??___flmul^(0+128),w
  2206     0136  07C2               	addwf	___flmul@prod^(0+128),f
  2207     0137  0837               	movf	(??___flmul+1)^(0+128),w
  2208     0138  1103               	clrz
  2209     0139  1803               	skipnc
  2210     013A  3E01               	addlw	1
  2211     013B  1903               	skipnz
  2212     013C  293E               	goto	u2911
  2213     013D  07C3               	addwf	(___flmul@prod+1)^(0+128),f
  2214     013E                     u2911:
  2215     013E  0838               	movf	(??___flmul+2)^(0+128),w
  2216     013F  1103               	clrz
  2217     0140  1803               	skipnc
  2218     0141  3E01               	addlw	1
  2219     0142  1903               	skipnz
  2220     0143  2945               	goto	u2912
  2221     0144  07C4               	addwf	(___flmul@prod+2)^(0+128),f
  2222     0145                     u2912:
  2223     0145  0839               	movf	(??___flmul+3)^(0+128),w
  2224     0146  1103               	clrz
  2225     0147  1803               	skipnc
  2226     0148  3E01               	addlw	1
  2227     0149  1903               	skipnz
  2228     014A  294C               	goto	u2913
  2229     014B  07C5               	addwf	(___flmul@prod+3)^(0+128),f
  2230     014C                     u2913:
  2231     014C                     l2275:
  2232     014C  3008               	movlw	8
  2233     014D  00B6               	movwf	??___flmul^(0+128)
  2234     014E                     u2925:
  2235     014E  1003               	clrc
  2236     014F  0DBC               	rlf	___flmul@grs^(0+128),f
  2237     0150  0DBD               	rlf	(___flmul@grs+1)^(0+128),f
  2238     0151  0DBE               	rlf	(___flmul@grs+2)^(0+128),f
  2239     0152  0DBF               	rlf	(___flmul@grs+3)^(0+128),f
  2240     0153  0BB6               	decfsz	??___flmul^(0+128),f
  2241     0154  294E               	goto	u2925
  2242     0155                     l2277:
  2243     0155  082F               	movf	(___flmul@b^(0+128)+1),w
  2244     0156  00A0               	movwf	__Umul8_16@multiplicand^(0+128)
  2245     0157  0832               	movf	___flmul@a^(0+128),w
  2246     0158  160A  118A  27D7  120A  118A  	fcall	__Umul8_16
  2247     015D  1683               	bsf	3,5	;RP0=1, select bank1
  2248     015E  1303               	bcf	3,6	;RP1=0, select bank1
  2249     015F  0821               	movf	(?__Umul8_16+1)^(0+128),w
  2250     0160  00C7               	movwf	(___flmul@temp+1)^(0+128)
  2251     0161  0820               	movf	?__Umul8_16^(0+128),w
  2252     0162  00C6               	movwf	___flmul@temp^(0+128)
  2253     0163                     l2279:
  2254     0163  0846               	movf	___flmul@temp^(0+128),w
  2255     0164  00B6               	movwf	??___flmul^(0+128)
  2256     0165  0847               	movf	(___flmul@temp+1)^(0+128),w
  2257     0166  00B7               	movwf	(??___flmul^(0+128)+1)
  2258     0167  01B8               	clrf	(??___flmul^(0+128)+2)
  2259     0168  01B9               	clrf	(??___flmul^(0+128)+3)
  2260     0169  0836               	movf	??___flmul^(0+128),w
  2261     016A  07BC               	addwf	___flmul@grs^(0+128),f
  2262     016B  0837               	movf	(??___flmul+1)^(0+128),w
  2263     016C  1103               	clrz
  2264     016D  1803               	skipnc
  2265     016E  3E01               	addlw	1
  2266     016F  1903               	skipnz
  2267     0170  2972               	goto	u2931
  2268     0171  07BD               	addwf	(___flmul@grs+1)^(0+128),f
  2269     0172                     u2931:
  2270     0172  0838               	movf	(??___flmul+2)^(0+128),w
  2271     0173  1103               	clrz
  2272     0174  1803               	skipnc
  2273     0175  3E01               	addlw	1
  2274     0176  1903               	skipnz
  2275     0177  2979               	goto	u2932
  2276     0178  07BE               	addwf	(___flmul@grs+2)^(0+128),f
  2277     0179                     u2932:
  2278     0179  0839               	movf	(??___flmul+3)^(0+128),w
  2279     017A  1103               	clrz
  2280     017B  1803               	skipnc
  2281     017C  3E01               	addlw	1
  2282     017D  1903               	skipnz
  2283     017E  2980               	goto	u2933
  2284     017F  07BF               	addwf	(___flmul@grs+3)^(0+128),f
  2285     0180                     u2933:
  2286     0180                     l2281:
  2287     0180  082E               	movf	___flmul@b^(0+128),w
  2288     0181  00A0               	movwf	__Umul8_16@multiplicand^(0+128)
  2289     0182  0833               	movf	(___flmul@a^(0+128)+1),w
  2290     0183  160A  118A  27D7  120A  118A  	fcall	__Umul8_16
  2291     0188  1683               	bsf	3,5	;RP0=1, select bank1
  2292     0189  1303               	bcf	3,6	;RP1=0, select bank1
  2293     018A  0821               	movf	(?__Umul8_16+1)^(0+128),w
  2294     018B  00C7               	movwf	(___flmul@temp+1)^(0+128)
  2295     018C  0820               	movf	?__Umul8_16^(0+128),w
  2296     018D  00C6               	movwf	___flmul@temp^(0+128)
  2297     018E                     l2283:
  2298     018E  0846               	movf	___flmul@temp^(0+128),w
  2299     018F  00B6               	movwf	??___flmul^(0+128)
  2300     0190  0847               	movf	(___flmul@temp+1)^(0+128),w
  2301     0191  00B7               	movwf	(??___flmul^(0+128)+1)
  2302     0192  01B8               	clrf	(??___flmul^(0+128)+2)
  2303     0193  01B9               	clrf	(??___flmul^(0+128)+3)
  2304     0194  0836               	movf	??___flmul^(0+128),w
  2305     0195  07BC               	addwf	___flmul@grs^(0+128),f
  2306     0196  0837               	movf	(??___flmul+1)^(0+128),w
  2307     0197  1103               	clrz
  2308     0198  1803               	skipnc
  2309     0199  3E01               	addlw	1
  2310     019A  1903               	skipnz
  2311     019B  299D               	goto	u2941
  2312     019C  07BD               	addwf	(___flmul@grs+1)^(0+128),f
  2313     019D                     u2941:
  2314     019D  0838               	movf	(??___flmul+2)^(0+128),w
  2315     019E  1103               	clrz
  2316     019F  1803               	skipnc
  2317     01A0  3E01               	addlw	1
  2318     01A1  1903               	skipnz
  2319     01A2  29A4               	goto	u2942
  2320     01A3  07BE               	addwf	(___flmul@grs+2)^(0+128),f
  2321     01A4                     u2942:
  2322     01A4  0839               	movf	(??___flmul+3)^(0+128),w
  2323     01A5  1103               	clrz
  2324     01A6  1803               	skipnc
  2325     01A7  3E01               	addlw	1
  2326     01A8  1903               	skipnz
  2327     01A9  29AB               	goto	u2943
  2328     01AA  07BF               	addwf	(___flmul@grs+3)^(0+128),f
  2329     01AB                     u2943:
  2330     01AB                     l2285:
  2331     01AB  3008               	movlw	8
  2332     01AC  00B6               	movwf	??___flmul^(0+128)
  2333     01AD                     u2955:
  2334     01AD  1003               	clrc
  2335     01AE  0DBC               	rlf	___flmul@grs^(0+128),f
  2336     01AF  0DBD               	rlf	(___flmul@grs+1)^(0+128),f
  2337     01B0  0DBE               	rlf	(___flmul@grs+2)^(0+128),f
  2338     01B1  0DBF               	rlf	(___flmul@grs+3)^(0+128),f
  2339     01B2  0BB6               	decfsz	??___flmul^(0+128),f
  2340     01B3  29AD               	goto	u2955
  2341     01B4  082E               	movf	___flmul@b^(0+128),w
  2342     01B5  00A0               	movwf	__Umul8_16@multiplicand^(0+128)
  2343     01B6  0832               	movf	___flmul@a^(0+128),w
  2344     01B7  160A  118A  27D7  120A  118A  	fcall	__Umul8_16
  2345     01BC  1683               	bsf	3,5	;RP0=1, select bank1
  2346     01BD  1303               	bcf	3,6	;RP1=0, select bank1
  2347     01BE  0821               	movf	(?__Umul8_16+1)^(0+128),w
  2348     01BF  00C7               	movwf	(___flmul@temp+1)^(0+128)
  2349     01C0  0820               	movf	?__Umul8_16^(0+128),w
  2350     01C1  00C6               	movwf	___flmul@temp^(0+128)
  2351     01C2                     l2287:
  2352     01C2  0846               	movf	___flmul@temp^(0+128),w
  2353     01C3  00B6               	movwf	??___flmul^(0+128)
  2354     01C4  0847               	movf	(___flmul@temp+1)^(0+128),w
  2355     01C5  00B7               	movwf	(??___flmul^(0+128)+1)
  2356     01C6  01B8               	clrf	(??___flmul^(0+128)+2)
  2357     01C7  01B9               	clrf	(??___flmul^(0+128)+3)
  2358     01C8  0836               	movf	??___flmul^(0+128),w
  2359     01C9  07BC               	addwf	___flmul@grs^(0+128),f
  2360     01CA  0837               	movf	(??___flmul+1)^(0+128),w
  2361     01CB  1103               	clrz
  2362     01CC  1803               	skipnc
  2363     01CD  3E01               	addlw	1
  2364     01CE  1903               	skipnz
  2365     01CF  29D1               	goto	u2961
  2366     01D0  07BD               	addwf	(___flmul@grs+1)^(0+128),f
  2367     01D1                     u2961:
  2368     01D1  0838               	movf	(??___flmul+2)^(0+128),w
  2369     01D2  1103               	clrz
  2370     01D3  1803               	skipnc
  2371     01D4  3E01               	addlw	1
  2372     01D5  1903               	skipnz
  2373     01D6  29D8               	goto	u2962
  2374     01D7  07BE               	addwf	(___flmul@grs+2)^(0+128),f
  2375     01D8                     u2962:
  2376     01D8  0839               	movf	(??___flmul+3)^(0+128),w
  2377     01D9  1103               	clrz
  2378     01DA  1803               	skipnc
  2379     01DB  3E01               	addlw	1
  2380     01DC  1903               	skipnz
  2381     01DD  29DF               	goto	u2963
  2382     01DE  07BF               	addwf	(___flmul@grs+3)^(0+128),f
  2383     01DF                     u2963:
  2384     01DF                     l2289:
  2385     01DF  082F               	movf	(___flmul@b^(0+128)+1),w
  2386     01E0  00A0               	movwf	__Umul8_16@multiplicand^(0+128)
  2387     01E1  0834               	movf	(___flmul@a^(0+128)+2),w
  2388     01E2  160A  118A  27D7  120A  118A  	fcall	__Umul8_16
  2389     01E7  1683               	bsf	3,5	;RP0=1, select bank1
  2390     01E8  1303               	bcf	3,6	;RP1=0, select bank1
  2391     01E9  0821               	movf	(?__Umul8_16+1)^(0+128),w
  2392     01EA  00C7               	movwf	(___flmul@temp+1)^(0+128)
  2393     01EB  0820               	movf	?__Umul8_16^(0+128),w
  2394     01EC  00C6               	movwf	___flmul@temp^(0+128)
  2395     01ED  0846               	movf	___flmul@temp^(0+128),w
  2396     01EE  00B6               	movwf	??___flmul^(0+128)
  2397     01EF  0847               	movf	(___flmul@temp+1)^(0+128),w
  2398     01F0  00B7               	movwf	(??___flmul^(0+128)+1)
  2399     01F1  01B8               	clrf	(??___flmul^(0+128)+2)
  2400     01F2  01B9               	clrf	(??___flmul^(0+128)+3)
  2401     01F3  0836               	movf	??___flmul^(0+128),w
  2402     01F4  07C2               	addwf	___flmul@prod^(0+128),f
  2403     01F5  0837               	movf	(??___flmul+1)^(0+128),w
  2404     01F6  1103               	clrz
  2405     01F7  1803               	skipnc
  2406     01F8  3E01               	addlw	1
  2407     01F9  1903               	skipnz
  2408     01FA  29FC               	goto	u2971
  2409     01FB  07C3               	addwf	(___flmul@prod+1)^(0+128),f
  2410     01FC                     u2971:
  2411     01FC  0838               	movf	(??___flmul+2)^(0+128),w
  2412     01FD  1103               	clrz
  2413     01FE  1803               	skipnc
  2414     01FF  3E01               	addlw	1
  2415     0200  1903               	skipnz
  2416     0201  2A03               	goto	u2972
  2417     0202  07C4               	addwf	(___flmul@prod+2)^(0+128),f
  2418     0203                     u2972:
  2419     0203  0839               	movf	(??___flmul+3)^(0+128),w
  2420     0204  1103               	clrz
  2421     0205  1803               	skipnc
  2422     0206  3E01               	addlw	1
  2423     0207  1903               	skipnz
  2424     0208  2A0A               	goto	u2973
  2425     0209  07C5               	addwf	(___flmul@prod+3)^(0+128),f
  2426     020A                     u2973:
  2427     020A                     l2291:
  2428     020A  0830               	movf	(___flmul@b^(0+128)+2),w
  2429     020B  00A0               	movwf	__Umul8_16@multiplicand^(0+128)
  2430     020C  0833               	movf	(___flmul@a^(0+128)+1),w
  2431     020D  160A  118A  27D7  120A  118A  	fcall	__Umul8_16
  2432     0212  1683               	bsf	3,5	;RP0=1, select bank1
  2433     0213  1303               	bcf	3,6	;RP1=0, select bank1
  2434     0214  0821               	movf	(?__Umul8_16+1)^(0+128),w
  2435     0215  00C7               	movwf	(___flmul@temp+1)^(0+128)
  2436     0216  0820               	movf	?__Umul8_16^(0+128),w
  2437     0217  00C6               	movwf	___flmul@temp^(0+128)
  2438     0218                     l2293:
  2439     0218  0846               	movf	___flmul@temp^(0+128),w
  2440     0219  00B6               	movwf	??___flmul^(0+128)
  2441     021A  0847               	movf	(___flmul@temp+1)^(0+128),w
  2442     021B  00B7               	movwf	(??___flmul^(0+128)+1)
  2443     021C  01B8               	clrf	(??___flmul^(0+128)+2)
  2444     021D  01B9               	clrf	(??___flmul^(0+128)+3)
  2445     021E  0836               	movf	??___flmul^(0+128),w
  2446     021F  07C2               	addwf	___flmul@prod^(0+128),f
  2447     0220  0837               	movf	(??___flmul+1)^(0+128),w
  2448     0221  1103               	clrz
  2449     0222  1803               	skipnc
  2450     0223  3E01               	addlw	1
  2451     0224  1903               	skipnz
  2452     0225  2A27               	goto	u2981
  2453     0226  07C3               	addwf	(___flmul@prod+1)^(0+128),f
  2454     0227                     u2981:
  2455     0227  0838               	movf	(??___flmul+2)^(0+128),w
  2456     0228  1103               	clrz
  2457     0229  1803               	skipnc
  2458     022A  3E01               	addlw	1
  2459     022B  1903               	skipnz
  2460     022C  2A2E               	goto	u2982
  2461     022D  07C4               	addwf	(___flmul@prod+2)^(0+128),f
  2462     022E                     u2982:
  2463     022E  0839               	movf	(??___flmul+3)^(0+128),w
  2464     022F  1103               	clrz
  2465     0230  1803               	skipnc
  2466     0231  3E01               	addlw	1
  2467     0232  1903               	skipnz
  2468     0233  2A35               	goto	u2983
  2469     0234  07C5               	addwf	(___flmul@prod+3)^(0+128),f
  2470     0235                     u2983:
  2471     0235  0830               	movf	(___flmul@b^(0+128)+2),w
  2472     0236  00A0               	movwf	__Umul8_16@multiplicand^(0+128)
  2473     0237  0834               	movf	(___flmul@a^(0+128)+2),w
  2474     0238  160A  118A  27D7  120A  118A  	fcall	__Umul8_16
  2475     023D  1683               	bsf	3,5	;RP0=1, select bank1
  2476     023E  1303               	bcf	3,6	;RP1=0, select bank1
  2477     023F  0821               	movf	(?__Umul8_16+1)^(0+128),w
  2478     0240  00C7               	movwf	(___flmul@temp+1)^(0+128)
  2479     0241  0820               	movf	?__Umul8_16^(0+128),w
  2480     0242  00C6               	movwf	___flmul@temp^(0+128)
  2481     0243                     l2295:
  2482     0243  0846               	movf	___flmul@temp^(0+128),w
  2483     0244  00B6               	movwf	??___flmul^(0+128)
  2484     0245  0847               	movf	(___flmul@temp+1)^(0+128),w
  2485     0246  00B7               	movwf	(??___flmul^(0+128)+1)
  2486     0247  01B8               	clrf	(??___flmul^(0+128)+2)
  2487     0248  01B9               	clrf	(??___flmul^(0+128)+3)
  2488     0249  3008               	movlw	8
  2489     024A                     u2995:
  2490     024A  1003               	clrc
  2491     024B  0DB6               	rlf	??___flmul^(0+128),f
  2492     024C  0DB7               	rlf	(??___flmul^(0+128)+1),f
  2493     024D  0DB8               	rlf	(??___flmul^(0+128)+2),f
  2494     024E  0DB9               	rlf	(??___flmul^(0+128)+3),f
  2495     024F                     u2990:
  2496     024F  3EFF               	addlw	-1
  2497     0250  1D03               	skipz
  2498     0251  2A4A               	goto	u2995
  2499     0252  0836               	movf	??___flmul^(0+128),w
  2500     0253  07C2               	addwf	___flmul@prod^(0+128),f
  2501     0254  0837               	movf	(??___flmul+1)^(0+128),w
  2502     0255  1103               	clrz
  2503     0256  1803               	skipnc
  2504     0257  3E01               	addlw	1
  2505     0258  1903               	skipnz
  2506     0259  2A5B               	goto	u3001
  2507     025A  07C3               	addwf	(___flmul@prod+1)^(0+128),f
  2508     025B                     u3001:
  2509     025B  0838               	movf	(??___flmul+2)^(0+128),w
  2510     025C  1103               	clrz
  2511     025D  1803               	skipnc
  2512     025E  3E01               	addlw	1
  2513     025F  1903               	skipnz
  2514     0260  2A62               	goto	u3002
  2515     0261  07C4               	addwf	(___flmul@prod+2)^(0+128),f
  2516     0262                     u3002:
  2517     0262  0839               	movf	(??___flmul+3)^(0+128),w
  2518     0263  1103               	clrz
  2519     0264  1803               	skipnc
  2520     0265  3E01               	addlw	1
  2521     0266  1903               	skipnz
  2522     0267  2A69               	goto	u3003
  2523     0268  07C5               	addwf	(___flmul@prod+3)^(0+128),f
  2524     0269                     u3003:
  2525     0269                     l2297:
  2526     0269  083C               	movf	___flmul@grs^(0+128),w
  2527     026A  00B6               	movwf	??___flmul^(0+128)
  2528     026B  083D               	movf	(___flmul@grs+1)^(0+128),w
  2529     026C  00B7               	movwf	(??___flmul^(0+128)+1)
  2530     026D  083E               	movf	(___flmul@grs+2)^(0+128),w
  2531     026E  00B8               	movwf	(??___flmul^(0+128)+2)
  2532     026F  083F               	movf	(___flmul@grs+3)^(0+128),w
  2533     0270  00B9               	movwf	(??___flmul^(0+128)+3)
  2534     0271  3018               	movlw	24
  2535     0272                     u3015:
  2536     0272  1003               	clrc
  2537     0273  0CB9               	rrf	(??___flmul^(0+128)+3),f
  2538     0274  0CB8               	rrf	(??___flmul^(0+128)+2),f
  2539     0275  0CB7               	rrf	(??___flmul^(0+128)+1),f
  2540     0276  0CB6               	rrf	??___flmul^(0+128),f
  2541     0277                     u3010:
  2542     0277  3EFF               	addlw	-1
  2543     0278  1D03               	skipz
  2544     0279  2A72               	goto	u3015
  2545     027A  0836               	movf	??___flmul^(0+128),w
  2546     027B  07C2               	addwf	___flmul@prod^(0+128),f
  2547     027C  0837               	movf	(??___flmul+1)^(0+128),w
  2548     027D  1103               	clrz
  2549     027E  1803               	skipnc
  2550     027F  3E01               	addlw	1
  2551     0280  1903               	skipnz
  2552     0281  2A83               	goto	u3021
  2553     0282  07C3               	addwf	(___flmul@prod+1)^(0+128),f
  2554     0283                     u3021:
  2555     0283  0838               	movf	(??___flmul+2)^(0+128),w
  2556     0284  1103               	clrz
  2557     0285  1803               	skipnc
  2558     0286  3E01               	addlw	1
  2559     0287  1903               	skipnz
  2560     0288  2A8A               	goto	u3022
  2561     0289  07C4               	addwf	(___flmul@prod+2)^(0+128),f
  2562     028A                     u3022:
  2563     028A  0839               	movf	(??___flmul+3)^(0+128),w
  2564     028B  1103               	clrz
  2565     028C  1803               	skipnc
  2566     028D  3E01               	addlw	1
  2567     028E  1903               	skipnz
  2568     028F  2A91               	goto	u3023
  2569     0290  07C5               	addwf	(___flmul@prod+3)^(0+128),f
  2570     0291                     u3023:
  2571     0291                     l2299:
  2572     0291  3008               	movlw	8
  2573     0292  00B6               	movwf	??___flmul^(0+128)
  2574     0293                     u3035:
  2575     0293  1003               	clrc
  2576     0294  0DBC               	rlf	___flmul@grs^(0+128),f
  2577     0295  0DBD               	rlf	(___flmul@grs+1)^(0+128),f
  2578     0296  0DBE               	rlf	(___flmul@grs+2)^(0+128),f
  2579     0297  0DBF               	rlf	(___flmul@grs+3)^(0+128),f
  2580     0298  0BB6               	decfsz	??___flmul^(0+128),f
  2581     0299  2A93               	goto	u3035
  2582     029A                     l2301:
  2583     029A  0841               	movf	___flmul@bexp^(0+128),w
  2584     029B  0740               	addwf	___flmul@aexp^(0+128),w
  2585     029C  00B6               	movwf	??___flmul^(0+128)
  2586     029D  01B7               	clrf	(??___flmul^(0+128)+1)
  2587     029E  0DB7               	rlf	(??___flmul+1)^(0+128),f
  2588     029F  0836               	movf	??___flmul^(0+128),w
  2589     02A0  3E82               	addlw	130
  2590     02A1  00C6               	movwf	___flmul@temp^(0+128)
  2591     02A2  0837               	movf	(??___flmul+1)^(0+128),w
  2592     02A3  1803               	skipnc
  2593     02A4  3E01               	addlw	1
  2594     02A5  3EFF               	addlw	255
  2595     02A6  00C7               	movwf	(___flmul@temp+1)^(0+128)
  2596     02A7  2AC5               	goto	l2313
  2597     02A8                     l2303:
  2598     02A8  3001               	movlw	1
  2599     02A9  00B6               	movwf	??___flmul^(0+128)
  2600     02AA                     u3045:
  2601     02AA  1003               	clrc
  2602     02AB  0DC2               	rlf	___flmul@prod^(0+128),f
  2603     02AC  0DC3               	rlf	(___flmul@prod+1)^(0+128),f
  2604     02AD  0DC4               	rlf	(___flmul@prod+2)^(0+128),f
  2605     02AE  0DC5               	rlf	(___flmul@prod+3)^(0+128),f
  2606     02AF  0BB6               	decfsz	??___flmul^(0+128),f
  2607     02B0  2AAA               	goto	u3045
  2608     02B1                     l2305:
  2609     02B1  1FBF               	btfss	(___flmul@grs+3)^(0+128),7
  2610     02B2  2AB4               	goto	u3051
  2611     02B3  2AB5               	goto	u3050
  2612     02B4                     u3051:
  2613     02B4  2AB6               	goto	l2309
  2614     02B5                     u3050:
  2615     02B5                     l2307:
  2616     02B5  1442               	bsf	___flmul@prod^(0+128),0
  2617     02B6                     l2309:
  2618     02B6  3001               	movlw	1
  2619     02B7  00B6               	movwf	??___flmul^(0+128)
  2620     02B8                     u3065:
  2621     02B8  1003               	clrc
  2622     02B9  0DBC               	rlf	___flmul@grs^(0+128),f
  2623     02BA  0DBD               	rlf	(___flmul@grs+1)^(0+128),f
  2624     02BB  0DBE               	rlf	(___flmul@grs+2)^(0+128),f
  2625     02BC  0DBF               	rlf	(___flmul@grs+3)^(0+128),f
  2626     02BD  0BB6               	decfsz	??___flmul^(0+128),f
  2627     02BE  2AB8               	goto	u3065
  2628     02BF                     l2311:
  2629     02BF  30FF               	movlw	255
  2630     02C0  07C6               	addwf	___flmul@temp^(0+128),f
  2631     02C1  1803               	skipnc
  2632     02C2  0AC7               	incf	(___flmul@temp+1)^(0+128),f
  2633     02C3  30FF               	movlw	255
  2634     02C4  07C7               	addwf	(___flmul@temp+1)^(0+128),f
  2635     02C5                     l2313:
  2636     02C5  1FC4               	btfss	(___flmul@prod+2)^(0+128),7
  2637     02C6  2AC8               	goto	u3071
  2638     02C7  2AC9               	goto	u3070
  2639     02C8                     u3071:
  2640     02C8  2AA8               	goto	l2303
  2641     02C9                     u3070:
  2642     02C9                     l2315:
  2643     02C9  01C0               	clrf	___flmul@aexp^(0+128)
  2644     02CA                     l2317:
  2645     02CA  1FBF               	btfss	(___flmul@grs+3)^(0+128),7
  2646     02CB  2ACD               	goto	u3081
  2647     02CC  2ACE               	goto	u3080
  2648     02CD                     u3081:
  2649     02CD  2AEA               	goto	l2325
  2650     02CE                     u3080:
  2651     02CE                     l2319:
  2652     02CE  30FF               	movlw	255
  2653     02CF  053C               	andwf	___flmul@grs^(0+128),w
  2654     02D0  00B6               	movwf	??___flmul^(0+128)
  2655     02D1  30FF               	movlw	255
  2656     02D2  053D               	andwf	(___flmul@grs+1)^(0+128),w
  2657     02D3  00B7               	movwf	(??___flmul^(0+128)+1)
  2658     02D4  30FF               	movlw	255
  2659     02D5  053E               	andwf	(___flmul@grs+2)^(0+128),w
  2660     02D6  00B8               	movwf	(??___flmul^(0+128)+2)
  2661     02D7  307F               	movlw	127
  2662     02D8  053F               	andwf	(___flmul@grs+3)^(0+128),w
  2663     02D9  00B9               	movwf	(??___flmul^(0+128)+3)
  2664     02DA  0839               	movf	(??___flmul+3)^(0+128),w
  2665     02DB  0438               	iorwf	(??___flmul+2)^(0+128),w
  2666     02DC  0437               	iorwf	(??___flmul+1)^(0+128),w
  2667     02DD  0436               	iorwf	??___flmul^(0+128),w
  2668     02DE  1903               	skipnz
  2669     02DF  2AE1               	goto	u3091
  2670     02E0  2AE2               	goto	u3090
  2671     02E1                     u3091:
  2672     02E1  2AE5               	goto	l758
  2673     02E2                     u3090:
  2674     02E2                     l2321:
  2675     02E2  01C0               	clrf	___flmul@aexp^(0+128)
  2676     02E3  0AC0               	incf	___flmul@aexp^(0+128),f
  2677     02E4  2AEA               	goto	l2325
  2678     02E5                     l758:
  2679     02E5  1C42               	btfss	___flmul@prod^(0+128),0
  2680     02E6  2AE8               	goto	u3101
  2681     02E7  2AE9               	goto	u3100
  2682     02E8                     u3101:
  2683     02E8  2AEA               	goto	l2325
  2684     02E9                     u3100:
  2685     02E9  2AE2               	goto	l2321
  2686     02EA                     l2325:
  2687     02EA  0840               	movf	___flmul@aexp^(0+128),w
  2688     02EB  1903               	btfsc	3,2
  2689     02EC  2AEE               	goto	u3111
  2690     02ED  2AEF               	goto	u3110
  2691     02EE                     u3111:
  2692     02EE  2B20               	goto	l2335
  2693     02EF                     u3110:
  2694     02EF                     l2327:
  2695     02EF  3001               	movlw	1
  2696     02F0  07C2               	addwf	___flmul@prod^(0+128),f
  2697     02F1  3000               	movlw	0
  2698     02F2  1803               	skipnc
  2699     02F3  3001               	movlw	1
  2700     02F4  07C3               	addwf	(___flmul@prod+1)^(0+128),f
  2701     02F5  3000               	movlw	0
  2702     02F6  1803               	skipnc
  2703     02F7  3001               	movlw	1
  2704     02F8  07C4               	addwf	(___flmul@prod+2)^(0+128),f
  2705     02F9  3000               	movlw	0
  2706     02FA  1803               	skipnc
  2707     02FB  3001               	movlw	1
  2708     02FC  07C5               	addwf	(___flmul@prod+3)^(0+128),f
  2709     02FD                     l2329:
  2710     02FD  1C45               	btfss	(___flmul@prod+3)^(0+128),0
  2711     02FE  2B00               	goto	u3121
  2712     02FF  2B01               	goto	u3120
  2713     0300                     u3121:
  2714     0300  2B20               	goto	l2335
  2715     0301                     u3120:
  2716     0301                     l2331:
  2717     0301  0842               	movf	___flmul@prod^(0+128),w
  2718     0302  00B6               	movwf	??___flmul^(0+128)
  2719     0303  0843               	movf	(___flmul@prod+1)^(0+128),w
  2720     0304  00B7               	movwf	(??___flmul^(0+128)+1)
  2721     0305  0844               	movf	(___flmul@prod+2)^(0+128),w
  2722     0306  00B8               	movwf	(??___flmul^(0+128)+2)
  2723     0307  0845               	movf	(___flmul@prod+3)^(0+128),w
  2724     0308  00B9               	movwf	(??___flmul^(0+128)+3)
  2725     0309  3001               	movlw	1
  2726     030A  00BA               	movwf	(??___flmul+4)^(0+128)
  2727     030B                     u3135:
  2728     030B  0D39               	rlf	(??___flmul^(0+128)+3),w
  2729     030C  0CB9               	rrf	(??___flmul^(0+128)+3),f
  2730     030D  0CB8               	rrf	(??___flmul^(0+128)+2),f
  2731     030E  0CB7               	rrf	(??___flmul^(0+128)+1),f
  2732     030F  0CB6               	rrf	??___flmul^(0+128),f
  2733     0310                     u3130:
  2734     0310  0BBA               	decfsz	(??___flmul+4)^(0+128),f
  2735     0311  2B0B               	goto	u3135
  2736     0312  0839               	movf	(??___flmul+3)^(0+128),w
  2737     0313  00C5               	movwf	(___flmul@prod+3)^(0+128)
  2738     0314  0838               	movf	(??___flmul+2)^(0+128),w
  2739     0315  00C4               	movwf	(___flmul@prod+2)^(0+128)
  2740     0316  0837               	movf	(??___flmul+1)^(0+128),w
  2741     0317  00C3               	movwf	(___flmul@prod+1)^(0+128)
  2742     0318  0836               	movf	??___flmul^(0+128),w
  2743     0319  00C2               	movwf	___flmul@prod^(0+128)
  2744     031A                     l2333:
  2745     031A  3001               	movlw	1
  2746     031B  07C6               	addwf	___flmul@temp^(0+128),f
  2747     031C  1803               	skipnc
  2748     031D  0AC7               	incf	(___flmul@temp+1)^(0+128),f
  2749     031E  3000               	movlw	0
  2750     031F  07C7               	addwf	(___flmul@temp+1)^(0+128),f
  2751     0320                     l2335:
  2752     0320  0847               	movf	(___flmul@temp+1)^(0+128),w
  2753     0321  3A80               	xorlw	128
  2754     0322  00FF               	movwf	btemp+1
  2755     0323  3080               	movlw	128
  2756     0324  027F               	subwf	btemp+1,w
  2757     0325  1D03               	skipz
  2758     0326  2B29               	goto	u3145
  2759     0327  30FF               	movlw	255
  2760     0328  0246               	subwf	___flmul@temp^(0+128),w
  2761     0329                     u3145:
  2762     0329  1C03               	skipc
  2763     032A  2B2C               	goto	u3141
  2764     032B  2B2D               	goto	u3140
  2765     032C                     u3141:
  2766     032C  2B38               	goto	l2339
  2767     032D                     u3140:
  2768     032D                     l2337:
  2769     032D  307F               	movlw	127
  2770     032E  1683               	bsf	3,5	;RP0=1, select bank1
  2771     032F  1303               	bcf	3,6	;RP1=0, select bank1
  2772     0330  00C5               	movwf	(___flmul@prod+3)^(0+128)
  2773     0331  3080               	movlw	128
  2774     0332  00C4               	movwf	(___flmul@prod+2)^(0+128)
  2775     0333  3000               	movlw	0
  2776     0334  00C3               	movwf	(___flmul@prod+1)^(0+128)
  2777     0335  3000               	movlw	0
  2778     0336  00C2               	movwf	___flmul@prod^(0+128)
  2779     0337  2B69               	goto	l764
  2780     0338                     l2339:
  2781     0338  1683               	bsf	3,5	;RP0=1, select bank1
  2782     0339  1303               	bcf	3,6	;RP1=0, select bank1
  2783     033A  0847               	movf	(___flmul@temp+1)^(0+128),w
  2784     033B  3A80               	xorlw	128
  2785     033C  00FF               	movwf	btemp+1
  2786     033D  3080               	movlw	128
  2787     033E  027F               	subwf	btemp+1,w
  2788     033F  1D03               	skipz
  2789     0340  2B43               	goto	u3155
  2790     0341  3001               	movlw	1
  2791     0342  0246               	subwf	___flmul@temp^(0+128),w
  2792     0343                     u3155:
  2793     0343  1803               	skipnc
  2794     0344  2B46               	goto	u3151
  2795     0345  2B47               	goto	u3150
  2796     0346                     u3151:
  2797     0346  2B53               	goto	l2345
  2798     0347                     u3150:
  2799     0347                     l2341:
  2800     0347  3000               	movlw	0
  2801     0348  1683               	bsf	3,5	;RP0=1, select bank1
  2802     0349  1303               	bcf	3,6	;RP1=0, select bank1
  2803     034A  00C5               	movwf	(___flmul@prod+3)^(0+128)
  2804     034B  3000               	movlw	0
  2805     034C  00C4               	movwf	(___flmul@prod+2)^(0+128)
  2806     034D  3000               	movlw	0
  2807     034E  00C3               	movwf	(___flmul@prod+1)^(0+128)
  2808     034F  3000               	movlw	0
  2809     0350  00C2               	movwf	___flmul@prod^(0+128)
  2810     0351                     l2343:
  2811     0351  01BB               	clrf	___flmul@sign^(0+128)
  2812     0352  2B69               	goto	l764
  2813     0353                     l2345:
  2814     0353  1683               	bsf	3,5	;RP0=1, select bank1
  2815     0354  1303               	bcf	3,6	;RP1=0, select bank1
  2816     0355  0846               	movf	___flmul@temp^(0+128),w
  2817     0356  00C1               	movwf	___flmul@bexp^(0+128)
  2818     0357  30FF               	movlw	255
  2819     0358  05C2               	andwf	___flmul@prod^(0+128),f
  2820     0359  30FF               	movlw	255
  2821     035A  05C3               	andwf	(___flmul@prod+1)^(0+128),f
  2822     035B  307F               	movlw	127
  2823     035C  05C4               	andwf	(___flmul@prod+2)^(0+128),f
  2824     035D  3000               	movlw	0
  2825     035E  05C5               	andwf	(___flmul@prod+3)^(0+128),f
  2826     035F                     l2347:
  2827     035F  1C41               	btfss	___flmul@bexp^(0+128),0
  2828     0360  2B62               	goto	u3161
  2829     0361  2B63               	goto	u3160
  2830     0362                     u3161:
  2831     0362  2B64               	goto	l2351
  2832     0363                     u3160:
  2833     0363                     l2349:
  2834     0363  17C4               	bsf	(___flmul@prod^(0+128)+2),7
  2835     0364                     l2351:
  2836     0364  0841               	movf	___flmul@bexp^(0+128),w
  2837     0365  00B6               	movwf	??___flmul^(0+128)
  2838     0366  1003               	clrc
  2839     0367  0C36               	rrf	??___flmul^(0+128),w
  2840     0368  00C5               	movwf	(___flmul@prod^(0+128)+3)
  2841     0369                     l764:
  2842     0369  083B               	movf	___flmul@sign^(0+128),w
  2843     036A  00B6               	movwf	??___flmul^(0+128)
  2844     036B  0836               	movf	??___flmul^(0+128),w
  2845     036C  04C5               	iorwf	(___flmul@prod^(0+128)+3),f
  2846     036D                     l2353:
  2847     036D  0845               	movf	(___flmul@prod+3)^(0+128),w
  2848     036E  00B1               	movwf	(?___flmul+3)^(0+128)
  2849     036F  0844               	movf	(___flmul@prod+2)^(0+128),w
  2850     0370  00B0               	movwf	(?___flmul+2)^(0+128)
  2851     0371  0843               	movf	(___flmul@prod+1)^(0+128),w
  2852     0372  00AF               	movwf	(?___flmul+1)^(0+128)
  2853     0373  0842               	movf	___flmul@prod^(0+128),w
  2854     0374  00AE               	movwf	?___flmul^(0+128)
  2855     0375                     l752:
  2856     0375  0008               	return
  2857     0376                     __end_of___flmul:
  2858                           
  2859                           	psect	text5
  2860     17D7                     __ptext5:	
  2861 ;; *************** function __Umul8_16 *****************
  2862 ;; Defined at:
  2863 ;;		line 4 in file "C:\Program Files\Microchip\xc8\v2.40\pic\sources\c90\common\Umul8_16.c"
  2864 ;; Parameters:    Size  Location     Type
  2865 ;;  multiplier      1    wreg     unsigned char 
  2866 ;;  multiplicand    1    0[BANK1 ] unsigned char 
  2867 ;; Auto vars:     Size  Location     Type
  2868 ;;  multiplier      1    8[BANK1 ] unsigned char 
  2869 ;;  word_mpld       2    6[BANK1 ] unsigned int 
  2870 ;;  product         2    4[BANK1 ] unsigned int 
  2871 ;; Return value:  Size  Location     Type
  2872 ;;                  2    0[BANK1 ] unsigned int 
  2873 ;; Registers used:
  2874 ;;		wreg, status,2, status,0
  2875 ;; Tracked objects:
  2876 ;;		On entry : 0/0
  2877 ;;		On exit  : 0/0
  2878 ;;		Unchanged: 0/0
  2879 ;; Data sizes:     COMMON   BANK0   BANK1   BANK3   BANK2
  2880 ;;      Params:         0       0       2       0       0
  2881 ;;      Locals:         0       0       5       0       0
  2882 ;;      Temps:          0       0       2       0       0
  2883 ;;      Totals:         0       0       9       0       0
  2884 ;;Total ram usage:        9 bytes
  2885 ;; Hardware stack levels used: 1
  2886 ;; Hardware stack levels required when called: 4
  2887 ;; This function calls:
  2888 ;;		Nothing
  2889 ;; This function is called by:
  2890 ;;		___flmul
  2891 ;; This function uses a non-reentrant model
  2892 ;;
  2893                           
  2894     17D7                     __Umul8_16:	
  2895                           ;psect for function __Umul8_16
  2896                           
  2897                           
  2898                           ;incstack = 0
  2899                           ; Regs used in __Umul8_16: [wreg+status,2+status,0]
  2900                           ;__Umul8_16@multiplier stored from wreg
  2901     17D7  1683               	bsf	3,5	;RP0=1, select bank1
  2902     17D8  1303               	bcf	3,6	;RP1=0, select bank1
  2903     17D9  00A8               	movwf	__Umul8_16@multiplier^(0+128)
  2904     17DA                     l1987:
  2905     17DA  01A4               	clrf	__Umul8_16@product^(0+128)
  2906     17DB  01A5               	clrf	(__Umul8_16@product+1)^(0+128)
  2907     17DC                     l1989:
  2908     17DC  0820               	movf	__Umul8_16@multiplicand^(0+128),w
  2909     17DD  00A2               	movwf	??__Umul8_16^(0+128)
  2910     17DE  01A3               	clrf	(??__Umul8_16^(0+128)+1)
  2911     17DF  0822               	movf	??__Umul8_16^(0+128),w
  2912     17E0  00A6               	movwf	__Umul8_16@word_mpld^(0+128)
  2913     17E1  0823               	movf	(??__Umul8_16+1)^(0+128),w
  2914     17E2  00A7               	movwf	(__Umul8_16@word_mpld+1)^(0+128)
  2915     17E3                     l1991:
  2916     17E3  1C28               	btfss	__Umul8_16@multiplier^(0+128),0
  2917     17E4  2FE6               	goto	u2351
  2918     17E5  2FE7               	goto	u2350
  2919     17E6                     u2351:
  2920     17E6  2FED               	goto	l771
  2921     17E7                     u2350:
  2922     17E7                     l1993:
  2923     17E7  0826               	movf	__Umul8_16@word_mpld^(0+128),w
  2924     17E8  07A4               	addwf	__Umul8_16@product^(0+128),f
  2925     17E9  1803               	skipnc
  2926     17EA  0AA5               	incf	(__Umul8_16@product+1)^(0+128),f
  2927     17EB  0827               	movf	(__Umul8_16@word_mpld+1)^(0+128),w
  2928     17EC  07A5               	addwf	(__Umul8_16@product+1)^(0+128),f
  2929     17ED                     l771:
  2930     17ED  3001               	movlw	1
  2931     17EE                     u2365:
  2932     17EE  1003               	clrc
  2933     17EF  0DA6               	rlf	__Umul8_16@word_mpld^(0+128),f
  2934     17F0  0DA7               	rlf	(__Umul8_16@word_mpld+1)^(0+128),f
  2935     17F1  3EFF               	addlw	-1
  2936     17F2  1D03               	skipz
  2937     17F3  2FEE               	goto	u2365
  2938     17F4  1003               	clrc
  2939     17F5  0CA8               	rrf	__Umul8_16@multiplier^(0+128),f
  2940     17F6                     l1995:
  2941     17F6  0828               	movf	__Umul8_16@multiplier^(0+128),w
  2942     17F7  1D03               	btfss	3,2
  2943     17F8  2FFA               	goto	u2371
  2944     17F9  2FFB               	goto	u2370
  2945     17FA                     u2371:
  2946     17FA  2FE3               	goto	l1991
  2947     17FB                     u2370:
  2948     17FB                     l1997:
  2949     17FB  0825               	movf	(__Umul8_16@product+1)^(0+128),w
  2950     17FC  00A1               	movwf	(?__Umul8_16+1)^(0+128)
  2951     17FD  0824               	movf	__Umul8_16@product^(0+128),w
  2952     17FE  00A0               	movwf	?__Umul8_16^(0+128)
  2953     17FF                     l773:
  2954     17FF  0008               	return
  2955     1800                     __end_of__Umul8_16:
  2956                           
  2957                           	psect	text6
  2958     0E2D                     __ptext6:	
  2959 ;; *************** function ___fldiv *****************
  2960 ;; Defined at:
  2961 ;;		line 8 in file "C:\Program Files\Microchip\xc8\v2.40\pic\sources\c90\common\sprcdiv.c"
  2962 ;; Parameters:    Size  Location     Type
  2963 ;;  a               4   40[BANK1 ] unsigned int 
  2964 ;;  b               4   44[BANK1 ] unsigned int 
  2965 ;; Auto vars:     Size  Location     Type
  2966 ;;  grs             4   60[BANK1 ] unsigned long 
  2967 ;;  rem             4   53[BANK1 ] unsigned long 
  2968 ;;  new_exp         2   58[BANK1 ] int 
  2969 ;;  aexp            1   65[BANK1 ] unsigned char 
  2970 ;;  bexp            1   64[BANK1 ] unsigned char 
  2971 ;;  sign            1   57[BANK1 ] unsigned char 
  2972 ;; Return value:  Size  Location     Type
  2973 ;;                  4   40[BANK1 ] unsigned char 
  2974 ;; Registers used:
  2975 ;;		wreg, status,2, status,0, btemp+1
  2976 ;; Tracked objects:
  2977 ;;		On entry : 0/0
  2978 ;;		On exit  : 0/0
  2979 ;;		Unchanged: 0/0
  2980 ;; Data sizes:     COMMON   BANK0   BANK1   BANK3   BANK2
  2981 ;;      Params:         0       0       8       0       0
  2982 ;;      Locals:         0       0      13       0       0
  2983 ;;      Temps:          0       0       5       0       0
  2984 ;;      Totals:         0       0      26       0       0
  2985 ;;Total ram usage:       26 bytes
  2986 ;; Hardware stack levels used: 1
  2987 ;; Hardware stack levels required when called: 4
  2988 ;; This function calls:
  2989 ;;		Nothing
  2990 ;; This function is called by:
  2991 ;;		_ultrasonic_measure_distance
  2992 ;;		_floattostr
  2993 ;; This function uses a non-reentrant model
  2994 ;;
  2995                           
  2996     0E2D                     ___fldiv:	
  2997                           ;psect for function ___fldiv
  2998                           
  2999     0E2D                     l2075:	
  3000                           ;incstack = 0
  3001                           ; Regs used in ___fldiv: [wreg+status,2+status,0+btemp+1]
  3002                           
  3003     0E2D  1683               	bsf	3,5	;RP0=1, select bank1
  3004     0E2E  1303               	bcf	3,6	;RP1=0, select bank1
  3005     0E2F  084F               	movf	(___fldiv@b^(0+128)+3),w
  3006     0E30  3980               	andlw	128
  3007     0E31  00D9               	movwf	___fldiv@sign^(0+128)
  3008     0E32                     l2077:
  3009     0E32  084F               	movf	(___fldiv@b^(0+128)+3),w
  3010     0E33  00D0               	movwf	??___fldiv^(0+128)
  3011     0E34  0750               	addwf	??___fldiv^(0+128),w
  3012     0E35  00E0               	movwf	___fldiv@bexp^(0+128)
  3013     0E36                     l2079:
  3014     0E36  1FCE               	btfss	(___fldiv@b^(0+128)+2),7
  3015     0E37  2E39               	goto	u2511
  3016     0E38  2E3A               	goto	u2510
  3017     0E39                     u2511:
  3018     0E39  2E3B               	goto	l2083
  3019     0E3A                     u2510:
  3020     0E3A                     l2081:
  3021     0E3A  1460               	bsf	___fldiv@bexp^(0+128),0
  3022     0E3B                     l2083:
  3023     0E3B  0860               	movf	___fldiv@bexp^(0+128),w
  3024     0E3C  1903               	btfsc	3,2
  3025     0E3D  2E3F               	goto	u2521
  3026     0E3E  2E40               	goto	u2520
  3027     0E3F                     u2521:
  3028     0E3F  2E50               	goto	l2093
  3029     0E40                     u2520:
  3030     0E40                     l2085:
  3031     0E40  0A60               	incf	___fldiv@bexp^(0+128),w
  3032     0E41  1D03               	btfss	3,2
  3033     0E42  2E44               	goto	u2531
  3034     0E43  2E45               	goto	u2530
  3035     0E44                     u2531:
  3036     0E44  2E4D               	goto	l2089
  3037     0E45                     u2530:
  3038     0E45                     l2087:
  3039     0E45  3000               	movlw	0
  3040     0E46  00CF               	movwf	(___fldiv@b+3)^(0+128)
  3041     0E47  3000               	movlw	0
  3042     0E48  00CE               	movwf	(___fldiv@b+2)^(0+128)
  3043     0E49  3000               	movlw	0
  3044     0E4A  00CD               	movwf	(___fldiv@b+1)^(0+128)
  3045     0E4B  3000               	movlw	0
  3046     0E4C  00CC               	movwf	___fldiv@b^(0+128)
  3047     0E4D                     l2089:
  3048     0E4D  17CE               	bsf	(___fldiv@b^(0+128)+2),7
  3049     0E4E                     l2091:
  3050     0E4E  01CF               	clrf	(___fldiv@b^(0+128)+3)
  3051     0E4F  2E58               	goto	l2095
  3052     0E50                     l2093:
  3053     0E50  3000               	movlw	0
  3054     0E51  00CF               	movwf	(___fldiv@b+3)^(0+128)
  3055     0E52  3000               	movlw	0
  3056     0E53  00CE               	movwf	(___fldiv@b+2)^(0+128)
  3057     0E54  3000               	movlw	0
  3058     0E55  00CD               	movwf	(___fldiv@b+1)^(0+128)
  3059     0E56  3000               	movlw	0
  3060     0E57  00CC               	movwf	___fldiv@b^(0+128)
  3061     0E58                     l2095:
  3062     0E58  084B               	movf	(___fldiv@a^(0+128)+3),w
  3063     0E59  3980               	andlw	128
  3064     0E5A  00D0               	movwf	??___fldiv^(0+128)
  3065     0E5B  0850               	movf	??___fldiv^(0+128),w
  3066     0E5C  06D9               	xorwf	___fldiv@sign^(0+128),f
  3067     0E5D                     l2097:
  3068     0E5D  084B               	movf	(___fldiv@a^(0+128)+3),w
  3069     0E5E  00D0               	movwf	??___fldiv^(0+128)
  3070     0E5F  0750               	addwf	??___fldiv^(0+128),w
  3071     0E60  00E1               	movwf	___fldiv@aexp^(0+128)
  3072     0E61                     l2099:
  3073     0E61  1FCA               	btfss	(___fldiv@a^(0+128)+2),7
  3074     0E62  2E64               	goto	u2541
  3075     0E63  2E65               	goto	u2540
  3076     0E64                     u2541:
  3077     0E64  2E66               	goto	l2103
  3078     0E65                     u2540:
  3079     0E65                     l2101:
  3080     0E65  1461               	bsf	___fldiv@aexp^(0+128),0
  3081     0E66                     l2103:
  3082     0E66  0861               	movf	___fldiv@aexp^(0+128),w
  3083     0E67  1903               	btfsc	3,2
  3084     0E68  2E6A               	goto	u2551
  3085     0E69  2E6B               	goto	u2550
  3086     0E6A                     u2551:
  3087     0E6A  2E7B               	goto	l2113
  3088     0E6B                     u2550:
  3089     0E6B                     l2105:
  3090     0E6B  0A61               	incf	___fldiv@aexp^(0+128),w
  3091     0E6C  1D03               	btfss	3,2
  3092     0E6D  2E6F               	goto	u2561
  3093     0E6E  2E70               	goto	u2560
  3094     0E6F                     u2561:
  3095     0E6F  2E78               	goto	l2109
  3096     0E70                     u2560:
  3097     0E70                     l2107:
  3098     0E70  3000               	movlw	0
  3099     0E71  00CB               	movwf	(___fldiv@a+3)^(0+128)
  3100     0E72  3000               	movlw	0
  3101     0E73  00CA               	movwf	(___fldiv@a+2)^(0+128)
  3102     0E74  3000               	movlw	0
  3103     0E75  00C9               	movwf	(___fldiv@a+1)^(0+128)
  3104     0E76  3000               	movlw	0
  3105     0E77  00C8               	movwf	___fldiv@a^(0+128)
  3106     0E78                     l2109:
  3107     0E78  17CA               	bsf	(___fldiv@a^(0+128)+2),7
  3108     0E79                     l2111:
  3109     0E79  01CB               	clrf	(___fldiv@a^(0+128)+3)
  3110     0E7A  2E83               	goto	l712
  3111     0E7B                     l2113:
  3112     0E7B  3000               	movlw	0
  3113     0E7C  00CB               	movwf	(___fldiv@a+3)^(0+128)
  3114     0E7D  3000               	movlw	0
  3115     0E7E  00CA               	movwf	(___fldiv@a+2)^(0+128)
  3116     0E7F  3000               	movlw	0
  3117     0E80  00C9               	movwf	(___fldiv@a+1)^(0+128)
  3118     0E81  3000               	movlw	0
  3119     0E82  00C8               	movwf	___fldiv@a^(0+128)
  3120     0E83                     l712:
  3121     0E83  084B               	movf	(___fldiv@a+3)^(0+128),w
  3122     0E84  044A               	iorwf	(___fldiv@a+2)^(0+128),w
  3123     0E85  0449               	iorwf	(___fldiv@a+1)^(0+128),w
  3124     0E86  0448               	iorwf	___fldiv@a^(0+128),w
  3125     0E87  1D03               	skipz
  3126     0E88  2E8A               	goto	u2571
  3127     0E89  2E8B               	goto	u2570
  3128     0E8A                     u2571:
  3129     0E8A  2EA4               	goto	l2123
  3130     0E8B                     u2570:
  3131     0E8B                     l2115:
  3132     0E8B  3000               	movlw	0
  3133     0E8C  00CF               	movwf	(___fldiv@b+3)^(0+128)
  3134     0E8D  3000               	movlw	0
  3135     0E8E  00CE               	movwf	(___fldiv@b+2)^(0+128)
  3136     0E8F  3000               	movlw	0
  3137     0E90  00CD               	movwf	(___fldiv@b+1)^(0+128)
  3138     0E91  3000               	movlw	0
  3139     0E92  00CC               	movwf	___fldiv@b^(0+128)
  3140     0E93  3080               	movlw	128
  3141     0E94  04CE               	iorwf	(___fldiv@b^(0+128)+2),f
  3142     0E95  307F               	movlw	127
  3143     0E96  04CF               	iorwf	((___fldiv@b+1)^(0+128)+2),f
  3144     0E97                     l2117:
  3145     0E97  0859               	movf	___fldiv@sign^(0+128),w
  3146     0E98  00D0               	movwf	??___fldiv^(0+128)
  3147     0E99  0850               	movf	??___fldiv^(0+128),w
  3148     0E9A  04CF               	iorwf	(___fldiv@b^(0+128)+3),f
  3149     0E9B                     l2119:
  3150     0E9B  084F               	movf	(___fldiv@b+3)^(0+128),w
  3151     0E9C  00CB               	movwf	(?___fldiv+3)^(0+128)
  3152     0E9D  084E               	movf	(___fldiv@b+2)^(0+128),w
  3153     0E9E  00CA               	movwf	(?___fldiv+2)^(0+128)
  3154     0E9F  084D               	movf	(___fldiv@b+1)^(0+128),w
  3155     0EA0  00C9               	movwf	(?___fldiv+1)^(0+128)
  3156     0EA1  084C               	movf	___fldiv@b^(0+128),w
  3157     0EA2  00C8               	movwf	?___fldiv^(0+128)
  3158     0EA3  2FFF               	goto	l714
  3159     0EA4                     l2123:
  3160     0EA4  0860               	movf	___fldiv@bexp^(0+128),w
  3161     0EA5  1D03               	btfss	3,2
  3162     0EA6  2EA8               	goto	u2581
  3163     0EA7  2EA9               	goto	u2580
  3164     0EA8                     u2581:
  3165     0EA8  2EB2               	goto	l2129
  3166     0EA9                     u2580:
  3167     0EA9                     l2125:
  3168     0EA9  3000               	movlw	0
  3169     0EAA  00CB               	movwf	(?___fldiv+3)^(0+128)
  3170     0EAB  3000               	movlw	0
  3171     0EAC  00CA               	movwf	(?___fldiv+2)^(0+128)
  3172     0EAD  3000               	movlw	0
  3173     0EAE  00C9               	movwf	(?___fldiv+1)^(0+128)
  3174     0EAF  3000               	movlw	0
  3175     0EB0  00C8               	movwf	?___fldiv^(0+128)
  3176     0EB1  2FFF               	goto	l714
  3177     0EB2                     l2129:
  3178     0EB2  0860               	movf	___fldiv@bexp^(0+128),w
  3179     0EB3  00D0               	movwf	??___fldiv^(0+128)
  3180     0EB4  01D1               	clrf	(??___fldiv^(0+128)+1)
  3181     0EB5  0851               	movf	(??___fldiv+1)^(0+128),w
  3182     0EB6  00D3               	movwf	((??___fldiv+2)^(0+128)+1)
  3183     0EB7  0861               	movf	___fldiv@aexp^(0+128),w
  3184     0EB8  0250               	subwf	??___fldiv^(0+128),w
  3185     0EB9  00D2               	movwf	(??___fldiv+2)^(0+128)
  3186     0EBA  1C03               	skipc
  3187     0EBB  03D3               	decf	((??___fldiv+2)^(0+128)+1),f
  3188     0EBC  0852               	movf	(??___fldiv+2)^(0+128),w
  3189     0EBD  3E7F               	addlw	127
  3190     0EBE  00DA               	movwf	___fldiv@new_exp^(0+128)
  3191     0EBF  0853               	movf	(??___fldiv+3)^(0+128),w
  3192     0EC0  1803               	skipnc
  3193     0EC1  3E01               	addlw	1
  3194     0EC2  3E00               	addlw	0
  3195     0EC3  00DB               	movwf	(___fldiv@new_exp+1)^(0+128)
  3196     0EC4                     l2131:
  3197     0EC4  084F               	movf	(___fldiv@b+3)^(0+128),w
  3198     0EC5  00D8               	movwf	(___fldiv@rem+3)^(0+128)
  3199     0EC6  084E               	movf	(___fldiv@b+2)^(0+128),w
  3200     0EC7  00D7               	movwf	(___fldiv@rem+2)^(0+128)
  3201     0EC8  084D               	movf	(___fldiv@b+1)^(0+128),w
  3202     0EC9  00D6               	movwf	(___fldiv@rem+1)^(0+128)
  3203     0ECA  084C               	movf	___fldiv@b^(0+128),w
  3204     0ECB  00D5               	movwf	___fldiv@rem^(0+128)
  3205     0ECC                     l2133:
  3206     0ECC  3000               	movlw	0
  3207     0ECD  00CF               	movwf	(___fldiv@b+3)^(0+128)
  3208     0ECE  3000               	movlw	0
  3209     0ECF  00CE               	movwf	(___fldiv@b+2)^(0+128)
  3210     0ED0  3000               	movlw	0
  3211     0ED1  00CD               	movwf	(___fldiv@b+1)^(0+128)
  3212     0ED2  3000               	movlw	0
  3213     0ED3  00CC               	movwf	___fldiv@b^(0+128)
  3214     0ED4                     l2135:
  3215     0ED4  3000               	movlw	0
  3216     0ED5  00DF               	movwf	(___fldiv@grs+3)^(0+128)
  3217     0ED6  3000               	movlw	0
  3218     0ED7  00DE               	movwf	(___fldiv@grs+2)^(0+128)
  3219     0ED8  3000               	movlw	0
  3220     0ED9  00DD               	movwf	(___fldiv@grs+1)^(0+128)
  3221     0EDA  3000               	movlw	0
  3222     0EDB  00DC               	movwf	___fldiv@grs^(0+128)
  3223     0EDC                     l2137:
  3224     0EDC  01E1               	clrf	___fldiv@aexp^(0+128)
  3225     0EDD  2F28               	goto	l2157
  3226     0EDE                     l2139:
  3227     0EDE  0861               	movf	___fldiv@aexp^(0+128),w
  3228     0EDF  1903               	btfsc	3,2
  3229     0EE0  2EE2               	goto	u2591
  3230     0EE1  2EE3               	goto	u2590
  3231     0EE2                     u2591:
  3232     0EE2  2F03               	goto	l2149
  3233     0EE3                     u2590:
  3234     0EE3                     l2141:
  3235     0EE3  3001               	movlw	1
  3236     0EE4  00D0               	movwf	??___fldiv^(0+128)
  3237     0EE5                     u2605:
  3238     0EE5  1003               	clrc
  3239     0EE6  0DD5               	rlf	___fldiv@rem^(0+128),f
  3240     0EE7  0DD6               	rlf	(___fldiv@rem+1)^(0+128),f
  3241     0EE8  0DD7               	rlf	(___fldiv@rem+2)^(0+128),f
  3242     0EE9  0DD8               	rlf	(___fldiv@rem+3)^(0+128),f
  3243     0EEA  0BD0               	decfsz	??___fldiv^(0+128),f
  3244     0EEB  2EE5               	goto	u2605
  3245     0EEC  3001               	movlw	1
  3246     0EED  00D0               	movwf	??___fldiv^(0+128)
  3247     0EEE                     u2615:
  3248     0EEE  1003               	clrc
  3249     0EEF  0DCC               	rlf	___fldiv@b^(0+128),f
  3250     0EF0  0DCD               	rlf	(___fldiv@b+1)^(0+128),f
  3251     0EF1  0DCE               	rlf	(___fldiv@b+2)^(0+128),f
  3252     0EF2  0DCF               	rlf	(___fldiv@b+3)^(0+128),f
  3253     0EF3  0BD0               	decfsz	??___fldiv^(0+128),f
  3254     0EF4  2EEE               	goto	u2615
  3255     0EF5                     l2143:
  3256     0EF5  1FDF               	btfss	(___fldiv@grs+3)^(0+128),7
  3257     0EF6  2EF8               	goto	u2621
  3258     0EF7  2EF9               	goto	u2620
  3259     0EF8                     u2621:
  3260     0EF8  2EFA               	goto	l2147
  3261     0EF9                     u2620:
  3262     0EF9                     l2145:
  3263     0EF9  144C               	bsf	___fldiv@b^(0+128),0
  3264     0EFA                     l2147:
  3265     0EFA  3001               	movlw	1
  3266     0EFB  00D0               	movwf	??___fldiv^(0+128)
  3267     0EFC                     u2635:
  3268     0EFC  1003               	clrc
  3269     0EFD  0DDC               	rlf	___fldiv@grs^(0+128),f
  3270     0EFE  0DDD               	rlf	(___fldiv@grs+1)^(0+128),f
  3271     0EFF  0DDE               	rlf	(___fldiv@grs+2)^(0+128),f
  3272     0F00  0DDF               	rlf	(___fldiv@grs+3)^(0+128),f
  3273     0F01  0BD0               	decfsz	??___fldiv^(0+128),f
  3274     0F02  2EFC               	goto	u2635
  3275     0F03                     l2149:
  3276     0F03  084B               	movf	(___fldiv@a+3)^(0+128),w
  3277     0F04  0258               	subwf	(___fldiv@rem+3)^(0+128),w
  3278     0F05  1D03               	skipz
  3279     0F06  2F11               	goto	u2645
  3280     0F07  084A               	movf	(___fldiv@a+2)^(0+128),w
  3281     0F08  0257               	subwf	(___fldiv@rem+2)^(0+128),w
  3282     0F09  1D03               	skipz
  3283     0F0A  2F11               	goto	u2645
  3284     0F0B  0849               	movf	(___fldiv@a+1)^(0+128),w
  3285     0F0C  0256               	subwf	(___fldiv@rem+1)^(0+128),w
  3286     0F0D  1D03               	skipz
  3287     0F0E  2F11               	goto	u2645
  3288     0F0F  0848               	movf	___fldiv@a^(0+128),w
  3289     0F10  0255               	subwf	___fldiv@rem^(0+128),w
  3290     0F11                     u2645:
  3291     0F11  1C03               	skipc
  3292     0F12  2F14               	goto	u2641
  3293     0F13  2F15               	goto	u2640
  3294     0F14                     u2641:
  3295     0F14  2F24               	goto	l2155
  3296     0F15                     u2640:
  3297     0F15                     l2151:
  3298     0F15  175F               	bsf	(___fldiv@grs^(0+128)+3),6
  3299     0F16                     l2153:
  3300     0F16  0848               	movf	___fldiv@a^(0+128),w
  3301     0F17  02D5               	subwf	___fldiv@rem^(0+128),f
  3302     0F18  0849               	movf	(___fldiv@a+1)^(0+128),w
  3303     0F19  1C03               	skipc
  3304     0F1A  0F49               	incfsz	(___fldiv@a+1)^(0+128),w
  3305     0F1B  02D6               	subwf	(___fldiv@rem+1)^(0+128),f
  3306     0F1C  084A               	movf	(___fldiv@a+2)^(0+128),w
  3307     0F1D  1C03               	skipc
  3308     0F1E  0F4A               	incfsz	(___fldiv@a+2)^(0+128),w
  3309     0F1F  02D7               	subwf	(___fldiv@rem+2)^(0+128),f
  3310     0F20  084B               	movf	(___fldiv@a+3)^(0+128),w
  3311     0F21  1C03               	skipc
  3312     0F22  0F4B               	incfsz	(___fldiv@a+3)^(0+128),w
  3313     0F23  02D8               	subwf	(___fldiv@rem+3)^(0+128),f
  3314     0F24                     l2155:
  3315     0F24  3001               	movlw	1
  3316     0F25  00D0               	movwf	??___fldiv^(0+128)
  3317     0F26  0850               	movf	??___fldiv^(0+128),w
  3318     0F27  07E1               	addwf	___fldiv@aexp^(0+128),f
  3319     0F28                     l2157:
  3320     0F28  301A               	movlw	26
  3321     0F29  0261               	subwf	___fldiv@aexp^(0+128),w
  3322     0F2A  1C03               	skipc
  3323     0F2B  2F2D               	goto	u2651
  3324     0F2C  2F2E               	goto	u2650
  3325     0F2D                     u2651:
  3326     0F2D  2EDE               	goto	l2139
  3327     0F2E                     u2650:
  3328     0F2E                     l2159:
  3329     0F2E  0858               	movf	(___fldiv@rem+3)^(0+128),w
  3330     0F2F  0457               	iorwf	(___fldiv@rem+2)^(0+128),w
  3331     0F30  0456               	iorwf	(___fldiv@rem+1)^(0+128),w
  3332     0F31  0455               	iorwf	___fldiv@rem^(0+128),w
  3333     0F32  1903               	skipnz
  3334     0F33  2F35               	goto	u2661
  3335     0F34  2F36               	goto	u2660
  3336     0F35                     u2661:
  3337     0F35  2F55               	goto	l2173
  3338     0F36                     u2660:
  3339     0F36                     l2161:
  3340     0F36  145C               	bsf	___fldiv@grs^(0+128),0
  3341     0F37  2F55               	goto	l2173
  3342     0F38                     l2163:
  3343     0F38  3001               	movlw	1
  3344     0F39  00D0               	movwf	??___fldiv^(0+128)
  3345     0F3A                     u2675:
  3346     0F3A  1003               	clrc
  3347     0F3B  0DCC               	rlf	___fldiv@b^(0+128),f
  3348     0F3C  0DCD               	rlf	(___fldiv@b+1)^(0+128),f
  3349     0F3D  0DCE               	rlf	(___fldiv@b+2)^(0+128),f
  3350     0F3E  0DCF               	rlf	(___fldiv@b+3)^(0+128),f
  3351     0F3F  0BD0               	decfsz	??___fldiv^(0+128),f
  3352     0F40  2F3A               	goto	u2675
  3353     0F41                     l2165:
  3354     0F41  1FDF               	btfss	(___fldiv@grs+3)^(0+128),7
  3355     0F42  2F44               	goto	u2681
  3356     0F43  2F45               	goto	u2680
  3357     0F44                     u2681:
  3358     0F44  2F46               	goto	l2169
  3359     0F45                     u2680:
  3360     0F45                     l2167:
  3361     0F45  144C               	bsf	___fldiv@b^(0+128),0
  3362     0F46                     l2169:
  3363     0F46  3001               	movlw	1
  3364     0F47  00D0               	movwf	??___fldiv^(0+128)
  3365     0F48                     u2695:
  3366     0F48  1003               	clrc
  3367     0F49  0DDC               	rlf	___fldiv@grs^(0+128),f
  3368     0F4A  0DDD               	rlf	(___fldiv@grs+1)^(0+128),f
  3369     0F4B  0DDE               	rlf	(___fldiv@grs+2)^(0+128),f
  3370     0F4C  0DDF               	rlf	(___fldiv@grs+3)^(0+128),f
  3371     0F4D  0BD0               	decfsz	??___fldiv^(0+128),f
  3372     0F4E  2F48               	goto	u2695
  3373     0F4F                     l2171:
  3374     0F4F  30FF               	movlw	255
  3375     0F50  07DA               	addwf	___fldiv@new_exp^(0+128),f
  3376     0F51  1803               	skipnc
  3377     0F52  0ADB               	incf	(___fldiv@new_exp+1)^(0+128),f
  3378     0F53  30FF               	movlw	255
  3379     0F54  07DB               	addwf	(___fldiv@new_exp+1)^(0+128),f
  3380     0F55                     l2173:
  3381     0F55  1FCE               	btfss	(___fldiv@b+2)^(0+128),7
  3382     0F56  2F58               	goto	u2701
  3383     0F57  2F59               	goto	u2700
  3384     0F58                     u2701:
  3385     0F58  2F38               	goto	l2163
  3386     0F59                     u2700:
  3387     0F59                     l2175:
  3388     0F59  01E1               	clrf	___fldiv@aexp^(0+128)
  3389     0F5A                     l2177:
  3390     0F5A  1FDF               	btfss	(___fldiv@grs+3)^(0+128),7
  3391     0F5B  2F5D               	goto	u2711
  3392     0F5C  2F5E               	goto	u2710
  3393     0F5D                     u2711:
  3394     0F5D  2F7A               	goto	l2185
  3395     0F5E                     u2710:
  3396     0F5E                     l2179:
  3397     0F5E  30FF               	movlw	255
  3398     0F5F  055C               	andwf	___fldiv@grs^(0+128),w
  3399     0F60  00D0               	movwf	??___fldiv^(0+128)
  3400     0F61  30FF               	movlw	255
  3401     0F62  055D               	andwf	(___fldiv@grs+1)^(0+128),w
  3402     0F63  00D1               	movwf	(??___fldiv^(0+128)+1)
  3403     0F64  30FF               	movlw	255
  3404     0F65  055E               	andwf	(___fldiv@grs+2)^(0+128),w
  3405     0F66  00D2               	movwf	(??___fldiv^(0+128)+2)
  3406     0F67  307F               	movlw	127
  3407     0F68  055F               	andwf	(___fldiv@grs+3)^(0+128),w
  3408     0F69  00D3               	movwf	(??___fldiv^(0+128)+3)
  3409     0F6A  0853               	movf	(??___fldiv+3)^(0+128),w
  3410     0F6B  0452               	iorwf	(??___fldiv+2)^(0+128),w
  3411     0F6C  0451               	iorwf	(??___fldiv+1)^(0+128),w
  3412     0F6D  0450               	iorwf	??___fldiv^(0+128),w
  3413     0F6E  1903               	skipnz
  3414     0F6F  2F71               	goto	u2721
  3415     0F70  2F72               	goto	u2720
  3416     0F71                     u2721:
  3417     0F71  2F75               	goto	l728
  3418     0F72                     u2720:
  3419     0F72                     l2181:
  3420     0F72  01E1               	clrf	___fldiv@aexp^(0+128)
  3421     0F73  0AE1               	incf	___fldiv@aexp^(0+128),f
  3422     0F74  2F7A               	goto	l2185
  3423     0F75                     l728:
  3424     0F75  1C4C               	btfss	___fldiv@b^(0+128),0
  3425     0F76  2F78               	goto	u2731
  3426     0F77  2F79               	goto	u2730
  3427     0F78                     u2731:
  3428     0F78  2F7A               	goto	l2185
  3429     0F79                     u2730:
  3430     0F79  2F72               	goto	l2181
  3431     0F7A                     l2185:
  3432     0F7A  0861               	movf	___fldiv@aexp^(0+128),w
  3433     0F7B  1903               	btfsc	3,2
  3434     0F7C  2F7E               	goto	u2741
  3435     0F7D  2F7F               	goto	u2740
  3436     0F7E                     u2741:
  3437     0F7E  2FB0               	goto	l2195
  3438     0F7F                     u2740:
  3439     0F7F                     l2187:
  3440     0F7F  3001               	movlw	1
  3441     0F80  07CC               	addwf	___fldiv@b^(0+128),f
  3442     0F81  3000               	movlw	0
  3443     0F82  1803               	skipnc
  3444     0F83  3001               	movlw	1
  3445     0F84  07CD               	addwf	(___fldiv@b+1)^(0+128),f
  3446     0F85  3000               	movlw	0
  3447     0F86  1803               	skipnc
  3448     0F87  3001               	movlw	1
  3449     0F88  07CE               	addwf	(___fldiv@b+2)^(0+128),f
  3450     0F89  3000               	movlw	0
  3451     0F8A  1803               	skipnc
  3452     0F8B  3001               	movlw	1
  3453     0F8C  07CF               	addwf	(___fldiv@b+3)^(0+128),f
  3454     0F8D                     l2189:
  3455     0F8D  1C4F               	btfss	(___fldiv@b+3)^(0+128),0
  3456     0F8E  2F90               	goto	u2751
  3457     0F8F  2F91               	goto	u2750
  3458     0F90                     u2751:
  3459     0F90  2FB0               	goto	l2195
  3460     0F91                     u2750:
  3461     0F91                     l2191:
  3462     0F91  084C               	movf	___fldiv@b^(0+128),w
  3463     0F92  00D0               	movwf	??___fldiv^(0+128)
  3464     0F93  084D               	movf	(___fldiv@b+1)^(0+128),w
  3465     0F94  00D1               	movwf	(??___fldiv^(0+128)+1)
  3466     0F95  084E               	movf	(___fldiv@b+2)^(0+128),w
  3467     0F96  00D2               	movwf	(??___fldiv^(0+128)+2)
  3468     0F97  084F               	movf	(___fldiv@b+3)^(0+128),w
  3469     0F98  00D3               	movwf	(??___fldiv^(0+128)+3)
  3470     0F99  3001               	movlw	1
  3471     0F9A  00D4               	movwf	(??___fldiv+4)^(0+128)
  3472     0F9B                     u2765:
  3473     0F9B  0D53               	rlf	(??___fldiv^(0+128)+3),w
  3474     0F9C  0CD3               	rrf	(??___fldiv^(0+128)+3),f
  3475     0F9D  0CD2               	rrf	(??___fldiv^(0+128)+2),f
  3476     0F9E  0CD1               	rrf	(??___fldiv^(0+128)+1),f
  3477     0F9F  0CD0               	rrf	??___fldiv^(0+128),f
  3478     0FA0                     u2760:
  3479     0FA0  0BD4               	decfsz	(??___fldiv+4)^(0+128),f
  3480     0FA1  2F9B               	goto	u2765
  3481     0FA2  0853               	movf	(??___fldiv+3)^(0+128),w
  3482     0FA3  00CF               	movwf	(___fldiv@b+3)^(0+128)
  3483     0FA4  0852               	movf	(??___fldiv+2)^(0+128),w
  3484     0FA5  00CE               	movwf	(___fldiv@b+2)^(0+128)
  3485     0FA6  0851               	movf	(??___fldiv+1)^(0+128),w
  3486     0FA7  00CD               	movwf	(___fldiv@b+1)^(0+128)
  3487     0FA8  0850               	movf	??___fldiv^(0+128),w
  3488     0FA9  00CC               	movwf	___fldiv@b^(0+128)
  3489     0FAA                     l2193:
  3490     0FAA  3001               	movlw	1
  3491     0FAB  07DA               	addwf	___fldiv@new_exp^(0+128),f
  3492     0FAC  1803               	skipnc
  3493     0FAD  0ADB               	incf	(___fldiv@new_exp+1)^(0+128),f
  3494     0FAE  3000               	movlw	0
  3495     0FAF  07DB               	addwf	(___fldiv@new_exp+1)^(0+128),f
  3496     0FB0                     l2195:
  3497     0FB0  085B               	movf	(___fldiv@new_exp+1)^(0+128),w
  3498     0FB1  3A80               	xorlw	128
  3499     0FB2  00FF               	movwf	btemp+1
  3500     0FB3  3080               	movlw	128
  3501     0FB4  027F               	subwf	btemp+1,w
  3502     0FB5  1D03               	skipz
  3503     0FB6  2FB9               	goto	u2775
  3504     0FB7  30FF               	movlw	255
  3505     0FB8  025A               	subwf	___fldiv@new_exp^(0+128),w
  3506     0FB9                     u2775:
  3507     0FB9  1C03               	skipc
  3508     0FBA  2FBC               	goto	u2771
  3509     0FBB  2FBD               	goto	u2770
  3510     0FBC                     u2771:
  3511     0FBC  2FCB               	goto	l2199
  3512     0FBD                     u2770:
  3513     0FBD                     l2197:
  3514     0FBD  30FF               	movlw	255
  3515     0FBE  1683               	bsf	3,5	;RP0=1, select bank1
  3516     0FBF  1303               	bcf	3,6	;RP1=0, select bank1
  3517     0FC0  00DA               	movwf	___fldiv@new_exp^(0+128)
  3518     0FC1  3000               	movlw	0
  3519     0FC2  00DB               	movwf	(___fldiv@new_exp^(0+128)+1)
  3520     0FC3  3000               	movlw	0
  3521     0FC4  00CF               	movwf	(___fldiv@b+3)^(0+128)
  3522     0FC5  3000               	movlw	0
  3523     0FC6  00CE               	movwf	(___fldiv@b+2)^(0+128)
  3524     0FC7  3000               	movlw	0
  3525     0FC8  00CD               	movwf	(___fldiv@b+1)^(0+128)
  3526     0FC9  3000               	movlw	0
  3527     0FCA  00CC               	movwf	___fldiv@b^(0+128)
  3528     0FCB                     l2199:
  3529     0FCB  1683               	bsf	3,5	;RP0=1, select bank1
  3530     0FCC  1303               	bcf	3,6	;RP1=0, select bank1
  3531     0FCD  085B               	movf	(___fldiv@new_exp+1)^(0+128),w
  3532     0FCE  3A80               	xorlw	128
  3533     0FCF  00FF               	movwf	btemp+1
  3534     0FD0  3080               	movlw	128
  3535     0FD1  027F               	subwf	btemp+1,w
  3536     0FD2  1D03               	skipz
  3537     0FD3  2FD6               	goto	u2785
  3538     0FD4  3001               	movlw	1
  3539     0FD5  025A               	subwf	___fldiv@new_exp^(0+128),w
  3540     0FD6                     u2785:
  3541     0FD6  1803               	skipnc
  3542     0FD7  2FD9               	goto	u2781
  3543     0FD8  2FDA               	goto	u2780
  3544     0FD9                     u2781:
  3545     0FD9  2FE7               	goto	l734
  3546     0FDA                     u2780:
  3547     0FDA                     l2201:
  3548     0FDA  1683               	bsf	3,5	;RP0=1, select bank1
  3549     0FDB  1303               	bcf	3,6	;RP1=0, select bank1
  3550     0FDC  01DA               	clrf	___fldiv@new_exp^(0+128)
  3551     0FDD  01DB               	clrf	(___fldiv@new_exp+1)^(0+128)
  3552     0FDE                     l2203:
  3553     0FDE  3000               	movlw	0
  3554     0FDF  00CF               	movwf	(___fldiv@b+3)^(0+128)
  3555     0FE0  3000               	movlw	0
  3556     0FE1  00CE               	movwf	(___fldiv@b+2)^(0+128)
  3557     0FE2  3000               	movlw	0
  3558     0FE3  00CD               	movwf	(___fldiv@b+1)^(0+128)
  3559     0FE4  3000               	movlw	0
  3560     0FE5  00CC               	movwf	___fldiv@b^(0+128)
  3561     0FE6                     l2205:
  3562     0FE6  01D9               	clrf	___fldiv@sign^(0+128)
  3563     0FE7                     l734:
  3564     0FE7  1683               	bsf	3,5	;RP0=1, select bank1
  3565     0FE8  1303               	bcf	3,6	;RP1=0, select bank1
  3566     0FE9  085A               	movf	___fldiv@new_exp^(0+128),w
  3567     0FEA  00E0               	movwf	___fldiv@bexp^(0+128)
  3568     0FEB                     l2207:
  3569     0FEB  1C60               	btfss	___fldiv@bexp^(0+128),0
  3570     0FEC  2FEE               	goto	u2791
  3571     0FED  2FEF               	goto	u2790
  3572     0FEE                     u2791:
  3573     0FEE  2FF1               	goto	l2211
  3574     0FEF                     u2790:
  3575     0FEF                     l2209:
  3576     0FEF  17CE               	bsf	(___fldiv@b^(0+128)+2),7
  3577     0FF0  2FF5               	goto	l736
  3578     0FF1                     l2211:
  3579     0FF1  307F               	movlw	127
  3580     0FF2  00D0               	movwf	??___fldiv^(0+128)
  3581     0FF3  0850               	movf	??___fldiv^(0+128),w
  3582     0FF4  05CE               	andwf	(___fldiv@b^(0+128)+2),f
  3583     0FF5                     l736:
  3584     0FF5  0860               	movf	___fldiv@bexp^(0+128),w
  3585     0FF6  00D0               	movwf	??___fldiv^(0+128)
  3586     0FF7  1003               	clrc
  3587     0FF8  0C50               	rrf	??___fldiv^(0+128),w
  3588     0FF9  00CF               	movwf	(___fldiv@b^(0+128)+3)
  3589     0FFA  0859               	movf	___fldiv@sign^(0+128),w
  3590     0FFB  00D0               	movwf	??___fldiv^(0+128)
  3591     0FFC  0850               	movf	??___fldiv^(0+128),w
  3592     0FFD  04CF               	iorwf	(___fldiv@b^(0+128)+3),f
  3593     0FFE  2E9B               	goto	l2119
  3594     0FFF                     l714:
  3595     0FFF  0008               	return
  3596     1000                     __end_of___fldiv:
  3597                           
  3598                           	psect	text7
  3599     0819                     __ptext7:	
  3600 ;; *************** function _setup *****************
  3601 ;; Defined at:
  3602 ;;		line 114 in file "main.c"
  3603 ;; Parameters:    Size  Location     Type
  3604 ;;		None
  3605 ;; Auto vars:     Size  Location     Type
  3606 ;;		None
  3607 ;; Return value:  Size  Location     Type
  3608 ;;                  1    wreg      void 
  3609 ;; Registers used:
  3610 ;;		wreg, status,2, status,0, pclath, cstack
  3611 ;; Tracked objects:
  3612 ;;		On entry : 0/0
  3613 ;;		On exit  : 0/0
  3614 ;;		Unchanged: 0/0
  3615 ;; Data sizes:     COMMON   BANK0   BANK1   BANK3   BANK2
  3616 ;;      Params:         0       0       0       0       0
  3617 ;;      Locals:         0       0       0       0       0
  3618 ;;      Temps:          0       0       0       0       0
  3619 ;;      Totals:         0       0       0       0       0
  3620 ;;Total ram usage:        0 bytes
  3621 ;; Hardware stack levels used: 1
  3622 ;; Hardware stack levels required when called: 5
  3623 ;; This function calls:
  3624 ;;		_I2C_Slave_Init
  3625 ;; This function is called by:
  3626 ;;		_main
  3627 ;; This function uses a non-reentrant model
  3628 ;;
  3629                           
  3630     0819                     _setup:	
  3631                           ;psect for function _setup
  3632                           
  3633     0819                     l2815:	
  3634                           ;incstack = 0
  3635                           ; Regs used in _setup: [wreg+status,2+status,0+pclath+cstack]
  3636                           
  3637                           
  3638                           ;main.c: 116:     ANSEL = 0b00000000;
  3639     0819  1683               	bsf	3,5	;RP0=1, select bank3
  3640     081A  1703               	bsf	3,6	;RP1=1, select bank3
  3641     081B  0188               	clrf	8	;volatile
  3642                           
  3643                           ;main.c: 117:     ANSELH = 0;
  3644     081C  0189               	clrf	9	;volatile
  3645     081D                     l2817:
  3646                           
  3647                           ;main.c: 119:     TRISA = 0b00000010;
  3648     081D  3002               	movlw	2
  3649     081E  1683               	bsf	3,5	;RP0=1, select bank1
  3650     081F  1303               	bcf	3,6	;RP1=0, select bank1
  3651     0820  0085               	movwf	5	;volatile
  3652     0821                     l2819:
  3653                           
  3654                           ;main.c: 120:     TRISB = 0b00000011;
  3655     0821  3003               	movlw	3
  3656     0822  0086               	movwf	6	;volatile
  3657                           
  3658                           ;main.c: 121:     TRISC = 0;
  3659     0823  0187               	clrf	7	;volatile
  3660                           
  3661                           ;main.c: 122:     TRISD = 0;
  3662     0824  0188               	clrf	8	;volatile
  3663                           
  3664                           ;main.c: 123:     TRISE = 0;
  3665     0825  0189               	clrf	9	;volatile
  3666                           
  3667                           ;main.c: 125:     PORTA = 0;
  3668     0826  1283               	bcf	3,5	;RP0=0, select bank0
  3669     0827  1303               	bcf	3,6	;RP1=0, select bank0
  3670     0828  0185               	clrf	5	;volatile
  3671                           
  3672                           ;main.c: 126:     PORTB = 0;
  3673     0829  0186               	clrf	6	;volatile
  3674                           
  3675                           ;main.c: 127:     PORTC = 0;
  3676     082A  0187               	clrf	7	;volatile
  3677                           
  3678                           ;main.c: 128:     PORTD = 0;
  3679     082B  0188               	clrf	8	;volatile
  3680                           
  3681                           ;main.c: 129:     PORTE = 0;
  3682     082C  0189               	clrf	9	;volatile
  3683     082D                     l2821:
  3684                           
  3685                           ;main.c: 132:     INTCONbits.RBIE = 1;
  3686     082D  158B               	bsf	11,3	;volatile
  3687     082E                     l2823:
  3688                           
  3689                           ;main.c: 133:     INTCONbits.PEIE = 1;
  3690     082E  170B               	bsf	11,6	;volatile
  3691     082F                     l2825:
  3692                           
  3693                           ;main.c: 134:     INTCONbits.GIE = 1;
  3694     082F  178B               	bsf	11,7	;volatile
  3695     0830                     l2827:
  3696                           
  3697                           ;main.c: 135:     INTCONbits.RBIF = 0;
  3698     0830  100B               	bcf	11,0	;volatile
  3699     0831                     l2829:
  3700                           
  3701                           ;main.c: 137:     OPTION_REGbits.T0CS = 0;
  3702     0831  1683               	bsf	3,5	;RP0=1, select bank1
  3703     0832  1303               	bcf	3,6	;RP1=0, select bank1
  3704     0833  1281               	bcf	1,5	;volatile
  3705     0834                     l2831:
  3706                           
  3707                           ;main.c: 138:     OPTION_REGbits.PSA = 0;
  3708     0834  1181               	bcf	1,3	;volatile
  3709     0835                     l2833:
  3710                           
  3711                           ;main.c: 139:     OPTION_REGbits.PS2 = 1;
  3712     0835  1501               	bsf	1,2	;volatile
  3713     0836                     l2835:
  3714                           
  3715                           ;main.c: 140:     OPTION_REGbits.PS1 = 1;
  3716     0836  1481               	bsf	1,1	;volatile
  3717     0837                     l2837:
  3718                           
  3719                           ;main.c: 141:     OPTION_REGbits.PS0 = 1;
  3720     0837  1401               	bsf	1,0	;volatile
  3721     0838                     l2839:
  3722                           
  3723                           ;main.c: 143:     OPTION_REGbits.nRBPU = 0;
  3724     0838  1381               	bcf	1,7	;volatile
  3725     0839                     l2841:
  3726                           
  3727                           ;main.c: 144:     WPUBbits.WPUB0 = 1;
  3728     0839  1415               	bsf	21,0	;volatile
  3729     083A                     l2843:
  3730                           
  3731                           ;main.c: 145:     WPUBbits.WPUB1 = 1;
  3732     083A  1495               	bsf	21,1	;volatile
  3733     083B                     l2845:
  3734                           
  3735                           ;main.c: 147:     IOCBbits.IOCB1 = 1;
  3736     083B  1496               	bsf	22,1	;volatile
  3737     083C                     l2847:
  3738                           
  3739                           ;main.c: 148:     IOCBbits.IOCB0 = 1;
  3740     083C  1416               	bsf	22,0	;volatile
  3741     083D                     l2849:
  3742                           
  3743                           ;main.c: 151:     OSCCONbits.IRCF = 0b111;
  3744     083D  3070               	movlw	112
  3745     083E  048F               	iorwf	15,f	;volatile
  3746     083F                     l2851:
  3747                           
  3748                           ;main.c: 152:     OSCCONbits.SCS = 1;
  3749     083F  140F               	bsf	15,0	;volatile
  3750     0840                     l2853:
  3751                           
  3752                           ;main.c: 154:     T1CON = 0b00000000;
  3753     0840  1283               	bcf	3,5	;RP0=0, select bank0
  3754     0841  1303               	bcf	3,6	;RP1=0, select bank0
  3755     0842  0190               	clrf	16	;volatile
  3756     0843                     l2855:
  3757                           
  3758                           ;main.c: 156:     I2C_Slave_Init(0xC0);
  3759     0843  30C0               	movlw	192
  3760     0844  160A  118A  2776  120A  158A  	fcall	_I2C_Slave_Init
  3761     0849                     l268:
  3762     0849  0008               	return
  3763     084A                     __end_of_setup:
  3764                           
  3765                           	psect	text8
  3766     1776                     __ptext8:	
  3767 ;; *************** function _I2C_Slave_Init *****************
  3768 ;; Defined at:
  3769 ;;		line 98 in file "i2c.c"
  3770 ;; Parameters:    Size  Location     Type
  3771 ;;  address         1    wreg     unsigned char 
  3772 ;; Auto vars:     Size  Location     Type
  3773 ;;  address         1    0[BANK1 ] unsigned char 
  3774 ;; Return value:  Size  Location     Type
  3775 ;;                  1    wreg      void 
  3776 ;; Registers used:
  3777 ;;		wreg
  3778 ;; Tracked objects:
  3779 ;;		On entry : 0/0
  3780 ;;		On exit  : 0/0
  3781 ;;		Unchanged: 0/0
  3782 ;; Data sizes:     COMMON   BANK0   BANK1   BANK3   BANK2
  3783 ;;      Params:         0       0       0       0       0
  3784 ;;      Locals:         0       0       1       0       0
  3785 ;;      Temps:          0       0       0       0       0
  3786 ;;      Totals:         0       0       1       0       0
  3787 ;;Total ram usage:        1 bytes
  3788 ;; Hardware stack levels used: 1
  3789 ;; Hardware stack levels required when called: 4
  3790 ;; This function calls:
  3791 ;;		Nothing
  3792 ;; This function is called by:
  3793 ;;		_setup
  3794 ;; This function uses a non-reentrant model
  3795 ;;
  3796                           
  3797     1776                     _I2C_Slave_Init:	
  3798                           ;psect for function _I2C_Slave_Init
  3799                           
  3800                           
  3801                           ;incstack = 0
  3802                           ; Regs used in _I2C_Slave_Init: [wreg]
  3803                           ;I2C_Slave_Init@address stored from wreg
  3804     1776  1683               	bsf	3,5	;RP0=1, select bank1
  3805     1777  1303               	bcf	3,6	;RP1=0, select bank1
  3806     1778  00A0               	movwf	I2C_Slave_Init@address^(0+128)
  3807     1779                     l2015:
  3808                           
  3809                           ;i2c.c: 98: void I2C_Slave_Init(uint8_t address);i2c.c: 99: {;i2c.c: 100:     SSPADD = a
      +                          ddress;
  3810     1779  0820               	movf	I2C_Slave_Init@address^(0+128),w
  3811     177A  0093               	movwf	19	;volatile
  3812                           
  3813                           ;i2c.c: 101:     SSPCON = 0x36;
  3814     177B  3036               	movlw	54
  3815     177C  1283               	bcf	3,5	;RP0=0, select bank0
  3816     177D  1303               	bcf	3,6	;RP1=0, select bank0
  3817     177E  0094               	movwf	20	;volatile
  3818                           
  3819                           ;i2c.c: 102:     SSPSTAT = 0x80;
  3820     177F  3080               	movlw	128
  3821     1780  1683               	bsf	3,5	;RP0=1, select bank1
  3822     1781  1303               	bcf	3,6	;RP1=0, select bank1
  3823     1782  0094               	movwf	20	;volatile
  3824                           
  3825                           ;i2c.c: 103:     SSPCON2 = 0x01;
  3826     1783  3001               	movlw	1
  3827     1784  0091               	movwf	17	;volatile
  3828     1785                     l2017:
  3829                           
  3830                           ;i2c.c: 104:     TRISC3 = 1;
  3831     1785  1587               	bsf	7,3	;volatile
  3832     1786                     l2019:
  3833                           
  3834                           ;i2c.c: 105:     TRISC4 = 1;
  3835     1786  1607               	bsf	7,4	;volatile
  3836     1787                     l2021:
  3837                           
  3838                           ;i2c.c: 106:     GIE = 1;
  3839     1787  178B               	bsf	11,7	;volatile
  3840     1788                     l2023:
  3841                           
  3842                           ;i2c.c: 107:     PEIE = 1;
  3843     1788  170B               	bsf	11,6	;volatile
  3844     1789                     l2025:
  3845                           
  3846                           ;i2c.c: 108:     SSPIF = 0;
  3847     1789  1283               	bcf	3,5	;RP0=0, select bank0
  3848     178A  1303               	bcf	3,6	;RP1=0, select bank0
  3849     178B  118C               	bcf	12,3	;volatile
  3850     178C                     l2027:
  3851                           
  3852                           ;i2c.c: 109:     SSPIE = 1;
  3853     178C  1683               	bsf	3,5	;RP0=1, select bank1
  3854     178D  1303               	bcf	3,6	;RP1=0, select bank1
  3855     178E  158C               	bsf	12,3	;volatile
  3856     178F                     l93:
  3857     178F  0008               	return
  3858     1790                     __end_of_I2C_Slave_Init:
  3859                           
  3860                           	psect	text9
  3861     08C9                     __ptext9:	
  3862 ;; *************** function _Lcd_Init *****************
  3863 ;; Defined at:
  3864 ;;		line 62 in file "LCD.c"
  3865 ;; Parameters:    Size  Location     Type
  3866 ;;		None
  3867 ;; Auto vars:     Size  Location     Type
  3868 ;;		None
  3869 ;; Return value:  Size  Location     Type
  3870 ;;                  1    wreg      void 
  3871 ;; Registers used:
  3872 ;;		wreg, status,2, status,0, pclath, cstack
  3873 ;; Tracked objects:
  3874 ;;		On entry : 0/0
  3875 ;;		On exit  : 0/0
  3876 ;;		Unchanged: 0/0
  3877 ;; Data sizes:     COMMON   BANK0   BANK1   BANK3   BANK2
  3878 ;;      Params:         0       0       0       0       0
  3879 ;;      Locals:         0       0       0       0       0
  3880 ;;      Temps:          0       0       2       0       0
  3881 ;;      Totals:         0       0       2       0       0
  3882 ;;Total ram usage:        2 bytes
  3883 ;; Hardware stack levels used: 1
  3884 ;; Hardware stack levels required when called: 6
  3885 ;; This function calls:
  3886 ;;		_Lcd_Cmd
  3887 ;;		_Lcd_Port
  3888 ;; This function is called by:
  3889 ;;		_main
  3890 ;; This function uses a non-reentrant model
  3891 ;;
  3892                           
  3893     08C9                     _Lcd_Init:	
  3894                           ;psect for function _Lcd_Init
  3895                           
  3896     08C9                     l2763:	
  3897                           ;incstack = 0
  3898                           ; Regs used in _Lcd_Init: [wreg+status,2+status,0+pclath+cstack]
  3899                           
  3900                           
  3901                           ;LCD.c: 63:     Lcd_Port(0x00);
  3902     08C9  3000               	movlw	0
  3903     08CA  120A  158A  204A  120A  158A  	fcall	_Lcd_Port
  3904     08CF                     l2765:
  3905                           
  3906                           ;LCD.c: 64:     _delay((unsigned long)((20)*(8000000/4000.0)));
  3907     08CF  3034               	movlw	52
  3908     08D0  1683               	bsf	3,5	;RP0=1, select bank1
  3909     08D1  1303               	bcf	3,6	;RP1=0, select bank1
  3910     08D2  00A5               	movwf	(??_Lcd_Init^(0+128)+1)
  3911     08D3  30F1               	movlw	241
  3912     08D4  00A4               	movwf	??_Lcd_Init^(0+128)
  3913     08D5                     u4577:
  3914     08D5  0BA4               	decfsz	??_Lcd_Init^(0+128),f
  3915     08D6  28D5               	goto	u4577
  3916     08D7  0BA5               	decfsz	(??_Lcd_Init^(0+128)+1),f
  3917     08D8  28D5               	goto	u4577
  3918     08D9                     l2767:
  3919                           
  3920                           ;LCD.c: 65:     Lcd_Cmd(0x03);
  3921     08D9  3003               	movlw	3
  3922     08DA  160A  118A  2790  120A  158A  	fcall	_Lcd_Cmd
  3923                           
  3924                           ;LCD.c: 66:     _delay((unsigned long)((5)*(8000000/4000.0)));
  3925     08DF  300D               	movlw	13
  3926     08E0  1683               	bsf	3,5	;RP0=1, select bank1
  3927     08E1  1303               	bcf	3,6	;RP1=0, select bank1
  3928     08E2  00A5               	movwf	(??_Lcd_Init^(0+128)+1)
  3929     08E3  30FB               	movlw	251
  3930     08E4  00A4               	movwf	??_Lcd_Init^(0+128)
  3931     08E5                     u4587:
  3932     08E5  0BA4               	decfsz	??_Lcd_Init^(0+128),f
  3933     08E6  28E5               	goto	u4587
  3934     08E7  0BA5               	decfsz	(??_Lcd_Init^(0+128)+1),f
  3935     08E8  28E5               	goto	u4587
  3936     08E9                     l2769:
  3937                           
  3938                           ;LCD.c: 67:     Lcd_Cmd(0x03);
  3939     08E9  3003               	movlw	3
  3940     08EA  160A  118A  2790  120A  158A  	fcall	_Lcd_Cmd
  3941     08EF                     l2771:
  3942                           
  3943                           ;LCD.c: 68:     _delay((unsigned long)((200)*(8000000/4000000.0)));
  3944     08EF  3084               	movlw	132
  3945     08F0  1683               	bsf	3,5	;RP0=1, select bank1
  3946     08F1  1303               	bcf	3,6	;RP1=0, select bank1
  3947     08F2  00A4               	movwf	??_Lcd_Init^(0+128)
  3948     08F3                     u4597:
  3949     08F3  0BA4               	decfsz	??_Lcd_Init^(0+128),f
  3950     08F4  28F3               	goto	u4597
  3951     08F5  0000               	nop
  3952                           
  3953                           ;LCD.c: 69:     Lcd_Cmd(0x03);
  3954     08F6  3003               	movlw	3
  3955     08F7  160A  118A  2790  120A  158A  	fcall	_Lcd_Cmd
  3956                           
  3957                           ;LCD.c: 70:     Lcd_Cmd(0x02);
  3958     08FC  3002               	movlw	2
  3959     08FD  160A  118A  2790  120A  158A  	fcall	_Lcd_Cmd
  3960                           
  3961                           ;LCD.c: 71:     Lcd_Cmd(0x02);
  3962     0902  3002               	movlw	2
  3963     0903  160A  118A  2790  120A  158A  	fcall	_Lcd_Cmd
  3964                           
  3965                           ;LCD.c: 72:     Lcd_Cmd(0x08);
  3966     0908  3008               	movlw	8
  3967     0909  160A  118A  2790  120A  158A  	fcall	_Lcd_Cmd
  3968                           
  3969                           ;LCD.c: 73:     Lcd_Cmd(0x00);
  3970     090E  3000               	movlw	0
  3971     090F  160A  118A  2790  120A  158A  	fcall	_Lcd_Cmd
  3972                           
  3973                           ;LCD.c: 74:     Lcd_Cmd(0x0C);
  3974     0914  300C               	movlw	12
  3975     0915  160A  118A  2790  120A  158A  	fcall	_Lcd_Cmd
  3976                           
  3977                           ;LCD.c: 75:     Lcd_Cmd(0x00);
  3978     091A  3000               	movlw	0
  3979     091B  160A  118A  2790  120A  158A  	fcall	_Lcd_Cmd
  3980                           
  3981                           ;LCD.c: 76:     Lcd_Cmd(0x06);
  3982     0920  3006               	movlw	6
  3983     0921  160A  118A  2790  120A  158A  	fcall	_Lcd_Cmd
  3984     0926                     l2773:
  3985                           
  3986                           ;LCD.c: 77:  _delay((unsigned long)((100)*(8000000/4000000.0)));
  3987     0926  3041               	movlw	65
  3988     0927  1683               	bsf	3,5	;RP0=1, select bank1
  3989     0928  1303               	bcf	3,6	;RP1=0, select bank1
  3990     0929  00A4               	movwf	??_Lcd_Init^(0+128)
  3991     092A                     u4607:
  3992     092A  0BA4               	decfsz	??_Lcd_Init^(0+128),f
  3993     092B  292A               	goto	u4607
  3994     092C  292D               	nop2
  3995     092D                     l125:
  3996     092D  0008               	return
  3997     092E                     __end_of_Lcd_Init:
  3998                           
  3999                           	psect	text10
  4000     1790                     __ptext10:	
  4001 ;; *************** function _Lcd_Cmd *****************
  4002 ;; Defined at:
  4003 ;;		line 32 in file "LCD.c"
  4004 ;; Parameters:    Size  Location     Type
  4005 ;;  a               1    wreg     unsigned char 
  4006 ;; Auto vars:     Size  Location     Type
  4007 ;;  a               1    3[BANK1 ] unsigned char 
  4008 ;; Return value:  Size  Location     Type
  4009 ;;                  1    wreg      void 
  4010 ;; Registers used:
  4011 ;;		wreg, status,2, status,0, pclath, cstack
  4012 ;; Tracked objects:
  4013 ;;		On entry : 0/0
  4014 ;;		On exit  : 0/0
  4015 ;;		Unchanged: 0/0
  4016 ;; Data sizes:     COMMON   BANK0   BANK1   BANK3   BANK2
  4017 ;;      Params:         0       0       0       0       0
  4018 ;;      Locals:         0       0       1       0       0
  4019 ;;      Temps:          0       0       2       0       0
  4020 ;;      Totals:         0       0       3       0       0
  4021 ;;Total ram usage:        3 bytes
  4022 ;; Hardware stack levels used: 1
  4023 ;; Hardware stack levels required when called: 5
  4024 ;; This function calls:
  4025 ;;		_Lcd_Port
  4026 ;; This function is called by:
  4027 ;;		_Lcd_Init
  4028 ;;		_Lcd_Clear
  4029 ;;		_Lcd_Set_Cursor
  4030 ;;		_Lcd_Shift_Right
  4031 ;;		_Lcd_Shift_Left
  4032 ;; This function uses a non-reentrant model
  4033 ;;
  4034                           
  4035     1790                     _Lcd_Cmd:	
  4036                           ;psect for function _Lcd_Cmd
  4037                           
  4038                           
  4039                           ;incstack = 0
  4040                           ; Regs used in _Lcd_Cmd: [wreg+status,2+status,0+pclath+cstack]
  4041                           ;Lcd_Cmd@a stored from wreg
  4042     1790  1683               	bsf	3,5	;RP0=1, select bank1
  4043     1791  1303               	bcf	3,6	;RP1=0, select bank1
  4044     1792  00A3               	movwf	Lcd_Cmd@a^(0+128)
  4045     1793                     l2029:
  4046                           
  4047                           ;LCD.c: 33:     PORTDbits.RD6 = 0;
  4048     1793  1283               	bcf	3,5	;RP0=0, select bank0
  4049     1794  1303               	bcf	3,6	;RP1=0, select bank0
  4050     1795  1308               	bcf	8,6	;volatile
  4051     1796                     l2031:
  4052                           
  4053                           ;LCD.c: 34:     Lcd_Port(a);
  4054     1796  1683               	bsf	3,5	;RP0=1, select bank1
  4055     1797  1303               	bcf	3,6	;RP1=0, select bank1
  4056     1798  0823               	movf	Lcd_Cmd@a^(0+128),w
  4057     1799  120A  158A  204A  160A  118A  	fcall	_Lcd_Port
  4058     179E                     l2033:
  4059                           
  4060                           ;LCD.c: 35:     PORTDbits.RD7 = 1;
  4061     179E  1283               	bcf	3,5	;RP0=0, select bank0
  4062     179F  1303               	bcf	3,6	;RP1=0, select bank0
  4063     17A0  1788               	bsf	8,7	;volatile
  4064     17A1                     l2035:
  4065                           
  4066                           ;LCD.c: 36:     _delay((unsigned long)((4)*(8000000/4000.0)));
  4067     17A1  300B               	movlw	11
  4068     17A2  1683               	bsf	3,5	;RP0=1, select bank1
  4069     17A3  1303               	bcf	3,6	;RP1=0, select bank1
  4070     17A4  00A2               	movwf	(??_Lcd_Cmd^(0+128)+1)
  4071     17A5  3061               	movlw	97
  4072     17A6  00A1               	movwf	??_Lcd_Cmd^(0+128)
  4073     17A7                     u4617:
  4074     17A7  0BA1               	decfsz	??_Lcd_Cmd^(0+128),f
  4075     17A8  2FA7               	goto	u4617
  4076     17A9  0BA2               	decfsz	(??_Lcd_Cmd^(0+128)+1),f
  4077     17AA  2FA7               	goto	u4617
  4078     17AB  2FAC               	nop2
  4079     17AC                     l2037:
  4080                           
  4081                           ;LCD.c: 37:     PORTDbits.RD7 = 0;
  4082     17AC  1283               	bcf	3,5	;RP0=0, select bank0
  4083     17AD  1303               	bcf	3,6	;RP1=0, select bank0
  4084     17AE  1388               	bcf	8,7	;volatile
  4085     17AF                     l113:
  4086     17AF  0008               	return
  4087     17B0                     __end_of_Lcd_Cmd:
  4088                           
  4089                           	psect	text11
  4090     084A                     __ptext11:	
  4091 ;; *************** function _Lcd_Port *****************
  4092 ;; Defined at:
  4093 ;;		line 10 in file "LCD.c"
  4094 ;; Parameters:    Size  Location     Type
  4095 ;;  a               1    wreg     unsigned char 
  4096 ;; Auto vars:     Size  Location     Type
  4097 ;;  a               1    0[BANK1 ] unsigned char 
  4098 ;; Return value:  Size  Location     Type
  4099 ;;                  1    wreg      void 
  4100 ;; Registers used:
  4101 ;;		wreg
  4102 ;; Tracked objects:
  4103 ;;		On entry : 0/0
  4104 ;;		On exit  : 0/0
  4105 ;;		Unchanged: 0/0
  4106 ;; Data sizes:     COMMON   BANK0   BANK1   BANK3   BANK2
  4107 ;;      Params:         0       0       0       0       0
  4108 ;;      Locals:         0       0       1       0       0
  4109 ;;      Temps:          0       0       0       0       0
  4110 ;;      Totals:         0       0       1       0       0
  4111 ;;Total ram usage:        1 bytes
  4112 ;; Hardware stack levels used: 1
  4113 ;; Hardware stack levels required when called: 4
  4114 ;; This function calls:
  4115 ;;		Nothing
  4116 ;; This function is called by:
  4117 ;;		_Lcd_Cmd
  4118 ;;		_Lcd_Init
  4119 ;;		_Lcd_Write_Char
  4120 ;; This function uses a non-reentrant model
  4121 ;;
  4122                           
  4123     084A                     _Lcd_Port:	
  4124                           ;psect for function _Lcd_Port
  4125                           
  4126                           
  4127                           ;incstack = 0
  4128                           ; Regs used in _Lcd_Port: [wreg]
  4129                           ;Lcd_Port@a stored from wreg
  4130     084A  1683               	bsf	3,5	;RP0=1, select bank1
  4131     084B  1303               	bcf	3,6	;RP1=0, select bank1
  4132     084C  00A0               	movwf	Lcd_Port@a^(0+128)
  4133     084D                     l1977:
  4134                           
  4135                           ;LCD.c: 11:     if (a & 1)
  4136     084D  1C20               	btfss	Lcd_Port@a^(0+128),0
  4137     084E  2850               	goto	u2311
  4138     084F  2851               	goto	u2310
  4139     0850                     u2311:
  4140     0850  2855               	goto	l102
  4141     0851                     u2310:
  4142     0851                     l1979:
  4143                           
  4144                           ;LCD.c: 12:         PORTBbits.RB4 = 1;
  4145     0851  1283               	bcf	3,5	;RP0=0, select bank0
  4146     0852  1303               	bcf	3,6	;RP1=0, select bank0
  4147     0853  1606               	bsf	6,4	;volatile
  4148     0854  2858               	goto	l103
  4149     0855                     l102:	
  4150                           ;LCD.c: 13:     else
  4151                           
  4152                           
  4153                           ;LCD.c: 14:         PORTBbits.RB4 = 0;
  4154     0855  1283               	bcf	3,5	;RP0=0, select bank0
  4155     0856  1303               	bcf	3,6	;RP1=0, select bank0
  4156     0857  1206               	bcf	6,4	;volatile
  4157     0858                     l103:
  4158                           
  4159                           ;LCD.c: 16:     if (a & 2)
  4160     0858  1683               	bsf	3,5	;RP0=1, select bank1
  4161     0859  1303               	bcf	3,6	;RP1=0, select bank1
  4162     085A  1CA0               	btfss	Lcd_Port@a^(0+128),1
  4163     085B  285D               	goto	u2321
  4164     085C  285E               	goto	u2320
  4165     085D                     u2321:
  4166     085D  2862               	goto	l104
  4167     085E                     u2320:
  4168     085E                     l1981:
  4169                           
  4170                           ;LCD.c: 17:         PORTBbits.RB5 = 1;
  4171     085E  1283               	bcf	3,5	;RP0=0, select bank0
  4172     085F  1303               	bcf	3,6	;RP1=0, select bank0
  4173     0860  1686               	bsf	6,5	;volatile
  4174     0861  2865               	goto	l105
  4175     0862                     l104:	
  4176                           ;LCD.c: 18:     else
  4177                           
  4178                           
  4179                           ;LCD.c: 19:         PORTBbits.RB5 = 0;
  4180     0862  1283               	bcf	3,5	;RP0=0, select bank0
  4181     0863  1303               	bcf	3,6	;RP1=0, select bank0
  4182     0864  1286               	bcf	6,5	;volatile
  4183     0865                     l105:
  4184                           
  4185                           ;LCD.c: 21:     if (a & 4)
  4186     0865  1683               	bsf	3,5	;RP0=1, select bank1
  4187     0866  1303               	bcf	3,6	;RP1=0, select bank1
  4188     0867  1D20               	btfss	Lcd_Port@a^(0+128),2
  4189     0868  286A               	goto	u2331
  4190     0869  286B               	goto	u2330
  4191     086A                     u2331:
  4192     086A  286F               	goto	l106
  4193     086B                     u2330:
  4194     086B                     l1983:
  4195                           
  4196                           ;LCD.c: 22:         PORTBbits.RB6 = 1;
  4197     086B  1283               	bcf	3,5	;RP0=0, select bank0
  4198     086C  1303               	bcf	3,6	;RP1=0, select bank0
  4199     086D  1706               	bsf	6,6	;volatile
  4200     086E  2872               	goto	l107
  4201     086F                     l106:	
  4202                           ;LCD.c: 23:     else
  4203                           
  4204                           
  4205                           ;LCD.c: 24:         PORTBbits.RB6 = 0;
  4206     086F  1283               	bcf	3,5	;RP0=0, select bank0
  4207     0870  1303               	bcf	3,6	;RP1=0, select bank0
  4208     0871  1306               	bcf	6,6	;volatile
  4209     0872                     l107:
  4210                           
  4211                           ;LCD.c: 26:     if (a & 8)
  4212     0872  1683               	bsf	3,5	;RP0=1, select bank1
  4213     0873  1303               	bcf	3,6	;RP1=0, select bank1
  4214     0874  1DA0               	btfss	Lcd_Port@a^(0+128),3
  4215     0875  2877               	goto	u2341
  4216     0876  2878               	goto	u2340
  4217     0877                     u2341:
  4218     0877  287C               	goto	l108
  4219     0878                     u2340:
  4220     0878                     l1985:
  4221                           
  4222                           ;LCD.c: 27:         PORTBbits.RB7 = 1;
  4223     0878  1283               	bcf	3,5	;RP0=0, select bank0
  4224     0879  1303               	bcf	3,6	;RP1=0, select bank0
  4225     087A  1786               	bsf	6,7	;volatile
  4226     087B  287F               	goto	l110
  4227     087C                     l108:	
  4228                           ;LCD.c: 28:     else
  4229                           
  4230                           
  4231                           ;LCD.c: 29:         PORTBbits.RB7 = 0;
  4232     087C  1283               	bcf	3,5	;RP0=0, select bank0
  4233     087D  1303               	bcf	3,6	;RP1=0, select bank0
  4234     087E  1386               	bcf	6,7	;volatile
  4235     087F                     l110:
  4236     087F  0008               	return
  4237     0880                     __end_of_Lcd_Port:
  4238                           
  4239                           	psect	text12
  4240     0A36                     __ptext12:	
  4241 ;; *************** function _isr *****************
  4242 ;; Defined at:
  4243 ;;		line 49 in file "main.c"
  4244 ;; Parameters:    Size  Location     Type
  4245 ;;		None
  4246 ;; Auto vars:     Size  Location     Type
  4247 ;;		None
  4248 ;; Return value:  Size  Location     Type
  4249 ;;                  1    wreg      void 
  4250 ;; Registers used:
  4251 ;;		wreg, status,2, status,0, btemp+1, pclath, cstack
  4252 ;; Tracked objects:
  4253 ;;		On entry : 0/0
  4254 ;;		On exit  : 0/0
  4255 ;;		Unchanged: 0/0
  4256 ;; Data sizes:     COMMON   BANK0   BANK1   BANK3   BANK2
  4257 ;;      Params:         0       0       0       0       0
  4258 ;;      Locals:         0       0       0       0       0
  4259 ;;      Temps:          0       5       0       0       0
  4260 ;;      Totals:         0       5       0       0       0
  4261 ;;Total ram usage:        5 bytes
  4262 ;; Hardware stack levels used: 1
  4263 ;; Hardware stack levels required when called: 3
  4264 ;; This function calls:
  4265 ;;		i1_ultrasonic_measure_distance
  4266 ;; This function is called by:
  4267 ;;		Interrupt level 1
  4268 ;; This function uses a non-reentrant model
  4269 ;;
  4270                           
  4271     0A36                     _isr:	
  4272                           ;psect for function _isr
  4273                           
  4274     0A36                     i1l2985:
  4275                           
  4276                           ;main.c: 52:     if (INTCONbits.RBIF == 1){
  4277     0A36  1C0B               	btfss	11,0	;volatile
  4278     0A37  2A39               	goto	u442_21
  4279     0A38  2A3A               	goto	u442_20
  4280     0A39                     u442_21:
  4281     0A39  2A50               	goto	i1l237
  4282     0A3A                     u442_20:
  4283     0A3A                     i1l2987:
  4284                           
  4285                           ;main.c: 54:         if (PORTBbits.RB1 == 0){
  4286     0A3A  1886               	btfsc	6,1	;volatile
  4287     0A3B  2A3D               	goto	u443_21
  4288     0A3C  2A3E               	goto	u443_20
  4289     0A3D                     u443_21:
  4290     0A3D  2A4B               	goto	i1l238
  4291     0A3E                     u443_20:
  4292     0A3E                     i1l2989:
  4293                           
  4294                           ;main.c: 55:         PORTDbits.RD1 = toggle;
  4295     0A3E  1683               	bsf	3,5	;RP0=1, select bank3
  4296     0A3F  1703               	bsf	3,6	;RP1=1, select bank3
  4297     0A40  0C53               	rrf	_toggle^(0+384),w
  4298     0A41  1283               	bcf	3,5	;RP0=0, select bank0
  4299     0A42  1303               	bcf	3,6	;RP1=0, select bank0
  4300     0A43  1C03               	skipc
  4301     0A44  1088               	bcf	8,1	;volatile
  4302     0A45  1803               	skipnc
  4303     0A46  1488               	bsf	8,1	;volatile
  4304     0A47                     i1l239:	
  4305                           ;main.c: 56:         while(PORTBbits.RB1 == 0);
  4306                           
  4307     0A47  1C86               	btfss	6,1	;volatile
  4308     0A48  2A4A               	goto	u444_21
  4309     0A49  2A4B               	goto	u444_20
  4310     0A4A                     u444_21:
  4311     0A4A  2A47               	goto	i1l239
  4312     0A4B                     u444_20:
  4313     0A4B                     i1l238:	
  4314                           ;main.c: 57:         }
  4315                           
  4316                           
  4317                           ;main.c: 58:         INTCONbits.RBIF = 0;
  4318     0A4B  100B               	bcf	11,0	;volatile
  4319                           
  4320                           ;main.c: 59:         toggle = ~toggle;
  4321     0A4C  1683               	bsf	3,5	;RP0=1, select bank3
  4322     0A4D  1703               	bsf	3,6	;RP1=1, select bank3
  4323     0A4E  09D3               	comf	_toggle^(0+384),f
  4324     0A4F  09D4               	comf	(_toggle+1)^(0+384),f
  4325     0A50                     i1l237:	
  4326                           ;main.c: 60:     }
  4327                           
  4328                           
  4329                           ;main.c: 62:     if (PIR1bits.SSPIF == 1){
  4330     0A50  1283               	bcf	3,5	;RP0=0, select bank0
  4331     0A51  1303               	bcf	3,6	;RP1=0, select bank0
  4332     0A52  1D8C               	btfss	12,3	;volatile
  4333     0A53  2A55               	goto	u445_21
  4334     0A54  2A56               	goto	u445_20
  4335     0A55                     u445_21:
  4336     0A55  2ADF               	goto	i1l255
  4337     0A56                     u445_20:
  4338     0A56                     i1l2991:
  4339                           
  4340                           ;main.c: 63:         SSPCONbits.CKP = 0;
  4341     0A56  1214               	bcf	20,4	;volatile
  4342                           
  4343                           ;main.c: 65:         if ((SSPCONbits.SSPOV) || (SSPCONbits.WCOL)){
  4344     0A57  1B14               	btfsc	20,6	;volatile
  4345     0A58  2A5A               	goto	u446_21
  4346     0A59  2A5B               	goto	u446_20
  4347     0A5A                     u446_21:
  4348     0A5A  2A5F               	goto	i1l2995
  4349     0A5B                     u446_20:
  4350     0A5B                     i1l2993:
  4351     0A5B  1F94               	btfss	20,7	;volatile
  4352     0A5C  2A5E               	goto	u447_21
  4353     0A5D  2A5F               	goto	u447_20
  4354     0A5E                     u447_21:
  4355     0A5E  2A71               	goto	i1l3003
  4356     0A5F                     u447_20:
  4357     0A5F                     i1l2995:
  4358                           
  4359                           ;main.c: 66:             z = SSPBUF;
  4360     0A5F  0813               	movf	19,w	;volatile
  4361     0A60  00E9               	movwf	??_isr
  4362     0A61  01EA               	clrf	??_isr+1
  4363     0A62  0869               	movf	??_isr,w
  4364     0A63  1683               	bsf	3,5	;RP0=1, select bank3
  4365     0A64  1703               	bsf	3,6	;RP1=1, select bank3
  4366     0A65  00C2               	movwf	_z^(0+384)
  4367     0A66  1283               	bcf	3,5	;RP0=0, select bank0
  4368     0A67  1303               	bcf	3,6	;RP1=0, select bank0
  4369     0A68  086A               	movf	??_isr+1,w
  4370     0A69  1683               	bsf	3,5	;RP0=1, select bank3
  4371     0A6A  1703               	bsf	3,6	;RP1=1, select bank3
  4372     0A6B  00C3               	movwf	(_z+1)^(0+384)
  4373     0A6C                     i1l2997:
  4374                           
  4375                           ;main.c: 67:             SSPCONbits.SSPOV = 0;
  4376     0A6C  1283               	bcf	3,5	;RP0=0, select bank0
  4377     0A6D  1303               	bcf	3,6	;RP1=0, select bank0
  4378     0A6E  1314               	bcf	20,6	;volatile
  4379     0A6F                     i1l2999:
  4380                           
  4381                           ;main.c: 68:             SSPCONbits.WCOL = 0;
  4382     0A6F  1394               	bcf	20,7	;volatile
  4383     0A70                     i1l3001:
  4384                           
  4385                           ;main.c: 69:             SSPCONbits.CKP = 1;
  4386     0A70  1614               	bsf	20,4	;volatile
  4387     0A71                     i1l3003:
  4388                           
  4389                           ;main.c: 72:         if(!SSPSTATbits.D_nA && !SSPSTATbits.R_nW) {
  4390     0A71  1683               	bsf	3,5	;RP0=1, select bank1
  4391     0A72  1303               	bcf	3,6	;RP1=0, select bank1
  4392     0A73  1A94               	btfsc	20,5	;volatile
  4393     0A74  2A76               	goto	u448_21
  4394     0A75  2A77               	goto	u448_20
  4395     0A76                     u448_21:
  4396     0A76  2AAB               	goto	i1l246
  4397     0A77                     u448_20:
  4398     0A77                     i1l3005:
  4399     0A77  1914               	btfsc	20,2	;volatile
  4400     0A78  2A7A               	goto	u449_21
  4401     0A79  2A7B               	goto	u449_20
  4402     0A7A                     u449_21:
  4403     0A7A  2AAB               	goto	i1l246
  4404     0A7B                     u449_20:
  4405     0A7B                     i1l3007:
  4406                           
  4407                           ;main.c: 73:             z = SSPBUF;
  4408     0A7B  1283               	bcf	3,5	;RP0=0, select bank0
  4409     0A7C  1303               	bcf	3,6	;RP1=0, select bank0
  4410     0A7D  0813               	movf	19,w	;volatile
  4411     0A7E  00E9               	movwf	??_isr
  4412     0A7F  01EA               	clrf	??_isr+1
  4413     0A80  0869               	movf	??_isr,w
  4414     0A81  1683               	bsf	3,5	;RP0=1, select bank3
  4415     0A82  1703               	bsf	3,6	;RP1=1, select bank3
  4416     0A83  00C2               	movwf	_z^(0+384)
  4417     0A84  1283               	bcf	3,5	;RP0=0, select bank0
  4418     0A85  1303               	bcf	3,6	;RP1=0, select bank0
  4419     0A86  086A               	movf	??_isr+1,w
  4420     0A87  1683               	bsf	3,5	;RP0=1, select bank3
  4421     0A88  1703               	bsf	3,6	;RP1=1, select bank3
  4422     0A89  00C3               	movwf	(_z+1)^(0+384)
  4423     0A8A                     i1l3009:
  4424                           
  4425                           ;main.c: 74:             PIR1bits.SSPIF = 0;
  4426     0A8A  1283               	bcf	3,5	;RP0=0, select bank0
  4427     0A8B  1303               	bcf	3,6	;RP1=0, select bank0
  4428     0A8C  118C               	bcf	12,3	;volatile
  4429     0A8D                     i1l3011:
  4430                           
  4431                           ;main.c: 75:             SSPCONbits.CKP = 1;
  4432     0A8D  1614               	bsf	20,4	;volatile
  4433     0A8E                     i1l247:	
  4434                           ;main.c: 76:             while(!SSPSTATbits.BF);
  4435                           
  4436     0A8E  1683               	bsf	3,5	;RP0=1, select bank1
  4437     0A8F  1303               	bcf	3,6	;RP1=0, select bank1
  4438     0A90  1C14               	btfss	20,0	;volatile
  4439     0A91  2A93               	goto	u450_21
  4440     0A92  2A94               	goto	u450_20
  4441     0A93                     u450_21:
  4442     0A93  2A8E               	goto	i1l247
  4443     0A94                     u450_20:
  4444     0A94                     i1l3013:
  4445                           
  4446                           ;main.c: 77:             received = SSPBUF;
  4447     0A94  1283               	bcf	3,5	;RP0=0, select bank0
  4448     0A95  1303               	bcf	3,6	;RP1=0, select bank0
  4449     0A96  0813               	movf	19,w	;volatile
  4450     0A97  00E9               	movwf	??_isr
  4451     0A98  01EA               	clrf	??_isr+1
  4452     0A99  0869               	movf	??_isr,w
  4453     0A9A  1683               	bsf	3,5	;RP0=1, select bank3
  4454     0A9B  1703               	bsf	3,6	;RP1=1, select bank3
  4455     0A9C  00C4               	movwf	_received^(0+384)
  4456     0A9D  1283               	bcf	3,5	;RP0=0, select bank0
  4457     0A9E  1303               	bcf	3,6	;RP1=0, select bank0
  4458     0A9F  086A               	movf	??_isr+1,w
  4459     0AA0  1683               	bsf	3,5	;RP0=1, select bank3
  4460     0AA1  1703               	bsf	3,6	;RP1=1, select bank3
  4461     0AA2  00C5               	movwf	(_received+1)^(0+384)
  4462                           
  4463                           ;main.c: 78:             _delay((unsigned long)((250)*(8000000/4000000.0)));
  4464     0AA3  30A5               	movlw	165
  4465     0AA4  1283               	bcf	3,5	;RP0=0, select bank0
  4466     0AA5  1303               	bcf	3,6	;RP1=0, select bank0
  4467     0AA6  00E9               	movwf	??_isr
  4468     0AA7                     u462_27:
  4469     0AA7  0BE9               	decfsz	??_isr,f
  4470     0AA8  2AA7               	goto	u462_27
  4471     0AA9  2AAA               	nop2
  4472                           
  4473                           ;main.c: 80:         }else if(!SSPSTATbits.D_nA && SSPSTATbits.R_nW){
  4474     0AAA  2ADC               	goto	i1l250
  4475     0AAB                     i1l246:
  4476     0AAB  1A94               	btfsc	20,5	;volatile
  4477     0AAC  2AAE               	goto	u451_21
  4478     0AAD  2AAF               	goto	u451_20
  4479     0AAE                     u451_21:
  4480     0AAE  2ADC               	goto	i1l250
  4481     0AAF                     u451_20:
  4482     0AAF                     i1l3015:
  4483     0AAF  1D14               	btfss	20,2	;volatile
  4484     0AB0  2AB2               	goto	u452_21
  4485     0AB1  2AB3               	goto	u452_20
  4486     0AB2                     u452_21:
  4487     0AB2  2ADC               	goto	i1l250
  4488     0AB3                     u452_20:
  4489     0AB3                     i1l3017:
  4490                           
  4491                           ;main.c: 81:             z = SSPBUF;
  4492     0AB3  1283               	bcf	3,5	;RP0=0, select bank0
  4493     0AB4  1303               	bcf	3,6	;RP1=0, select bank0
  4494     0AB5  0813               	movf	19,w	;volatile
  4495     0AB6  00E9               	movwf	??_isr
  4496     0AB7  01EA               	clrf	??_isr+1
  4497     0AB8  0869               	movf	??_isr,w
  4498     0AB9  1683               	bsf	3,5	;RP0=1, select bank3
  4499     0ABA  1703               	bsf	3,6	;RP1=1, select bank3
  4500     0ABB  00C2               	movwf	_z^(0+384)
  4501     0ABC  1283               	bcf	3,5	;RP0=0, select bank0
  4502     0ABD  1303               	bcf	3,6	;RP1=0, select bank0
  4503     0ABE  086A               	movf	??_isr+1,w
  4504     0ABF  1683               	bsf	3,5	;RP0=1, select bank3
  4505     0AC0  1703               	bsf	3,6	;RP1=1, select bank3
  4506     0AC1  00C3               	movwf	(_z+1)^(0+384)
  4507     0AC2                     i1l3019:
  4508                           
  4509                           ;main.c: 82:             BF = 0;
  4510     0AC2  1683               	bsf	3,5	;RP0=1, select bank1
  4511     0AC3  1303               	bcf	3,6	;RP1=0, select bank1
  4512     0AC4  1014               	bcf	20,0	;volatile
  4513     0AC5                     i1l3021:
  4514                           
  4515                           ;main.c: 83:             SSPBUF = ultrasonic_measure_distance();
  4516     0AC5  120A  158A  21A6  120A  158A  	fcall	i1_ultrasonic_measure_distance
  4517     0ACA  1283               	bcf	3,5	;RP0=0, select bank0
  4518     0ACB  1303               	bcf	3,6	;RP1=0, select bank0
  4519     0ACC  085E               	movf	?i1_ultrasonic_measure_distance,w
  4520     0ACD  0093               	movwf	19	;volatile
  4521     0ACE                     i1l3023:
  4522                           
  4523                           ;main.c: 84:             SSPCONbits.CKP = 1;
  4524     0ACE  1614               	bsf	20,4	;volatile
  4525     0ACF                     i1l3025:
  4526                           
  4527                           ;main.c: 85:             _delay((unsigned long)((250)*(8000000/4000000.0)));
  4528     0ACF  30A5               	movlw	165
  4529     0AD0  1283               	bcf	3,5	;RP0=0, select bank0
  4530     0AD1  1303               	bcf	3,6	;RP1=0, select bank0
  4531     0AD2  00E9               	movwf	??_isr
  4532     0AD3                     u463_27:
  4533     0AD3  0BE9               	decfsz	??_isr,f
  4534     0AD4  2AD3               	goto	u463_27
  4535     0AD5  2AD6               	nop2
  4536     0AD6                     i1l252:	
  4537                           ;main.c: 86:             while(SSPSTATbits.BF);
  4538                           
  4539     0AD6  1683               	bsf	3,5	;RP0=1, select bank1
  4540     0AD7  1303               	bcf	3,6	;RP1=0, select bank1
  4541     0AD8  1814               	btfsc	20,0	;volatile
  4542     0AD9  2ADB               	goto	u453_21
  4543     0ADA  2ADC               	goto	u453_20
  4544     0ADB                     u453_21:
  4545     0ADB  2AD6               	goto	i1l252
  4546     0ADC                     u453_20:
  4547     0ADC                     i1l250:
  4548                           
  4549                           ;main.c: 89:         PIR1bits.SSPIF = 0;
  4550     0ADC  1283               	bcf	3,5	;RP0=0, select bank0
  4551     0ADD  1303               	bcf	3,6	;RP1=0, select bank0
  4552     0ADE  118C               	bcf	12,3	;volatile
  4553     0ADF                     i1l255:
  4554     0ADF  086D               	movf	??_isr+4,w
  4555     0AE0  00FF               	movwf	btemp+1
  4556     0AE1  086C               	movf	??_isr+3,w
  4557     0AE2  008A               	movwf	10
  4558     0AE3  0E6B               	swapf	??_isr+2,w
  4559     0AE4  0083               	movwf	3
  4560     0AE5  0EFE               	swapf	btemp,f
  4561     0AE6  0E7E               	swapf	btemp,w
  4562     0AE7  0009               	retfie
  4563     0AE8                     __end_of_isr:
  4564                           
  4565                           	psect	intentry
  4566     0004                     __pintentry:	
  4567                           ;incstack = 0
  4568                           ; Regs used in _isr: [wreg+status,2+status,0+btemp+1+pclath+cstack]
  4569                           
  4570     0004                     interrupt_function:
  4571     007E                     saved_w	set	btemp
  4572     0004  00FE               	movwf	btemp
  4573     0005  0E03               	swapf	3,w
  4574     0006  1283               	bcf	3,5	;RP0=0, select bank0
  4575     0007  1303               	bcf	3,6	;RP1=0, select bank0
  4576     0008  00EB               	movwf	??_isr+2
  4577     0009  080A               	movf	10,w
  4578     000A  00EC               	movwf	??_isr+3
  4579     000B  087F               	movf	btemp+1,w
  4580     000C  00ED               	movwf	??_isr+4
  4581     000D  120A  158A  2A36   	ljmp	_isr
  4582                           
  4583                           	psect	text13
  4584     09A6                     __ptext13:	
  4585 ;; *************** function i1_ultrasonic_measure_distance *****************
  4586 ;; Defined at:
  4587 ;;		line 159 in file "main.c"
  4588 ;; Parameters:    Size  Location     Type
  4589 ;;		None
  4590 ;; Auto vars:     Size  Location     Type
  4591 ;;  distance        2   71[BANK0 ] int 
  4592 ;;  pulse_durati    2   69[BANK0 ] unsigned int 
  4593 ;; Return value:  Size  Location     Type
  4594 ;;                  2   62[BANK0 ] int 
  4595 ;; Registers used:
  4596 ;;		wreg, status,2, status,0, btemp+1, pclath, cstack
  4597 ;; Tracked objects:
  4598 ;;		On entry : 0/0
  4599 ;;		On exit  : 0/0
  4600 ;;		Unchanged: 0/0
  4601 ;; Data sizes:     COMMON   BANK0   BANK1   BANK3   BANK2
  4602 ;;      Params:         0       2       0       0       0
  4603 ;;      Locals:         0       8       0       0       0
  4604 ;;      Temps:          0       1       0       0       0
  4605 ;;      Totals:         0      11       0       0       0
  4606 ;;Total ram usage:       11 bytes
  4607 ;; Hardware stack levels used: 1
  4608 ;; Hardware stack levels required when called: 2
  4609 ;; This function calls:
  4610 ;;		i1___fldiv
  4611 ;;		i1___flmul
  4612 ;;		i1___fltol
  4613 ;;		i1___xxtofl
  4614 ;; This function is called by:
  4615 ;;		_isr
  4616 ;; This function uses a non-reentrant model
  4617 ;;
  4618                           
  4619     09A6                     i1_ultrasonic_measure_distance:	
  4620                           ;psect for function i1_ultrasonic_measure_distance
  4621                           
  4622     09A6                     i1l2857:	
  4623                           ;incstack = 0
  4624                           ; Regs used in i1_ultrasonic_measure_distance: [wreg+status,2+status,0+btemp+1+pclath+cs
      +                          tack]
  4625                           
  4626                           
  4627                           ;main.c: 160:     uint16_t pulse_duration;;main.c: 161:     int distance;;main.c: 164:  
      +                             RA0 = 1;
  4628     09A6  1283               	bcf	3,5	;RP0=0, select bank0
  4629     09A7  1303               	bcf	3,6	;RP1=0, select bank0
  4630     09A8  1405               	bsf	5,0	;volatile
  4631     09A9                     i1l2859:
  4632                           
  4633                           ;main.c: 165:     _delay((unsigned long)((10)*(8000000/4000000.0)));
  4634     09A9  3005               	movlw	5
  4635     09AA  1283               	bcf	3,5	;RP0=0, select bank0
  4636     09AB  1303               	bcf	3,6	;RP1=0, select bank0
  4637     09AC  00E0               	movwf	??i1_ultrasonic_measure_distance
  4638     09AD                     u464_27:
  4639     09AD  0BE0               	decfsz	??i1_ultrasonic_measure_distance,f
  4640     09AE  29AD               	goto	u464_27
  4641     09AF  29B0               	nop2
  4642     09B0                     i1l2861:
  4643                           
  4644                           ;main.c: 166:     RA0 = 0;
  4645     09B0  1283               	bcf	3,5	;RP0=0, select bank0
  4646     09B1  1303               	bcf	3,6	;RP1=0, select bank0
  4647     09B2  1005               	bcf	5,0	;volatile
  4648     09B3                     i1l271:	
  4649                           ;main.c: 168:     while (RA1 == 0);
  4650                           
  4651     09B3  1C85               	btfss	5,1	;volatile
  4652     09B4  29B6               	goto	u424_21
  4653     09B5  29B7               	goto	u424_20
  4654     09B6                     u424_21:
  4655     09B6  29B3               	goto	i1l271
  4656     09B7                     u424_20:
  4657     09B7                     i1l2863:
  4658                           
  4659                           ;main.c: 170:     TMR1L = 0x00;
  4660     09B7  018E               	clrf	14	;volatile
  4661                           
  4662                           ;main.c: 171:     TMR1H = 0X00;
  4663     09B8  018F               	clrf	15	;volatile
  4664     09B9                     i1l2865:
  4665                           
  4666                           ;main.c: 173:     T1CONbits.TMR1ON = 1;
  4667     09B9  1410               	bsf	16,0	;volatile
  4668     09BA                     i1l274:	
  4669                           ;main.c: 174:     while (RA1 == 1);
  4670                           
  4671     09BA  1885               	btfsc	5,1	;volatile
  4672     09BB  29BD               	goto	u425_21
  4673     09BC  29BE               	goto	u425_20
  4674     09BD                     u425_21:
  4675     09BD  29BA               	goto	i1l274
  4676     09BE                     u425_20:
  4677     09BE                     i1l2867:
  4678                           
  4679                           ;main.c: 175:     pulse_duration = (TMR1H << 8) + TMR1L;
  4680     09BE  080F               	movf	15,w	;volatile
  4681     09BF  00E6               	movwf	i1ultrasonic_measure_distance@pulse_duration+1
  4682     09C0  080E               	movf	14,w	;volatile
  4683     09C1  00E5               	movwf	i1ultrasonic_measure_distance@pulse_duration
  4684     09C2                     i1l2869:
  4685                           
  4686                           ;main.c: 176:     T1CONbits.TMR1ON = 0;
  4687     09C2  1010               	bcf	16,0	;volatile
  4688     09C3                     i1l2871:
  4689                           
  4690                           ;main.c: 177:     distance = (pulse_duration*0.5*1)/58;
  4691     09C3  0865               	movf	i1ultrasonic_measure_distance@pulse_duration,w
  4692     09C4  00F0               	movwf	i1___xxtofl@val
  4693     09C5  0866               	movf	i1ultrasonic_measure_distance@pulse_duration+1,w
  4694     09C6  00F1               	movwf	i1___xxtofl@val+1
  4695     09C7  01F2               	clrf	i1___xxtofl@val+2
  4696     09C8  01F3               	clrf	i1___xxtofl@val+3
  4697     09C9  3000               	movlw	0
  4698     09CA  120A  158A  22E8  120A  158A  	fcall	i1___xxtofl
  4699     09CF  0873               	movf	?i1___xxtofl+3,w
  4700     09D0  1283               	bcf	3,5	;RP0=0, select bank0
  4701     09D1  1303               	bcf	3,6	;RP1=0, select bank0
  4702     09D2  00A7               	movwf	i1___flmul@a+3
  4703     09D3  0872               	movf	?i1___xxtofl+2,w
  4704     09D4  00A6               	movwf	i1___flmul@a+2
  4705     09D5  0871               	movf	?i1___xxtofl+1,w
  4706     09D6  00A5               	movwf	i1___flmul@a+1
  4707     09D7  0870               	movf	?i1___xxtofl,w
  4708     09D8  00A4               	movwf	i1___flmul@a
  4709     09D9  303F               	movlw	63
  4710     09DA  00A3               	movwf	i1___flmul@b+3
  4711     09DB  3000               	movlw	0
  4712     09DC  00A2               	movwf	i1___flmul@b+2
  4713     09DD  3000               	movlw	0
  4714     09DE  00A1               	movwf	i1___flmul@b+1
  4715     09DF  3000               	movlw	0
  4716     09E0  00A0               	movwf	i1___flmul@b
  4717     09E1  120A  118A  2376  120A  158A  	fcall	i1___flmul
  4718     09E6  1283               	bcf	3,5	;RP0=0, select bank0
  4719     09E7  1303               	bcf	3,6	;RP1=0, select bank0
  4720     09E8  0823               	movf	?i1___flmul+3,w
  4721     09E9  00E4               	movwf	i1_ultrasonic_measure_distance$1400+3
  4722     09EA  0822               	movf	?i1___flmul+2,w
  4723     09EB  00E3               	movwf	i1_ultrasonic_measure_distance$1400+2
  4724     09EC  0821               	movf	?i1___flmul+1,w
  4725     09ED  00E2               	movwf	i1_ultrasonic_measure_distance$1400+1
  4726     09EE  0820               	movf	?i1___flmul,w
  4727     09EF  00E1               	movwf	i1_ultrasonic_measure_distance$1400
  4728     09F0                     i1l2873:
  4729                           
  4730                           ;main.c: 177:     distance = (pulse_duration*0.5*1)/58;
  4731     09F0  0864               	movf	i1_ultrasonic_measure_distance$1400+3,w
  4732     09F1  00A7               	movwf	i1___flmul@a+3
  4733     09F2  0863               	movf	i1_ultrasonic_measure_distance$1400+2,w
  4734     09F3  00A6               	movwf	i1___flmul@a+2
  4735     09F4  0862               	movf	i1_ultrasonic_measure_distance$1400+1,w
  4736     09F5  00A5               	movwf	i1___flmul@a+1
  4737     09F6  0861               	movf	i1_ultrasonic_measure_distance$1400,w
  4738     09F7  00A4               	movwf	i1___flmul@a
  4739     09F8  303F               	movlw	63
  4740     09F9  00A3               	movwf	i1___flmul@b+3
  4741     09FA  3080               	movlw	128
  4742     09FB  00A2               	movwf	i1___flmul@b+2
  4743     09FC  3000               	movlw	0
  4744     09FD  00A1               	movwf	i1___flmul@b+1
  4745     09FE  3000               	movlw	0
  4746     09FF  00A0               	movwf	i1___flmul@b
  4747     0A00  120A  118A  2376  120A  158A  	fcall	i1___flmul
  4748     0A05  1283               	bcf	3,5	;RP0=0, select bank0
  4749     0A06  1303               	bcf	3,6	;RP1=0, select bank0
  4750     0A07  0823               	movf	?i1___flmul+3,w
  4751     0A08  00C1               	movwf	i1___fldiv@b+3
  4752     0A09  0822               	movf	?i1___flmul+2,w
  4753     0A0A  00C0               	movwf	i1___fldiv@b+2
  4754     0A0B  0821               	movf	?i1___flmul+1,w
  4755     0A0C  00BF               	movwf	i1___fldiv@b+1
  4756     0A0D  0820               	movf	?i1___flmul,w
  4757     0A0E  00BE               	movwf	i1___fldiv@b
  4758     0A0F  3042               	movlw	66
  4759     0A10  00BD               	movwf	i1___fldiv@a+3
  4760     0A11  3068               	movlw	104
  4761     0A12  00BC               	movwf	i1___fldiv@a+2
  4762     0A13  3000               	movlw	0
  4763     0A14  00BB               	movwf	i1___fldiv@a+1
  4764     0A15  3000               	movlw	0
  4765     0A16  00BA               	movwf	i1___fldiv@a
  4766     0A17  120A  158A  245A  120A  158A  	fcall	i1___fldiv
  4767     0A1C  1283               	bcf	3,5	;RP0=0, select bank0
  4768     0A1D  1303               	bcf	3,6	;RP1=0, select bank0
  4769     0A1E  083D               	movf	?i1___fldiv+3,w
  4770     0A1F  00D7               	movwf	i1___fltol@f1+3
  4771     0A20  083C               	movf	?i1___fldiv+2,w
  4772     0A21  00D6               	movwf	i1___fltol@f1+2
  4773     0A22  083B               	movf	?i1___fldiv+1,w
  4774     0A23  00D5               	movwf	i1___fltol@f1+1
  4775     0A24  083A               	movf	?i1___fldiv,w
  4776     0A25  00D4               	movwf	i1___fltol@f1
  4777     0A26  120A  158A  212E  120A  158A  	fcall	i1___fltol
  4778     0A2B  1283               	bcf	3,5	;RP0=0, select bank0
  4779     0A2C  1303               	bcf	3,6	;RP1=0, select bank0
  4780     0A2D  0855               	movf	?i1___fltol+1,w
  4781     0A2E  00E8               	movwf	i1ultrasonic_measure_distance@distance+1
  4782     0A2F  0854               	movf	?i1___fltol,w
  4783     0A30  00E7               	movwf	i1ultrasonic_measure_distance@distance
  4784                           
  4785                           ;main.c: 179:     return distance;
  4786     0A31  0868               	movf	i1ultrasonic_measure_distance@distance+1,w
  4787     0A32  00DF               	movwf	?i1_ultrasonic_measure_distance+1
  4788     0A33  0867               	movf	i1ultrasonic_measure_distance@distance,w
  4789     0A34  00DE               	movwf	?i1_ultrasonic_measure_distance
  4790     0A35                     i1l277:
  4791     0A35  0008               	return
  4792     0A36                     __end_ofi1_ultrasonic_measure_distance:
  4793                           
  4794                           	psect	text14
  4795     0AE8                     __ptext14:	
  4796 ;; *************** function i1___xxtofl *****************
  4797 ;; Defined at:
  4798 ;;		line 10 in file "C:\Program Files\Microchip\xc8\v2.40\pic\sources\c90\common\xxtofl.c"
  4799 ;; Parameters:    Size  Location     Type
  4800 ;;  sign            1    wreg     unsigned char 
  4801 ;;  val             4    0[COMMON] long 
  4802 ;; Auto vars:     Size  Location     Type
  4803 ;;  sign            1    8[COMMON] unsigned char 
  4804 ;;  arg             4   10[COMMON] unsigned long 
  4805 ;;  exp             1    9[COMMON] unsigned char 
  4806 ;; Return value:  Size  Location     Type
  4807 ;;                  4    0[COMMON] unsigned char 
  4808 ;; Registers used:
  4809 ;;		wreg, status,2, status,0
  4810 ;; Tracked objects:
  4811 ;;		On entry : 0/0
  4812 ;;		On exit  : 0/0
  4813 ;;		Unchanged: 0/0
  4814 ;; Data sizes:     COMMON   BANK0   BANK1   BANK3   BANK2
  4815 ;;      Params:         4       0       0       0       0
  4816 ;;      Locals:         6       0       0       0       0
  4817 ;;      Temps:          4       0       0       0       0
  4818 ;;      Totals:        14       0       0       0       0
  4819 ;;Total ram usage:       14 bytes
  4820 ;; Hardware stack levels used: 1
  4821 ;; This function calls:
  4822 ;;		Nothing
  4823 ;; This function is called by:
  4824 ;;		i1_ultrasonic_measure_distance
  4825 ;; This function uses a non-reentrant model
  4826 ;;
  4827                           
  4828     0AE8                     i1___xxtofl:	
  4829                           ;psect for function i1___xxtofl
  4830                           
  4831                           
  4832                           ;incstack = 0
  4833                           ; Regs used in i1___xxtofl: [wreg+status,2+status,0]
  4834                           ;i1___xxtofl@sign stored from wreg
  4835     0AE8  00F8               	movwf	i1___xxtofl@sign
  4836     0AE9                     i1l2719:
  4837     0AE9  0878               	movf	i1___xxtofl@sign,w
  4838     0AEA  1903               	btfsc	3,2
  4839     0AEB  2AED               	goto	u407_21
  4840     0AEC  2AEE               	goto	u407_20
  4841     0AED                     u407_21:
  4842     0AED  2B02               	goto	i1l2725
  4843     0AEE                     u407_20:
  4844     0AEE                     i1l2721:
  4845     0AEE  1FF3               	btfss	i1___xxtofl@val+3,7
  4846     0AEF  2AF1               	goto	u408_21
  4847     0AF0  2AF2               	goto	u408_20
  4848     0AF1                     u408_21:
  4849     0AF1  2B02               	goto	i1l2725
  4850     0AF2                     u408_20:
  4851     0AF2                     i1l2723:
  4852     0AF2  0970               	comf	i1___xxtofl@val,w
  4853     0AF3  00FA               	movwf	i1___xxtofl@arg
  4854     0AF4  0971               	comf	i1___xxtofl@val+1,w
  4855     0AF5  00FB               	movwf	i1___xxtofl@arg+1
  4856     0AF6  0972               	comf	i1___xxtofl@val+2,w
  4857     0AF7  00FC               	movwf	i1___xxtofl@arg+2
  4858     0AF8  0973               	comf	i1___xxtofl@val+3,w
  4859     0AF9  00FD               	movwf	i1___xxtofl@arg+3
  4860     0AFA  0AFA               	incf	i1___xxtofl@arg,f
  4861     0AFB  1903               	skipnz
  4862     0AFC  0AFB               	incf	i1___xxtofl@arg+1,f
  4863     0AFD  1903               	skipnz
  4864     0AFE  0AFC               	incf	i1___xxtofl@arg+2,f
  4865     0AFF  1903               	skipnz
  4866     0B00  0AFD               	incf	i1___xxtofl@arg+3,f
  4867     0B01  2B0A               	goto	i1l796
  4868     0B02                     i1l2725:
  4869     0B02  0873               	movf	i1___xxtofl@val+3,w
  4870     0B03  00FD               	movwf	i1___xxtofl@arg+3
  4871     0B04  0872               	movf	i1___xxtofl@val+2,w
  4872     0B05  00FC               	movwf	i1___xxtofl@arg+2
  4873     0B06  0871               	movf	i1___xxtofl@val+1,w
  4874     0B07  00FB               	movwf	i1___xxtofl@arg+1
  4875     0B08  0870               	movf	i1___xxtofl@val,w
  4876     0B09  00FA               	movwf	i1___xxtofl@arg
  4877     0B0A                     i1l796:
  4878     0B0A  0873               	movf	i1___xxtofl@val+3,w
  4879     0B0B  0472               	iorwf	i1___xxtofl@val+2,w
  4880     0B0C  0471               	iorwf	i1___xxtofl@val+1,w
  4881     0B0D  0470               	iorwf	i1___xxtofl@val,w
  4882     0B0E  1D03               	skipz
  4883     0B0F  2B11               	goto	u409_21
  4884     0B10  2B12               	goto	u409_20
  4885     0B11                     u409_21:
  4886     0B11  2B1B               	goto	i1l2731
  4887     0B12                     u409_20:
  4888     0B12                     i1l2727:
  4889     0B12  3000               	movlw	0
  4890     0B13  00F3               	movwf	?i1___xxtofl+3
  4891     0B14  3000               	movlw	0
  4892     0B15  00F2               	movwf	?i1___xxtofl+2
  4893     0B16  3000               	movlw	0
  4894     0B17  00F1               	movwf	?i1___xxtofl+1
  4895     0B18  3000               	movlw	0
  4896     0B19  00F0               	movwf	?i1___xxtofl
  4897     0B1A  2B9F               	goto	i1l798
  4898     0B1B                     i1l2731:
  4899     0B1B  3096               	movlw	150
  4900     0B1C  00F9               	movwf	i1___xxtofl@exp
  4901     0B1D  2B2B               	goto	i1l2735
  4902     0B1E                     i1l2733:
  4903     0B1E  3001               	movlw	1
  4904     0B1F  00F4               	movwf	??i1___xxtofl
  4905     0B20  0874               	movf	??i1___xxtofl,w
  4906     0B21  07F9               	addwf	i1___xxtofl@exp,f
  4907     0B22  3001               	movlw	1
  4908     0B23                     u410_25:
  4909     0B23  1003               	clrc
  4910     0B24  0CFD               	rrf	i1___xxtofl@arg+3,f
  4911     0B25  0CFC               	rrf	i1___xxtofl@arg+2,f
  4912     0B26  0CFB               	rrf	i1___xxtofl@arg+1,f
  4913     0B27  0CFA               	rrf	i1___xxtofl@arg,f
  4914     0B28  3EFF               	addlw	-1
  4915     0B29  1D03               	skipz
  4916     0B2A  2B23               	goto	u410_25
  4917     0B2B                     i1l2735:
  4918     0B2B  30FE               	movlw	254
  4919     0B2C  057D               	andwf	i1___xxtofl@arg+3,w
  4920     0B2D  1D03               	btfss	3,2
  4921     0B2E  2B30               	goto	u411_21
  4922     0B2F  2B31               	goto	u411_20
  4923     0B30                     u411_21:
  4924     0B30  2B1E               	goto	i1l2733
  4925     0B31                     u411_20:
  4926     0B31  2B4D               	goto	i1l802
  4927     0B32                     i1l2737:
  4928     0B32  3001               	movlw	1
  4929     0B33  00F4               	movwf	??i1___xxtofl
  4930     0B34  0874               	movf	??i1___xxtofl,w
  4931     0B35  07F9               	addwf	i1___xxtofl@exp,f
  4932     0B36                     i1l2739:
  4933     0B36  3001               	movlw	1
  4934     0B37  07FA               	addwf	i1___xxtofl@arg,f
  4935     0B38  3000               	movlw	0
  4936     0B39  1803               	skipnc
  4937     0B3A  3001               	movlw	1
  4938     0B3B  07FB               	addwf	i1___xxtofl@arg+1,f
  4939     0B3C  3000               	movlw	0
  4940     0B3D  1803               	skipnc
  4941     0B3E  3001               	movlw	1
  4942     0B3F  07FC               	addwf	i1___xxtofl@arg+2,f
  4943     0B40  3000               	movlw	0
  4944     0B41  1803               	skipnc
  4945     0B42  3001               	movlw	1
  4946     0B43  07FD               	addwf	i1___xxtofl@arg+3,f
  4947     0B44                     i1l2741:
  4948     0B44  3001               	movlw	1
  4949     0B45                     u412_25:
  4950     0B45  1003               	clrc
  4951     0B46  0CFD               	rrf	i1___xxtofl@arg+3,f
  4952     0B47  0CFC               	rrf	i1___xxtofl@arg+2,f
  4953     0B48  0CFB               	rrf	i1___xxtofl@arg+1,f
  4954     0B49  0CFA               	rrf	i1___xxtofl@arg,f
  4955     0B4A  3EFF               	addlw	-1
  4956     0B4B  1D03               	skipz
  4957     0B4C  2B45               	goto	u412_25
  4958     0B4D                     i1l802:
  4959     0B4D  30FF               	movlw	255
  4960     0B4E  057D               	andwf	i1___xxtofl@arg+3,w
  4961     0B4F  1D03               	btfss	3,2
  4962     0B50  2B52               	goto	u413_21
  4963     0B51  2B53               	goto	u413_20
  4964     0B52                     u413_21:
  4965     0B52  2B32               	goto	i1l2737
  4966     0B53                     u413_20:
  4967     0B53  2B5F               	goto	i1l2745
  4968     0B54                     i1l2743:
  4969     0B54  3001               	movlw	1
  4970     0B55  02F9               	subwf	i1___xxtofl@exp,f
  4971     0B56  3001               	movlw	1
  4972     0B57  00F4               	movwf	??i1___xxtofl
  4973     0B58                     u414_25:
  4974     0B58  1003               	clrc
  4975     0B59  0DFA               	rlf	i1___xxtofl@arg,f
  4976     0B5A  0DFB               	rlf	i1___xxtofl@arg+1,f
  4977     0B5B  0DFC               	rlf	i1___xxtofl@arg+2,f
  4978     0B5C  0DFD               	rlf	i1___xxtofl@arg+3,f
  4979     0B5D  0BF4               	decfsz	??i1___xxtofl,f
  4980     0B5E  2B58               	goto	u414_25
  4981     0B5F                     i1l2745:
  4982     0B5F  1BFC               	btfsc	i1___xxtofl@arg+2,7
  4983     0B60  2B62               	goto	u415_21
  4984     0B61  2B63               	goto	u415_20
  4985     0B62                     u415_21:
  4986     0B62  2B69               	goto	i1l809
  4987     0B63                     u415_20:
  4988     0B63                     i1l2747:
  4989     0B63  3002               	movlw	2
  4990     0B64  0279               	subwf	i1___xxtofl@exp,w
  4991     0B65  1803               	skipnc
  4992     0B66  2B68               	goto	u416_21
  4993     0B67  2B69               	goto	u416_20
  4994     0B68                     u416_21:
  4995     0B68  2B54               	goto	i1l2743
  4996     0B69                     u416_20:
  4997     0B69                     i1l809:
  4998     0B69  1879               	btfsc	i1___xxtofl@exp,0
  4999     0B6A  2B6C               	goto	u417_21
  5000     0B6B  2B6D               	goto	u417_20
  5001     0B6C                     u417_21:
  5002     0B6C  2B75               	goto	i1l810
  5003     0B6D                     u417_20:
  5004     0B6D                     i1l2749:
  5005     0B6D  30FF               	movlw	255
  5006     0B6E  05FA               	andwf	i1___xxtofl@arg,f
  5007     0B6F  30FF               	movlw	255
  5008     0B70  05FB               	andwf	i1___xxtofl@arg+1,f
  5009     0B71  307F               	movlw	127
  5010     0B72  05FC               	andwf	i1___xxtofl@arg+2,f
  5011     0B73  30FF               	movlw	255
  5012     0B74  05FD               	andwf	i1___xxtofl@arg+3,f
  5013     0B75                     i1l810:
  5014     0B75  1003               	clrc
  5015     0B76  0CF9               	rrf	i1___xxtofl@exp,f
  5016     0B77                     i1l2751:
  5017     0B77  0879               	movf	i1___xxtofl@exp,w
  5018     0B78  00F4               	movwf	??i1___xxtofl
  5019     0B79  01F5               	clrf	??i1___xxtofl+1
  5020     0B7A  01F6               	clrf	??i1___xxtofl+2
  5021     0B7B  01F7               	clrf	??i1___xxtofl+3
  5022     0B7C  3018               	movlw	24
  5023     0B7D                     u418_25:
  5024     0B7D  1003               	clrc
  5025     0B7E  0DF4               	rlf	??i1___xxtofl,f
  5026     0B7F  0DF5               	rlf	??i1___xxtofl+1,f
  5027     0B80  0DF6               	rlf	??i1___xxtofl+2,f
  5028     0B81  0DF7               	rlf	??i1___xxtofl+3,f
  5029     0B82                     u418_20:
  5030     0B82  3EFF               	addlw	-1
  5031     0B83  1D03               	skipz
  5032     0B84  2B7D               	goto	u418_25
  5033     0B85  0874               	movf	??i1___xxtofl,w
  5034     0B86  04FA               	iorwf	i1___xxtofl@arg,f
  5035     0B87  0875               	movf	??i1___xxtofl+1,w
  5036     0B88  04FB               	iorwf	i1___xxtofl@arg+1,f
  5037     0B89  0876               	movf	??i1___xxtofl+2,w
  5038     0B8A  04FC               	iorwf	i1___xxtofl@arg+2,f
  5039     0B8B  0877               	movf	??i1___xxtofl+3,w
  5040     0B8C  04FD               	iorwf	i1___xxtofl@arg+3,f
  5041     0B8D                     i1l2753:
  5042     0B8D  0878               	movf	i1___xxtofl@sign,w
  5043     0B8E  1903               	btfsc	3,2
  5044     0B8F  2B91               	goto	u419_21
  5045     0B90  2B92               	goto	u419_20
  5046     0B91                     u419_21:
  5047     0B91  2B97               	goto	i1l2759
  5048     0B92                     u419_20:
  5049     0B92                     i1l2755:
  5050     0B92  1FF3               	btfss	i1___xxtofl@val+3,7
  5051     0B93  2B95               	goto	u420_21
  5052     0B94  2B96               	goto	u420_20
  5053     0B95                     u420_21:
  5054     0B95  2B97               	goto	i1l2759
  5055     0B96                     u420_20:
  5056     0B96                     i1l2757:
  5057     0B96  17FD               	bsf	i1___xxtofl@arg+3,7
  5058     0B97                     i1l2759:
  5059     0B97  087D               	movf	i1___xxtofl@arg+3,w
  5060     0B98  00F3               	movwf	?i1___xxtofl+3
  5061     0B99  087C               	movf	i1___xxtofl@arg+2,w
  5062     0B9A  00F2               	movwf	?i1___xxtofl+2
  5063     0B9B  087B               	movf	i1___xxtofl@arg+1,w
  5064     0B9C  00F1               	movwf	?i1___xxtofl+1
  5065     0B9D  087A               	movf	i1___xxtofl@arg,w
  5066     0B9E  00F0               	movwf	?i1___xxtofl
  5067     0B9F                     i1l798:
  5068     0B9F  0008               	return
  5069     0BA0                     __end_ofi1___xxtofl:
  5070                           
  5071                           	psect	text15
  5072     092E                     __ptext15:	
  5073 ;; *************** function i1___fltol *****************
  5074 ;; Defined at:
  5075 ;;		line 43 in file "C:\Program Files\Microchip\xc8\v2.40\pic\sources\c90\common\fltol.c"
  5076 ;; Parameters:    Size  Location     Type
  5077 ;;  f1              4   52[BANK0 ] unsigned char 
  5078 ;; Auto vars:     Size  Location     Type
  5079 ;;  exp1            1   61[BANK0 ] unsigned char 
  5080 ;;  sign1           1   60[BANK0 ] unsigned char 
  5081 ;; Return value:  Size  Location     Type
  5082 ;;                  4   52[BANK0 ] long 
  5083 ;; Registers used:
  5084 ;;		wreg, status,2, status,0
  5085 ;; Tracked objects:
  5086 ;;		On entry : 0/0
  5087 ;;		On exit  : 0/0
  5088 ;;		Unchanged: 0/0
  5089 ;; Data sizes:     COMMON   BANK0   BANK1   BANK3   BANK2
  5090 ;;      Params:         0       4       0       0       0
  5091 ;;      Locals:         0       2       0       0       0
  5092 ;;      Temps:          0       4       0       0       0
  5093 ;;      Totals:         0      10       0       0       0
  5094 ;;Total ram usage:       10 bytes
  5095 ;; Hardware stack levels used: 1
  5096 ;; This function calls:
  5097 ;;		Nothing
  5098 ;; This function is called by:
  5099 ;;		i1_ultrasonic_measure_distance
  5100 ;; This function uses a non-reentrant model
  5101 ;;
  5102                           
  5103     092E                     i1___fltol:	
  5104                           ;psect for function i1___fltol
  5105                           
  5106     092E                     i1l2401:	
  5107                           ;incstack = 0
  5108                           ; Regs used in i1___fltol: [wreg+status,2+status,0]
  5109                           
  5110     092E  1003               	clrc
  5111     092F  1283               	bcf	3,5	;RP0=0, select bank0
  5112     0930  1303               	bcf	3,6	;RP1=0, select bank0
  5113     0931  0D56               	rlf	i1___fltol@f1+2,w
  5114     0932  0D57               	rlf	i1___fltol@f1+3,w
  5115     0933  00DD               	movwf	i1___fltol@exp1
  5116     0934  085D               	movf	i1___fltol@exp1,w
  5117     0935  1D03               	btfss	3,2
  5118     0936  2938               	goto	u331_21
  5119     0937  2939               	goto	u331_20
  5120     0938                     u331_21:
  5121     0938  2942               	goto	i1l2407
  5122     0939                     u331_20:
  5123     0939                     i1l2403:
  5124     0939  3000               	movlw	0
  5125     093A  00D7               	movwf	?i1___fltol+3
  5126     093B  3000               	movlw	0
  5127     093C  00D6               	movwf	?i1___fltol+2
  5128     093D  3000               	movlw	0
  5129     093E  00D5               	movwf	?i1___fltol+1
  5130     093F  3000               	movlw	0
  5131     0940  00D4               	movwf	?i1___fltol
  5132     0941  29A5               	goto	i1l549
  5133     0942                     i1l2407:
  5134     0942  0854               	movf	i1___fltol@f1,w
  5135     0943  00D8               	movwf	??i1___fltol
  5136     0944  0855               	movf	i1___fltol@f1+1,w
  5137     0945  00D9               	movwf	??i1___fltol+1
  5138     0946  0856               	movf	i1___fltol@f1+2,w
  5139     0947  00DA               	movwf	??i1___fltol+2
  5140     0948  0857               	movf	i1___fltol@f1+3,w
  5141     0949  00DB               	movwf	??i1___fltol+3
  5142     094A  301F               	movlw	31
  5143     094B                     u332_25:
  5144     094B  1003               	clrc
  5145     094C  0CDB               	rrf	??i1___fltol+3,f
  5146     094D  0CDA               	rrf	??i1___fltol+2,f
  5147     094E  0CD9               	rrf	??i1___fltol+1,f
  5148     094F  0CD8               	rrf	??i1___fltol,f
  5149     0950                     u332_20:
  5150     0950  3EFF               	addlw	-1
  5151     0951  1D03               	skipz
  5152     0952  294B               	goto	u332_25
  5153     0953  0858               	movf	??i1___fltol,w
  5154     0954  00DC               	movwf	i1___fltol@sign1
  5155     0955                     i1l2409:
  5156     0955  17D6               	bsf	i1___fltol@f1+2,7
  5157     0956                     i1l2411:
  5158     0956  30FF               	movlw	255
  5159     0957  05D4               	andwf	i1___fltol@f1,f
  5160     0958  30FF               	movlw	255
  5161     0959  05D5               	andwf	i1___fltol@f1+1,f
  5162     095A  30FF               	movlw	255
  5163     095B  05D6               	andwf	i1___fltol@f1+2,f
  5164     095C  3000               	movlw	0
  5165     095D  05D7               	andwf	i1___fltol@f1+3,f
  5166     095E                     i1l2413:
  5167     095E  3096               	movlw	150
  5168     095F  02DD               	subwf	i1___fltol@exp1,f
  5169     0960                     i1l2415:
  5170     0960  1FDD               	btfss	i1___fltol@exp1,7
  5171     0961  2963               	goto	u333_21
  5172     0962  2964               	goto	u333_20
  5173     0963                     u333_21:
  5174     0963  297E               	goto	i1l2425
  5175     0964                     u333_20:
  5176     0964                     i1l2417:
  5177     0964  085D               	movf	i1___fltol@exp1,w
  5178     0965  3A80               	xorlw	128
  5179     0966  3E97               	addlw	151
  5180     0967  1803               	skipnc
  5181     0968  296A               	goto	u334_21
  5182     0969  296B               	goto	u334_20
  5183     096A                     u334_21:
  5184     096A  296C               	goto	i1l2423
  5185     096B                     u334_20:
  5186     096B  2939               	goto	i1l2403
  5187     096C                     i1l2423:
  5188     096C  3001               	movlw	1
  5189     096D                     u335_25:
  5190     096D  1003               	clrc
  5191     096E  0CD7               	rrf	i1___fltol@f1+3,f
  5192     096F  0CD6               	rrf	i1___fltol@f1+2,f
  5193     0970  0CD5               	rrf	i1___fltol@f1+1,f
  5194     0971  0CD4               	rrf	i1___fltol@f1,f
  5195     0972  3EFF               	addlw	-1
  5196     0973  1D03               	skipz
  5197     0974  296D               	goto	u335_25
  5198     0975  3001               	movlw	1
  5199     0976  00D8               	movwf	??i1___fltol
  5200     0977  0858               	movf	??i1___fltol,w
  5201     0978  07DD               	addwf	i1___fltol@exp1,f
  5202     0979  1D03               	btfss	3,2
  5203     097A  297C               	goto	u336_21
  5204     097B  297D               	goto	u336_20
  5205     097C                     u336_21:
  5206     097C  296C               	goto	i1l2423
  5207     097D                     u336_20:
  5208     097D  2995               	goto	i1l2433
  5209     097E                     i1l2425:
  5210     097E  3020               	movlw	32
  5211     097F  025D               	subwf	i1___fltol@exp1,w
  5212     0980  1C03               	skipc
  5213     0981  2983               	goto	u337_21
  5214     0982  2984               	goto	u337_20
  5215     0983                     u337_21:
  5216     0983  2990               	goto	i1l556
  5217     0984                     u337_20:
  5218     0984  2939               	goto	i1l2403
  5219     0985                     i1l2431:
  5220     0985  3001               	movlw	1
  5221     0986  00D8               	movwf	??i1___fltol
  5222     0987                     u338_25:
  5223     0987  1003               	clrc
  5224     0988  0DD4               	rlf	i1___fltol@f1,f
  5225     0989  0DD5               	rlf	i1___fltol@f1+1,f
  5226     098A  0DD6               	rlf	i1___fltol@f1+2,f
  5227     098B  0DD7               	rlf	i1___fltol@f1+3,f
  5228     098C  0BD8               	decfsz	??i1___fltol,f
  5229     098D  2987               	goto	u338_25
  5230     098E  3001               	movlw	1
  5231     098F  02DD               	subwf	i1___fltol@exp1,f
  5232     0990                     i1l556:
  5233     0990  085D               	movf	i1___fltol@exp1,w
  5234     0991  1D03               	btfss	3,2
  5235     0992  2994               	goto	u339_21
  5236     0993  2995               	goto	u339_20
  5237     0994                     u339_21:
  5238     0994  2985               	goto	i1l2431
  5239     0995                     u339_20:
  5240     0995                     i1l2433:
  5241     0995  085C               	movf	i1___fltol@sign1,w
  5242     0996  1903               	btfsc	3,2
  5243     0997  2999               	goto	u340_21
  5244     0998  299A               	goto	u340_20
  5245     0999                     u340_21:
  5246     0999  29A5               	goto	i1l559
  5247     099A                     u340_20:
  5248     099A                     i1l2435:
  5249     099A  09D4               	comf	i1___fltol@f1,f
  5250     099B  09D5               	comf	i1___fltol@f1+1,f
  5251     099C  09D6               	comf	i1___fltol@f1+2,f
  5252     099D  09D7               	comf	i1___fltol@f1+3,f
  5253     099E  0AD4               	incf	i1___fltol@f1,f
  5254     099F  1903               	skipnz
  5255     09A0  0AD5               	incf	i1___fltol@f1+1,f
  5256     09A1  1903               	skipnz
  5257     09A2  0AD6               	incf	i1___fltol@f1+2,f
  5258     09A3  1903               	skipnz
  5259     09A4  0AD7               	incf	i1___fltol@f1+3,f
  5260     09A5                     i1l559:
  5261     09A5                     i1l549:
  5262     09A5  0008               	return
  5263     09A6                     __end_ofi1___fltol:
  5264                           
  5265                           	psect	text16
  5266     0376                     __ptext16:	
  5267 ;; *************** function i1___flmul *****************
  5268 ;; Defined at:
  5269 ;;		line 8 in file "C:\Program Files\Microchip\xc8\v2.40\pic\sources\c90\common\sprcmul.c"
  5270 ;; Parameters:    Size  Location     Type
  5271 ;;  b               4    0[BANK0 ] long 
  5272 ;;  a               4    4[BANK0 ] long 
  5273 ;; Auto vars:     Size  Location     Type
  5274 ;;  prod            4   20[BANK0 ] struct .
  5275 ;;  grs             4   14[BANK0 ] unsigned long 
  5276 ;;  temp            2   24[BANK0 ] struct .
  5277 ;;  bexp            1   19[BANK0 ] unsigned char 
  5278 ;;  aexp            1   18[BANK0 ] unsigned char 
  5279 ;;  sign            1   13[BANK0 ] unsigned char 
  5280 ;; Return value:  Size  Location     Type
  5281 ;;                  4    0[BANK0 ] unsigned char 
  5282 ;; Registers used:
  5283 ;;		wreg, status,2, status,0, btemp+1, pclath, cstack
  5284 ;; Tracked objects:
  5285 ;;		On entry : 0/0
  5286 ;;		On exit  : 0/0
  5287 ;;		Unchanged: 0/0
  5288 ;; Data sizes:     COMMON   BANK0   BANK1   BANK3   BANK2
  5289 ;;      Params:         0       8       0       0       0
  5290 ;;      Locals:         0      13       0       0       0
  5291 ;;      Temps:          0       5       0       0       0
  5292 ;;      Totals:         0      26       0       0       0
  5293 ;;Total ram usage:       26 bytes
  5294 ;; Hardware stack levels used: 1
  5295 ;; Hardware stack levels required when called: 1
  5296 ;; This function calls:
  5297 ;;		i1__Umul8_16
  5298 ;; This function is called by:
  5299 ;;		i1_ultrasonic_measure_distance
  5300 ;; This function uses a non-reentrant model
  5301 ;;
  5302                           
  5303     0376                     i1___flmul:	
  5304                           ;psect for function i1___flmul
  5305                           
  5306     0376                     i1l2579:	
  5307                           ;incstack = 0
  5308                           ; Regs used in i1___flmul: [wreg+status,2+status,0+btemp+1+pclath+cstack]
  5309                           
  5310     0376  1283               	bcf	3,5	;RP0=0, select bank0
  5311     0377  1303               	bcf	3,6	;RP1=0, select bank0
  5312     0378  0823               	movf	i1___flmul@b+3,w
  5313     0379  3980               	andlw	128
  5314     037A  00AD               	movwf	i1___flmul@sign
  5315     037B                     i1l2581:
  5316     037B  0823               	movf	i1___flmul@b+3,w
  5317     037C  00A8               	movwf	??i1___flmul
  5318     037D  0728               	addwf	??i1___flmul,w
  5319     037E  00B3               	movwf	i1___flmul@bexp
  5320     037F                     i1l2583:
  5321     037F  1FA2               	btfss	i1___flmul@b+2,7
  5322     0380  2B82               	goto	u370_21
  5323     0381  2B83               	goto	u370_20
  5324     0382                     u370_21:
  5325     0382  2B84               	goto	i1l2587
  5326     0383                     u370_20:
  5327     0383                     i1l2585:
  5328     0383  1433               	bsf	i1___flmul@bexp,0
  5329     0384                     i1l2587:
  5330     0384  0833               	movf	i1___flmul@bexp,w
  5331     0385  1903               	btfsc	3,2
  5332     0386  2B88               	goto	u371_21
  5333     0387  2B89               	goto	u371_20
  5334     0388                     u371_21:
  5335     0388  2B98               	goto	i1l2595
  5336     0389                     u371_20:
  5337     0389                     i1l2589:
  5338     0389  0A33               	incf	i1___flmul@bexp,w
  5339     038A  1D03               	btfss	3,2
  5340     038B  2B8D               	goto	u372_21
  5341     038C  2B8E               	goto	u372_20
  5342     038D                     u372_21:
  5343     038D  2B96               	goto	i1l2593
  5344     038E                     u372_20:
  5345     038E                     i1l2591:
  5346     038E  3000               	movlw	0
  5347     038F  00A3               	movwf	i1___flmul@b+3
  5348     0390  3000               	movlw	0
  5349     0391  00A2               	movwf	i1___flmul@b+2
  5350     0392  3000               	movlw	0
  5351     0393  00A1               	movwf	i1___flmul@b+1
  5352     0394  3000               	movlw	0
  5353     0395  00A0               	movwf	i1___flmul@b
  5354     0396                     i1l2593:
  5355     0396  17A2               	bsf	i1___flmul@b+2,7
  5356     0397  2BA0               	goto	i1l2597
  5357     0398                     i1l2595:
  5358     0398  3000               	movlw	0
  5359     0399  00A3               	movwf	i1___flmul@b+3
  5360     039A  3000               	movlw	0
  5361     039B  00A2               	movwf	i1___flmul@b+2
  5362     039C  3000               	movlw	0
  5363     039D  00A1               	movwf	i1___flmul@b+1
  5364     039E  3000               	movlw	0
  5365     039F  00A0               	movwf	i1___flmul@b
  5366     03A0                     i1l2597:
  5367     03A0  0827               	movf	i1___flmul@a+3,w
  5368     03A1  3980               	andlw	128
  5369     03A2  00A8               	movwf	??i1___flmul
  5370     03A3  0828               	movf	??i1___flmul,w
  5371     03A4  06AD               	xorwf	i1___flmul@sign,f
  5372     03A5                     i1l2599:
  5373     03A5  0827               	movf	i1___flmul@a+3,w
  5374     03A6  00A8               	movwf	??i1___flmul
  5375     03A7  0728               	addwf	??i1___flmul,w
  5376     03A8  00B2               	movwf	i1___flmul@aexp
  5377     03A9                     i1l2601:
  5378     03A9  1FA6               	btfss	i1___flmul@a+2,7
  5379     03AA  2BAC               	goto	u373_21
  5380     03AB  2BAD               	goto	u373_20
  5381     03AC                     u373_21:
  5382     03AC  2BAE               	goto	i1l2605
  5383     03AD                     u373_20:
  5384     03AD                     i1l2603:
  5385     03AD  1432               	bsf	i1___flmul@aexp,0
  5386     03AE                     i1l2605:
  5387     03AE  0832               	movf	i1___flmul@aexp,w
  5388     03AF  1903               	btfsc	3,2
  5389     03B0  2BB2               	goto	u374_21
  5390     03B1  2BB3               	goto	u374_20
  5391     03B2                     u374_21:
  5392     03B2  2BC2               	goto	i1l2613
  5393     03B3                     u374_20:
  5394     03B3                     i1l2607:
  5395     03B3  0A32               	incf	i1___flmul@aexp,w
  5396     03B4  1D03               	btfss	3,2
  5397     03B5  2BB7               	goto	u375_21
  5398     03B6  2BB8               	goto	u375_20
  5399     03B7                     u375_21:
  5400     03B7  2BC0               	goto	i1l2611
  5401     03B8                     u375_20:
  5402     03B8                     i1l2609:
  5403     03B8  3000               	movlw	0
  5404     03B9  00A7               	movwf	i1___flmul@a+3
  5405     03BA  3000               	movlw	0
  5406     03BB  00A6               	movwf	i1___flmul@a+2
  5407     03BC  3000               	movlw	0
  5408     03BD  00A5               	movwf	i1___flmul@a+1
  5409     03BE  3000               	movlw	0
  5410     03BF  00A4               	movwf	i1___flmul@a
  5411     03C0                     i1l2611:
  5412     03C0  17A6               	bsf	i1___flmul@a+2,7
  5413     03C1  2BCA               	goto	i1l2615
  5414     03C2                     i1l2613:
  5415     03C2  3000               	movlw	0
  5416     03C3  00A7               	movwf	i1___flmul@a+3
  5417     03C4  3000               	movlw	0
  5418     03C5  00A6               	movwf	i1___flmul@a+2
  5419     03C6  3000               	movlw	0
  5420     03C7  00A5               	movwf	i1___flmul@a+1
  5421     03C8  3000               	movlw	0
  5422     03C9  00A4               	movwf	i1___flmul@a
  5423     03CA                     i1l2615:
  5424     03CA  0832               	movf	i1___flmul@aexp,w
  5425     03CB  1903               	btfsc	3,2
  5426     03CC  2BCE               	goto	u376_21
  5427     03CD  2BCF               	goto	u376_20
  5428     03CE                     u376_21:
  5429     03CE  2BD4               	goto	i1l2619
  5430     03CF                     u376_20:
  5431     03CF                     i1l2617:
  5432     03CF  0833               	movf	i1___flmul@bexp,w
  5433     03D0  1D03               	btfss	3,2
  5434     03D1  2BD3               	goto	u377_21
  5435     03D2  2BD4               	goto	u377_20
  5436     03D3                     u377_21:
  5437     03D3  2BDD               	goto	i1l2623
  5438     03D4                     u377_20:
  5439     03D4                     i1l2619:
  5440     03D4  3000               	movlw	0
  5441     03D5  00A3               	movwf	?i1___flmul+3
  5442     03D6  3000               	movlw	0
  5443     03D7  00A2               	movwf	?i1___flmul+2
  5444     03D8  3000               	movlw	0
  5445     03D9  00A1               	movwf	?i1___flmul+1
  5446     03DA  3000               	movlw	0
  5447     03DB  00A0               	movwf	?i1___flmul
  5448     03DC  2EBA               	goto	i1l752
  5449     03DD                     i1l2623:
  5450     03DD  0820               	movf	i1___flmul@b,w
  5451     03DE  00F0               	movwf	i1__Umul8_16@multiplicand
  5452     03DF  0826               	movf	i1___flmul@a+2,w
  5453     03E0  160A  118A  27B0  120A  118A  	fcall	i1__Umul8_16
  5454     03E5  0871               	movf	?i1__Umul8_16+1,w
  5455     03E6  1283               	bcf	3,5	;RP0=0, select bank0
  5456     03E7  1303               	bcf	3,6	;RP1=0, select bank0
  5457     03E8  00B9               	movwf	i1___flmul@temp+1
  5458     03E9  0870               	movf	?i1__Umul8_16,w
  5459     03EA  00B8               	movwf	i1___flmul@temp
  5460     03EB                     i1l2625:
  5461     03EB  0838               	movf	i1___flmul@temp,w
  5462     03EC  00A8               	movwf	??i1___flmul
  5463     03ED  01A9               	clrf	??i1___flmul+1
  5464     03EE  01AA               	clrf	??i1___flmul+2
  5465     03EF  01AB               	clrf	??i1___flmul+3
  5466     03F0  082B               	movf	??i1___flmul+3,w
  5467     03F1  00B1               	movwf	i1___flmul@grs+3
  5468     03F2  082A               	movf	??i1___flmul+2,w
  5469     03F3  00B0               	movwf	i1___flmul@grs+2
  5470     03F4  0829               	movf	??i1___flmul+1,w
  5471     03F5  00AF               	movwf	i1___flmul@grs+1
  5472     03F6  0828               	movf	??i1___flmul,w
  5473     03F7  00AE               	movwf	i1___flmul@grs
  5474     03F8                     i1l2627:
  5475     03F8  0839               	movf	i1___flmul@temp+1,w
  5476     03F9  00A8               	movwf	??i1___flmul
  5477     03FA  01A9               	clrf	??i1___flmul+1
  5478     03FB  01AA               	clrf	??i1___flmul+2
  5479     03FC  01AB               	clrf	??i1___flmul+3
  5480     03FD  082B               	movf	??i1___flmul+3,w
  5481     03FE  00B7               	movwf	i1___flmul@prod+3
  5482     03FF  082A               	movf	??i1___flmul+2,w
  5483     0400  00B6               	movwf	i1___flmul@prod+2
  5484     0401  0829               	movf	??i1___flmul+1,w
  5485     0402  00B5               	movwf	i1___flmul@prod+1
  5486     0403  0828               	movf	??i1___flmul,w
  5487     0404  00B4               	movwf	i1___flmul@prod
  5488     0405  0821               	movf	i1___flmul@b+1,w
  5489     0406  00F0               	movwf	i1__Umul8_16@multiplicand
  5490     0407  0825               	movf	i1___flmul@a+1,w
  5491     0408  160A  118A  27B0  120A  118A  	fcall	i1__Umul8_16
  5492     040D  0871               	movf	?i1__Umul8_16+1,w
  5493     040E  1283               	bcf	3,5	;RP0=0, select bank0
  5494     040F  1303               	bcf	3,6	;RP1=0, select bank0
  5495     0410  00B9               	movwf	i1___flmul@temp+1
  5496     0411  0870               	movf	?i1__Umul8_16,w
  5497     0412  00B8               	movwf	i1___flmul@temp
  5498     0413                     i1l2629:
  5499     0413  0838               	movf	i1___flmul@temp,w
  5500     0414  00A8               	movwf	??i1___flmul
  5501     0415  01A9               	clrf	??i1___flmul+1
  5502     0416  01AA               	clrf	??i1___flmul+2
  5503     0417  01AB               	clrf	??i1___flmul+3
  5504     0418  0828               	movf	??i1___flmul,w
  5505     0419  07AE               	addwf	i1___flmul@grs,f
  5506     041A  0829               	movf	??i1___flmul+1,w
  5507     041B  1103               	clrz
  5508     041C  1803               	skipnc
  5509     041D  3E01               	addlw	1
  5510     041E  1903               	skipnz
  5511     041F  2C21               	goto	u378_21
  5512     0420  07AF               	addwf	i1___flmul@grs+1,f
  5513     0421                     u378_21:
  5514     0421  082A               	movf	??i1___flmul+2,w
  5515     0422  1103               	clrz
  5516     0423  1803               	skipnc
  5517     0424  3E01               	addlw	1
  5518     0425  1903               	skipnz
  5519     0426  2C28               	goto	u378_22
  5520     0427  07B0               	addwf	i1___flmul@grs+2,f
  5521     0428                     u378_22:
  5522     0428  082B               	movf	??i1___flmul+3,w
  5523     0429  1103               	clrz
  5524     042A  1803               	skipnc
  5525     042B  3E01               	addlw	1
  5526     042C  1903               	skipnz
  5527     042D  2C2F               	goto	u378_23
  5528     042E  07B1               	addwf	i1___flmul@grs+3,f
  5529     042F                     u378_23:
  5530     042F                     i1l2631:
  5531     042F  0839               	movf	i1___flmul@temp+1,w
  5532     0430  00A8               	movwf	??i1___flmul
  5533     0431  01A9               	clrf	??i1___flmul+1
  5534     0432  01AA               	clrf	??i1___flmul+2
  5535     0433  01AB               	clrf	??i1___flmul+3
  5536     0434  0828               	movf	??i1___flmul,w
  5537     0435  07B4               	addwf	i1___flmul@prod,f
  5538     0436  0829               	movf	??i1___flmul+1,w
  5539     0437  1103               	clrz
  5540     0438  1803               	skipnc
  5541     0439  3E01               	addlw	1
  5542     043A  1903               	skipnz
  5543     043B  2C3D               	goto	u379_21
  5544     043C  07B5               	addwf	i1___flmul@prod+1,f
  5545     043D                     u379_21:
  5546     043D  082A               	movf	??i1___flmul+2,w
  5547     043E  1103               	clrz
  5548     043F  1803               	skipnc
  5549     0440  3E01               	addlw	1
  5550     0441  1903               	skipnz
  5551     0442  2C44               	goto	u379_22
  5552     0443  07B6               	addwf	i1___flmul@prod+2,f
  5553     0444                     u379_22:
  5554     0444  082B               	movf	??i1___flmul+3,w
  5555     0445  1103               	clrz
  5556     0446  1803               	skipnc
  5557     0447  3E01               	addlw	1
  5558     0448  1903               	skipnz
  5559     0449  2C4B               	goto	u379_23
  5560     044A  07B7               	addwf	i1___flmul@prod+3,f
  5561     044B                     u379_23:
  5562     044B  0822               	movf	i1___flmul@b+2,w
  5563     044C  00F0               	movwf	i1__Umul8_16@multiplicand
  5564     044D  0824               	movf	i1___flmul@a,w
  5565     044E  160A  118A  27B0  120A  118A  	fcall	i1__Umul8_16
  5566     0453  0871               	movf	?i1__Umul8_16+1,w
  5567     0454  1283               	bcf	3,5	;RP0=0, select bank0
  5568     0455  1303               	bcf	3,6	;RP1=0, select bank0
  5569     0456  00B9               	movwf	i1___flmul@temp+1
  5570     0457  0870               	movf	?i1__Umul8_16,w
  5571     0458  00B8               	movwf	i1___flmul@temp
  5572     0459                     i1l2633:
  5573     0459  0838               	movf	i1___flmul@temp,w
  5574     045A  00A8               	movwf	??i1___flmul
  5575     045B  01A9               	clrf	??i1___flmul+1
  5576     045C  01AA               	clrf	??i1___flmul+2
  5577     045D  01AB               	clrf	??i1___flmul+3
  5578     045E  0828               	movf	??i1___flmul,w
  5579     045F  07AE               	addwf	i1___flmul@grs,f
  5580     0460  0829               	movf	??i1___flmul+1,w
  5581     0461  1103               	clrz
  5582     0462  1803               	skipnc
  5583     0463  3E01               	addlw	1
  5584     0464  1903               	skipnz
  5585     0465  2C67               	goto	u380_21
  5586     0466  07AF               	addwf	i1___flmul@grs+1,f
  5587     0467                     u380_21:
  5588     0467  082A               	movf	??i1___flmul+2,w
  5589     0468  1103               	clrz
  5590     0469  1803               	skipnc
  5591     046A  3E01               	addlw	1
  5592     046B  1903               	skipnz
  5593     046C  2C6E               	goto	u380_22
  5594     046D  07B0               	addwf	i1___flmul@grs+2,f
  5595     046E                     u380_22:
  5596     046E  082B               	movf	??i1___flmul+3,w
  5597     046F  1103               	clrz
  5598     0470  1803               	skipnc
  5599     0471  3E01               	addlw	1
  5600     0472  1903               	skipnz
  5601     0473  2C75               	goto	u380_23
  5602     0474  07B1               	addwf	i1___flmul@grs+3,f
  5603     0475                     u380_23:
  5604     0475                     i1l2635:
  5605     0475  0839               	movf	i1___flmul@temp+1,w
  5606     0476  00A8               	movwf	??i1___flmul
  5607     0477  01A9               	clrf	??i1___flmul+1
  5608     0478  01AA               	clrf	??i1___flmul+2
  5609     0479  01AB               	clrf	??i1___flmul+3
  5610     047A  0828               	movf	??i1___flmul,w
  5611     047B  07B4               	addwf	i1___flmul@prod,f
  5612     047C  0829               	movf	??i1___flmul+1,w
  5613     047D  1103               	clrz
  5614     047E  1803               	skipnc
  5615     047F  3E01               	addlw	1
  5616     0480  1903               	skipnz
  5617     0481  2C83               	goto	u381_21
  5618     0482  07B5               	addwf	i1___flmul@prod+1,f
  5619     0483                     u381_21:
  5620     0483  082A               	movf	??i1___flmul+2,w
  5621     0484  1103               	clrz
  5622     0485  1803               	skipnc
  5623     0486  3E01               	addlw	1
  5624     0487  1903               	skipnz
  5625     0488  2C8A               	goto	u381_22
  5626     0489  07B6               	addwf	i1___flmul@prod+2,f
  5627     048A                     u381_22:
  5628     048A  082B               	movf	??i1___flmul+3,w
  5629     048B  1103               	clrz
  5630     048C  1803               	skipnc
  5631     048D  3E01               	addlw	1
  5632     048E  1903               	skipnz
  5633     048F  2C91               	goto	u381_23
  5634     0490  07B7               	addwf	i1___flmul@prod+3,f
  5635     0491                     u381_23:
  5636     0491                     i1l2637:
  5637     0491  3008               	movlw	8
  5638     0492  00A8               	movwf	??i1___flmul
  5639     0493                     u382_25:
  5640     0493  1003               	clrc
  5641     0494  0DAE               	rlf	i1___flmul@grs,f
  5642     0495  0DAF               	rlf	i1___flmul@grs+1,f
  5643     0496  0DB0               	rlf	i1___flmul@grs+2,f
  5644     0497  0DB1               	rlf	i1___flmul@grs+3,f
  5645     0498  0BA8               	decfsz	??i1___flmul,f
  5646     0499  2C93               	goto	u382_25
  5647     049A                     i1l2639:
  5648     049A  0821               	movf	i1___flmul@b+1,w
  5649     049B  00F0               	movwf	i1__Umul8_16@multiplicand
  5650     049C  0824               	movf	i1___flmul@a,w
  5651     049D  160A  118A  27B0  120A  118A  	fcall	i1__Umul8_16
  5652     04A2  0871               	movf	?i1__Umul8_16+1,w
  5653     04A3  1283               	bcf	3,5	;RP0=0, select bank0
  5654     04A4  1303               	bcf	3,6	;RP1=0, select bank0
  5655     04A5  00B9               	movwf	i1___flmul@temp+1
  5656     04A6  0870               	movf	?i1__Umul8_16,w
  5657     04A7  00B8               	movwf	i1___flmul@temp
  5658     04A8                     i1l2641:
  5659     04A8  0838               	movf	i1___flmul@temp,w
  5660     04A9  00A8               	movwf	??i1___flmul
  5661     04AA  0839               	movf	i1___flmul@temp+1,w
  5662     04AB  00A9               	movwf	??i1___flmul+1
  5663     04AC  01AA               	clrf	??i1___flmul+2
  5664     04AD  01AB               	clrf	??i1___flmul+3
  5665     04AE  0828               	movf	??i1___flmul,w
  5666     04AF  07AE               	addwf	i1___flmul@grs,f
  5667     04B0  0829               	movf	??i1___flmul+1,w
  5668     04B1  1103               	clrz
  5669     04B2  1803               	skipnc
  5670     04B3  3E01               	addlw	1
  5671     04B4  1903               	skipnz
  5672     04B5  2CB7               	goto	u383_21
  5673     04B6  07AF               	addwf	i1___flmul@grs+1,f
  5674     04B7                     u383_21:
  5675     04B7  082A               	movf	??i1___flmul+2,w
  5676     04B8  1103               	clrz
  5677     04B9  1803               	skipnc
  5678     04BA  3E01               	addlw	1
  5679     04BB  1903               	skipnz
  5680     04BC  2CBE               	goto	u383_22
  5681     04BD  07B0               	addwf	i1___flmul@grs+2,f
  5682     04BE                     u383_22:
  5683     04BE  082B               	movf	??i1___flmul+3,w
  5684     04BF  1103               	clrz
  5685     04C0  1803               	skipnc
  5686     04C1  3E01               	addlw	1
  5687     04C2  1903               	skipnz
  5688     04C3  2CC5               	goto	u383_23
  5689     04C4  07B1               	addwf	i1___flmul@grs+3,f
  5690     04C5                     u383_23:
  5691     04C5                     i1l2643:
  5692     04C5  0820               	movf	i1___flmul@b,w
  5693     04C6  00F0               	movwf	i1__Umul8_16@multiplicand
  5694     04C7  0825               	movf	i1___flmul@a+1,w
  5695     04C8  160A  118A  27B0  120A  118A  	fcall	i1__Umul8_16
  5696     04CD  0871               	movf	?i1__Umul8_16+1,w
  5697     04CE  1283               	bcf	3,5	;RP0=0, select bank0
  5698     04CF  1303               	bcf	3,6	;RP1=0, select bank0
  5699     04D0  00B9               	movwf	i1___flmul@temp+1
  5700     04D1  0870               	movf	?i1__Umul8_16,w
  5701     04D2  00B8               	movwf	i1___flmul@temp
  5702     04D3                     i1l2645:
  5703     04D3  0838               	movf	i1___flmul@temp,w
  5704     04D4  00A8               	movwf	??i1___flmul
  5705     04D5  0839               	movf	i1___flmul@temp+1,w
  5706     04D6  00A9               	movwf	??i1___flmul+1
  5707     04D7  01AA               	clrf	??i1___flmul+2
  5708     04D8  01AB               	clrf	??i1___flmul+3
  5709     04D9  0828               	movf	??i1___flmul,w
  5710     04DA  07AE               	addwf	i1___flmul@grs,f
  5711     04DB  0829               	movf	??i1___flmul+1,w
  5712     04DC  1103               	clrz
  5713     04DD  1803               	skipnc
  5714     04DE  3E01               	addlw	1
  5715     04DF  1903               	skipnz
  5716     04E0  2CE2               	goto	u384_21
  5717     04E1  07AF               	addwf	i1___flmul@grs+1,f
  5718     04E2                     u384_21:
  5719     04E2  082A               	movf	??i1___flmul+2,w
  5720     04E3  1103               	clrz
  5721     04E4  1803               	skipnc
  5722     04E5  3E01               	addlw	1
  5723     04E6  1903               	skipnz
  5724     04E7  2CE9               	goto	u384_22
  5725     04E8  07B0               	addwf	i1___flmul@grs+2,f
  5726     04E9                     u384_22:
  5727     04E9  082B               	movf	??i1___flmul+3,w
  5728     04EA  1103               	clrz
  5729     04EB  1803               	skipnc
  5730     04EC  3E01               	addlw	1
  5731     04ED  1903               	skipnz
  5732     04EE  2CF0               	goto	u384_23
  5733     04EF  07B1               	addwf	i1___flmul@grs+3,f
  5734     04F0                     u384_23:
  5735     04F0                     i1l2647:
  5736     04F0  3008               	movlw	8
  5737     04F1  00A8               	movwf	??i1___flmul
  5738     04F2                     u385_25:
  5739     04F2  1003               	clrc
  5740     04F3  0DAE               	rlf	i1___flmul@grs,f
  5741     04F4  0DAF               	rlf	i1___flmul@grs+1,f
  5742     04F5  0DB0               	rlf	i1___flmul@grs+2,f
  5743     04F6  0DB1               	rlf	i1___flmul@grs+3,f
  5744     04F7  0BA8               	decfsz	??i1___flmul,f
  5745     04F8  2CF2               	goto	u385_25
  5746     04F9  0820               	movf	i1___flmul@b,w
  5747     04FA  00F0               	movwf	i1__Umul8_16@multiplicand
  5748     04FB  0824               	movf	i1___flmul@a,w
  5749     04FC  160A  118A  27B0  120A  118A  	fcall	i1__Umul8_16
  5750     0501  0871               	movf	?i1__Umul8_16+1,w
  5751     0502  1283               	bcf	3,5	;RP0=0, select bank0
  5752     0503  1303               	bcf	3,6	;RP1=0, select bank0
  5753     0504  00B9               	movwf	i1___flmul@temp+1
  5754     0505  0870               	movf	?i1__Umul8_16,w
  5755     0506  00B8               	movwf	i1___flmul@temp
  5756     0507                     i1l2649:
  5757     0507  0838               	movf	i1___flmul@temp,w
  5758     0508  00A8               	movwf	??i1___flmul
  5759     0509  0839               	movf	i1___flmul@temp+1,w
  5760     050A  00A9               	movwf	??i1___flmul+1
  5761     050B  01AA               	clrf	??i1___flmul+2
  5762     050C  01AB               	clrf	??i1___flmul+3
  5763     050D  0828               	movf	??i1___flmul,w
  5764     050E  07AE               	addwf	i1___flmul@grs,f
  5765     050F  0829               	movf	??i1___flmul+1,w
  5766     0510  1103               	clrz
  5767     0511  1803               	skipnc
  5768     0512  3E01               	addlw	1
  5769     0513  1903               	skipnz
  5770     0514  2D16               	goto	u386_21
  5771     0515  07AF               	addwf	i1___flmul@grs+1,f
  5772     0516                     u386_21:
  5773     0516  082A               	movf	??i1___flmul+2,w
  5774     0517  1103               	clrz
  5775     0518  1803               	skipnc
  5776     0519  3E01               	addlw	1
  5777     051A  1903               	skipnz
  5778     051B  2D1D               	goto	u386_22
  5779     051C  07B0               	addwf	i1___flmul@grs+2,f
  5780     051D                     u386_22:
  5781     051D  082B               	movf	??i1___flmul+3,w
  5782     051E  1103               	clrz
  5783     051F  1803               	skipnc
  5784     0520  3E01               	addlw	1
  5785     0521  1903               	skipnz
  5786     0522  2D24               	goto	u386_23
  5787     0523  07B1               	addwf	i1___flmul@grs+3,f
  5788     0524                     u386_23:
  5789     0524                     i1l2651:
  5790     0524  0821               	movf	i1___flmul@b+1,w
  5791     0525  00F0               	movwf	i1__Umul8_16@multiplicand
  5792     0526  0826               	movf	i1___flmul@a+2,w
  5793     0527  160A  118A  27B0  120A  118A  	fcall	i1__Umul8_16
  5794     052C  0871               	movf	?i1__Umul8_16+1,w
  5795     052D  1283               	bcf	3,5	;RP0=0, select bank0
  5796     052E  1303               	bcf	3,6	;RP1=0, select bank0
  5797     052F  00B9               	movwf	i1___flmul@temp+1
  5798     0530  0870               	movf	?i1__Umul8_16,w
  5799     0531  00B8               	movwf	i1___flmul@temp
  5800     0532  0838               	movf	i1___flmul@temp,w
  5801     0533  00A8               	movwf	??i1___flmul
  5802     0534  0839               	movf	i1___flmul@temp+1,w
  5803     0535  00A9               	movwf	??i1___flmul+1
  5804     0536  01AA               	clrf	??i1___flmul+2
  5805     0537  01AB               	clrf	??i1___flmul+3
  5806     0538  0828               	movf	??i1___flmul,w
  5807     0539  07B4               	addwf	i1___flmul@prod,f
  5808     053A  0829               	movf	??i1___flmul+1,w
  5809     053B  1103               	clrz
  5810     053C  1803               	skipnc
  5811     053D  3E01               	addlw	1
  5812     053E  1903               	skipnz
  5813     053F  2D41               	goto	u387_21
  5814     0540  07B5               	addwf	i1___flmul@prod+1,f
  5815     0541                     u387_21:
  5816     0541  082A               	movf	??i1___flmul+2,w
  5817     0542  1103               	clrz
  5818     0543  1803               	skipnc
  5819     0544  3E01               	addlw	1
  5820     0545  1903               	skipnz
  5821     0546  2D48               	goto	u387_22
  5822     0547  07B6               	addwf	i1___flmul@prod+2,f
  5823     0548                     u387_22:
  5824     0548  082B               	movf	??i1___flmul+3,w
  5825     0549  1103               	clrz
  5826     054A  1803               	skipnc
  5827     054B  3E01               	addlw	1
  5828     054C  1903               	skipnz
  5829     054D  2D4F               	goto	u387_23
  5830     054E  07B7               	addwf	i1___flmul@prod+3,f
  5831     054F                     u387_23:
  5832     054F                     i1l2653:
  5833     054F  0822               	movf	i1___flmul@b+2,w
  5834     0550  00F0               	movwf	i1__Umul8_16@multiplicand
  5835     0551  0825               	movf	i1___flmul@a+1,w
  5836     0552  160A  118A  27B0  120A  118A  	fcall	i1__Umul8_16
  5837     0557  0871               	movf	?i1__Umul8_16+1,w
  5838     0558  1283               	bcf	3,5	;RP0=0, select bank0
  5839     0559  1303               	bcf	3,6	;RP1=0, select bank0
  5840     055A  00B9               	movwf	i1___flmul@temp+1
  5841     055B  0870               	movf	?i1__Umul8_16,w
  5842     055C  00B8               	movwf	i1___flmul@temp
  5843     055D                     i1l2655:
  5844     055D  0838               	movf	i1___flmul@temp,w
  5845     055E  00A8               	movwf	??i1___flmul
  5846     055F  0839               	movf	i1___flmul@temp+1,w
  5847     0560  00A9               	movwf	??i1___flmul+1
  5848     0561  01AA               	clrf	??i1___flmul+2
  5849     0562  01AB               	clrf	??i1___flmul+3
  5850     0563  0828               	movf	??i1___flmul,w
  5851     0564  07B4               	addwf	i1___flmul@prod,f
  5852     0565  0829               	movf	??i1___flmul+1,w
  5853     0566  1103               	clrz
  5854     0567  1803               	skipnc
  5855     0568  3E01               	addlw	1
  5856     0569  1903               	skipnz
  5857     056A  2D6C               	goto	u388_21
  5858     056B  07B5               	addwf	i1___flmul@prod+1,f
  5859     056C                     u388_21:
  5860     056C  082A               	movf	??i1___flmul+2,w
  5861     056D  1103               	clrz
  5862     056E  1803               	skipnc
  5863     056F  3E01               	addlw	1
  5864     0570  1903               	skipnz
  5865     0571  2D73               	goto	u388_22
  5866     0572  07B6               	addwf	i1___flmul@prod+2,f
  5867     0573                     u388_22:
  5868     0573  082B               	movf	??i1___flmul+3,w
  5869     0574  1103               	clrz
  5870     0575  1803               	skipnc
  5871     0576  3E01               	addlw	1
  5872     0577  1903               	skipnz
  5873     0578  2D7A               	goto	u388_23
  5874     0579  07B7               	addwf	i1___flmul@prod+3,f
  5875     057A                     u388_23:
  5876     057A  0822               	movf	i1___flmul@b+2,w
  5877     057B  00F0               	movwf	i1__Umul8_16@multiplicand
  5878     057C  0826               	movf	i1___flmul@a+2,w
  5879     057D  160A  118A  27B0  120A  118A  	fcall	i1__Umul8_16
  5880     0582  0871               	movf	?i1__Umul8_16+1,w
  5881     0583  1283               	bcf	3,5	;RP0=0, select bank0
  5882     0584  1303               	bcf	3,6	;RP1=0, select bank0
  5883     0585  00B9               	movwf	i1___flmul@temp+1
  5884     0586  0870               	movf	?i1__Umul8_16,w
  5885     0587  00B8               	movwf	i1___flmul@temp
  5886     0588                     i1l2657:
  5887     0588  0838               	movf	i1___flmul@temp,w
  5888     0589  00A8               	movwf	??i1___flmul
  5889     058A  0839               	movf	i1___flmul@temp+1,w
  5890     058B  00A9               	movwf	??i1___flmul+1
  5891     058C  01AA               	clrf	??i1___flmul+2
  5892     058D  01AB               	clrf	??i1___flmul+3
  5893     058E  3008               	movlw	8
  5894     058F                     u389_25:
  5895     058F  1003               	clrc
  5896     0590  0DA8               	rlf	??i1___flmul,f
  5897     0591  0DA9               	rlf	??i1___flmul+1,f
  5898     0592  0DAA               	rlf	??i1___flmul+2,f
  5899     0593  0DAB               	rlf	??i1___flmul+3,f
  5900     0594                     u389_20:
  5901     0594  3EFF               	addlw	-1
  5902     0595  1D03               	skipz
  5903     0596  2D8F               	goto	u389_25
  5904     0597  0828               	movf	??i1___flmul,w
  5905     0598  07B4               	addwf	i1___flmul@prod,f
  5906     0599  0829               	movf	??i1___flmul+1,w
  5907     059A  1103               	clrz
  5908     059B  1803               	skipnc
  5909     059C  3E01               	addlw	1
  5910     059D  1903               	skipnz
  5911     059E  2DA0               	goto	u390_21
  5912     059F  07B5               	addwf	i1___flmul@prod+1,f
  5913     05A0                     u390_21:
  5914     05A0  082A               	movf	??i1___flmul+2,w
  5915     05A1  1103               	clrz
  5916     05A2  1803               	skipnc
  5917     05A3  3E01               	addlw	1
  5918     05A4  1903               	skipnz
  5919     05A5  2DA7               	goto	u390_22
  5920     05A6  07B6               	addwf	i1___flmul@prod+2,f
  5921     05A7                     u390_22:
  5922     05A7  082B               	movf	??i1___flmul+3,w
  5923     05A8  1103               	clrz
  5924     05A9  1803               	skipnc
  5925     05AA  3E01               	addlw	1
  5926     05AB  1903               	skipnz
  5927     05AC  2DAE               	goto	u390_23
  5928     05AD  07B7               	addwf	i1___flmul@prod+3,f
  5929     05AE                     u390_23:
  5930     05AE                     i1l2659:
  5931     05AE  082E               	movf	i1___flmul@grs,w
  5932     05AF  00A8               	movwf	??i1___flmul
  5933     05B0  082F               	movf	i1___flmul@grs+1,w
  5934     05B1  00A9               	movwf	??i1___flmul+1
  5935     05B2  0830               	movf	i1___flmul@grs+2,w
  5936     05B3  00AA               	movwf	??i1___flmul+2
  5937     05B4  0831               	movf	i1___flmul@grs+3,w
  5938     05B5  00AB               	movwf	??i1___flmul+3
  5939     05B6  3018               	movlw	24
  5940     05B7                     u391_25:
  5941     05B7  1003               	clrc
  5942     05B8  0CAB               	rrf	??i1___flmul+3,f
  5943     05B9  0CAA               	rrf	??i1___flmul+2,f
  5944     05BA  0CA9               	rrf	??i1___flmul+1,f
  5945     05BB  0CA8               	rrf	??i1___flmul,f
  5946     05BC                     u391_20:
  5947     05BC  3EFF               	addlw	-1
  5948     05BD  1D03               	skipz
  5949     05BE  2DB7               	goto	u391_25
  5950     05BF  0828               	movf	??i1___flmul,w
  5951     05C0  07B4               	addwf	i1___flmul@prod,f
  5952     05C1  0829               	movf	??i1___flmul+1,w
  5953     05C2  1103               	clrz
  5954     05C3  1803               	skipnc
  5955     05C4  3E01               	addlw	1
  5956     05C5  1903               	skipnz
  5957     05C6  2DC8               	goto	u392_21
  5958     05C7  07B5               	addwf	i1___flmul@prod+1,f
  5959     05C8                     u392_21:
  5960     05C8  082A               	movf	??i1___flmul+2,w
  5961     05C9  1103               	clrz
  5962     05CA  1803               	skipnc
  5963     05CB  3E01               	addlw	1
  5964     05CC  1903               	skipnz
  5965     05CD  2DCF               	goto	u392_22
  5966     05CE  07B6               	addwf	i1___flmul@prod+2,f
  5967     05CF                     u392_22:
  5968     05CF  082B               	movf	??i1___flmul+3,w
  5969     05D0  1103               	clrz
  5970     05D1  1803               	skipnc
  5971     05D2  3E01               	addlw	1
  5972     05D3  1903               	skipnz
  5973     05D4  2DD6               	goto	u392_23
  5974     05D5  07B7               	addwf	i1___flmul@prod+3,f
  5975     05D6                     u392_23:
  5976     05D6                     i1l2661:
  5977     05D6  3008               	movlw	8
  5978     05D7  00A8               	movwf	??i1___flmul
  5979     05D8                     u393_25:
  5980     05D8  1003               	clrc
  5981     05D9  0DAE               	rlf	i1___flmul@grs,f
  5982     05DA  0DAF               	rlf	i1___flmul@grs+1,f
  5983     05DB  0DB0               	rlf	i1___flmul@grs+2,f
  5984     05DC  0DB1               	rlf	i1___flmul@grs+3,f
  5985     05DD  0BA8               	decfsz	??i1___flmul,f
  5986     05DE  2DD8               	goto	u393_25
  5987     05DF                     i1l2663:
  5988     05DF  0833               	movf	i1___flmul@bexp,w
  5989     05E0  0732               	addwf	i1___flmul@aexp,w
  5990     05E1  00A8               	movwf	??i1___flmul
  5991     05E2  01A9               	clrf	??i1___flmul+1
  5992     05E3  0DA9               	rlf	??i1___flmul+1,f
  5993     05E4  0828               	movf	??i1___flmul,w
  5994     05E5  3E82               	addlw	130
  5995     05E6  00B8               	movwf	i1___flmul@temp
  5996     05E7  0829               	movf	??i1___flmul+1,w
  5997     05E8  1803               	skipnc
  5998     05E9  3E01               	addlw	1
  5999     05EA  3EFF               	addlw	255
  6000     05EB  00B9               	movwf	i1___flmul@temp+1
  6001     05EC  2E0A               	goto	i1l2675
  6002     05ED                     i1l2665:
  6003     05ED  3001               	movlw	1
  6004     05EE  00A8               	movwf	??i1___flmul
  6005     05EF                     u394_25:
  6006     05EF  1003               	clrc
  6007     05F0  0DB4               	rlf	i1___flmul@prod,f
  6008     05F1  0DB5               	rlf	i1___flmul@prod+1,f
  6009     05F2  0DB6               	rlf	i1___flmul@prod+2,f
  6010     05F3  0DB7               	rlf	i1___flmul@prod+3,f
  6011     05F4  0BA8               	decfsz	??i1___flmul,f
  6012     05F5  2DEF               	goto	u394_25
  6013     05F6                     i1l2667:
  6014     05F6  1FB1               	btfss	i1___flmul@grs+3,7
  6015     05F7  2DF9               	goto	u395_21
  6016     05F8  2DFA               	goto	u395_20
  6017     05F9                     u395_21:
  6018     05F9  2DFB               	goto	i1l2671
  6019     05FA                     u395_20:
  6020     05FA                     i1l2669:
  6021     05FA  1434               	bsf	i1___flmul@prod,0
  6022     05FB                     i1l2671:
  6023     05FB  3001               	movlw	1
  6024     05FC  00A8               	movwf	??i1___flmul
  6025     05FD                     u396_25:
  6026     05FD  1003               	clrc
  6027     05FE  0DAE               	rlf	i1___flmul@grs,f
  6028     05FF  0DAF               	rlf	i1___flmul@grs+1,f
  6029     0600  0DB0               	rlf	i1___flmul@grs+2,f
  6030     0601  0DB1               	rlf	i1___flmul@grs+3,f
  6031     0602  0BA8               	decfsz	??i1___flmul,f
  6032     0603  2DFD               	goto	u396_25
  6033     0604                     i1l2673:
  6034     0604  30FF               	movlw	255
  6035     0605  07B8               	addwf	i1___flmul@temp,f
  6036     0606  1803               	skipnc
  6037     0607  0AB9               	incf	i1___flmul@temp+1,f
  6038     0608  30FF               	movlw	255
  6039     0609  07B9               	addwf	i1___flmul@temp+1,f
  6040     060A                     i1l2675:
  6041     060A  1FB6               	btfss	i1___flmul@prod+2,7
  6042     060B  2E0D               	goto	u397_21
  6043     060C  2E0E               	goto	u397_20
  6044     060D                     u397_21:
  6045     060D  2DED               	goto	i1l2665
  6046     060E                     u397_20:
  6047     060E                     i1l2677:
  6048     060E  01B2               	clrf	i1___flmul@aexp
  6049     060F                     i1l2679:
  6050     060F  1FB1               	btfss	i1___flmul@grs+3,7
  6051     0610  2E12               	goto	u398_21
  6052     0611  2E13               	goto	u398_20
  6053     0612                     u398_21:
  6054     0612  2E2F               	goto	i1l2687
  6055     0613                     u398_20:
  6056     0613                     i1l2681:
  6057     0613  30FF               	movlw	255
  6058     0614  052E               	andwf	i1___flmul@grs,w
  6059     0615  00A8               	movwf	??i1___flmul
  6060     0616  30FF               	movlw	255
  6061     0617  052F               	andwf	i1___flmul@grs+1,w
  6062     0618  00A9               	movwf	??i1___flmul+1
  6063     0619  30FF               	movlw	255
  6064     061A  0530               	andwf	i1___flmul@grs+2,w
  6065     061B  00AA               	movwf	??i1___flmul+2
  6066     061C  307F               	movlw	127
  6067     061D  0531               	andwf	i1___flmul@grs+3,w
  6068     061E  00AB               	movwf	??i1___flmul+3
  6069     061F  082B               	movf	??i1___flmul+3,w
  6070     0620  042A               	iorwf	??i1___flmul+2,w
  6071     0621  0429               	iorwf	??i1___flmul+1,w
  6072     0622  0428               	iorwf	??i1___flmul,w
  6073     0623  1903               	skipnz
  6074     0624  2E26               	goto	u399_21
  6075     0625  2E27               	goto	u399_20
  6076     0626                     u399_21:
  6077     0626  2E2A               	goto	i1l758
  6078     0627                     u399_20:
  6079     0627                     i1l2683:
  6080     0627  01B2               	clrf	i1___flmul@aexp
  6081     0628  0AB2               	incf	i1___flmul@aexp,f
  6082     0629  2E2F               	goto	i1l2687
  6083     062A                     i1l758:
  6084     062A  1C34               	btfss	i1___flmul@prod,0
  6085     062B  2E2D               	goto	u400_21
  6086     062C  2E2E               	goto	u400_20
  6087     062D                     u400_21:
  6088     062D  2E2F               	goto	i1l2687
  6089     062E                     u400_20:
  6090     062E  2E27               	goto	i1l2683
  6091     062F                     i1l2687:
  6092     062F  0832               	movf	i1___flmul@aexp,w
  6093     0630  1903               	btfsc	3,2
  6094     0631  2E33               	goto	u401_21
  6095     0632  2E34               	goto	u401_20
  6096     0633                     u401_21:
  6097     0633  2E65               	goto	i1l2697
  6098     0634                     u401_20:
  6099     0634                     i1l2689:
  6100     0634  3001               	movlw	1
  6101     0635  07B4               	addwf	i1___flmul@prod,f
  6102     0636  3000               	movlw	0
  6103     0637  1803               	skipnc
  6104     0638  3001               	movlw	1
  6105     0639  07B5               	addwf	i1___flmul@prod+1,f
  6106     063A  3000               	movlw	0
  6107     063B  1803               	skipnc
  6108     063C  3001               	movlw	1
  6109     063D  07B6               	addwf	i1___flmul@prod+2,f
  6110     063E  3000               	movlw	0
  6111     063F  1803               	skipnc
  6112     0640  3001               	movlw	1
  6113     0641  07B7               	addwf	i1___flmul@prod+3,f
  6114     0642                     i1l2691:
  6115     0642  1C37               	btfss	i1___flmul@prod+3,0
  6116     0643  2E45               	goto	u402_21
  6117     0644  2E46               	goto	u402_20
  6118     0645                     u402_21:
  6119     0645  2E65               	goto	i1l2697
  6120     0646                     u402_20:
  6121     0646                     i1l2693:
  6122     0646  0834               	movf	i1___flmul@prod,w
  6123     0647  00A8               	movwf	??i1___flmul
  6124     0648  0835               	movf	i1___flmul@prod+1,w
  6125     0649  00A9               	movwf	??i1___flmul+1
  6126     064A  0836               	movf	i1___flmul@prod+2,w
  6127     064B  00AA               	movwf	??i1___flmul+2
  6128     064C  0837               	movf	i1___flmul@prod+3,w
  6129     064D  00AB               	movwf	??i1___flmul+3
  6130     064E  3001               	movlw	1
  6131     064F  00AC               	movwf	??i1___flmul+4
  6132     0650                     u403_25:
  6133     0650  0D2B               	rlf	??i1___flmul+3,w
  6134     0651  0CAB               	rrf	??i1___flmul+3,f
  6135     0652  0CAA               	rrf	??i1___flmul+2,f
  6136     0653  0CA9               	rrf	??i1___flmul+1,f
  6137     0654  0CA8               	rrf	??i1___flmul,f
  6138     0655                     u403_20:
  6139     0655  0BAC               	decfsz	??i1___flmul+4,f
  6140     0656  2E50               	goto	u403_25
  6141     0657  082B               	movf	??i1___flmul+3,w
  6142     0658  00B7               	movwf	i1___flmul@prod+3
  6143     0659  082A               	movf	??i1___flmul+2,w
  6144     065A  00B6               	movwf	i1___flmul@prod+2
  6145     065B  0829               	movf	??i1___flmul+1,w
  6146     065C  00B5               	movwf	i1___flmul@prod+1
  6147     065D  0828               	movf	??i1___flmul,w
  6148     065E  00B4               	movwf	i1___flmul@prod
  6149     065F                     i1l2695:
  6150     065F  3001               	movlw	1
  6151     0660  07B8               	addwf	i1___flmul@temp,f
  6152     0661  1803               	skipnc
  6153     0662  0AB9               	incf	i1___flmul@temp+1,f
  6154     0663  3000               	movlw	0
  6155     0664  07B9               	addwf	i1___flmul@temp+1,f
  6156     0665                     i1l2697:
  6157     0665  0839               	movf	i1___flmul@temp+1,w
  6158     0666  3A80               	xorlw	128
  6159     0667  00FF               	movwf	btemp+1
  6160     0668  3080               	movlw	128
  6161     0669  027F               	subwf	btemp+1,w
  6162     066A  1D03               	skipz
  6163     066B  2E6E               	goto	u404_25
  6164     066C  30FF               	movlw	255
  6165     066D  0238               	subwf	i1___flmul@temp,w
  6166     066E                     u404_25:
  6167     066E  1C03               	skipc
  6168     066F  2E71               	goto	u404_21
  6169     0670  2E72               	goto	u404_20
  6170     0671                     u404_21:
  6171     0671  2E7D               	goto	i1l2701
  6172     0672                     u404_20:
  6173     0672                     i1l2699:
  6174     0672  307F               	movlw	127
  6175     0673  1283               	bcf	3,5	;RP0=0, select bank0
  6176     0674  1303               	bcf	3,6	;RP1=0, select bank0
  6177     0675  00B7               	movwf	i1___flmul@prod+3
  6178     0676  3080               	movlw	128
  6179     0677  00B6               	movwf	i1___flmul@prod+2
  6180     0678  3000               	movlw	0
  6181     0679  00B5               	movwf	i1___flmul@prod+1
  6182     067A  3000               	movlw	0
  6183     067B  00B4               	movwf	i1___flmul@prod
  6184     067C  2EAE               	goto	i1l764
  6185     067D                     i1l2701:
  6186     067D  1283               	bcf	3,5	;RP0=0, select bank0
  6187     067E  1303               	bcf	3,6	;RP1=0, select bank0
  6188     067F  0839               	movf	i1___flmul@temp+1,w
  6189     0680  3A80               	xorlw	128
  6190     0681  00FF               	movwf	btemp+1
  6191     0682  3080               	movlw	128
  6192     0683  027F               	subwf	btemp+1,w
  6193     0684  1D03               	skipz
  6194     0685  2E88               	goto	u405_25
  6195     0686  3001               	movlw	1
  6196     0687  0238               	subwf	i1___flmul@temp,w
  6197     0688                     u405_25:
  6198     0688  1803               	skipnc
  6199     0689  2E8B               	goto	u405_21
  6200     068A  2E8C               	goto	u405_20
  6201     068B                     u405_21:
  6202     068B  2E98               	goto	i1l2707
  6203     068C                     u405_20:
  6204     068C                     i1l2703:
  6205     068C  3000               	movlw	0
  6206     068D  1283               	bcf	3,5	;RP0=0, select bank0
  6207     068E  1303               	bcf	3,6	;RP1=0, select bank0
  6208     068F  00B7               	movwf	i1___flmul@prod+3
  6209     0690  3000               	movlw	0
  6210     0691  00B6               	movwf	i1___flmul@prod+2
  6211     0692  3000               	movlw	0
  6212     0693  00B5               	movwf	i1___flmul@prod+1
  6213     0694  3000               	movlw	0
  6214     0695  00B4               	movwf	i1___flmul@prod
  6215     0696                     i1l2705:
  6216     0696  01AD               	clrf	i1___flmul@sign
  6217     0697  2EAE               	goto	i1l764
  6218     0698                     i1l2707:
  6219     0698  1283               	bcf	3,5	;RP0=0, select bank0
  6220     0699  1303               	bcf	3,6	;RP1=0, select bank0
  6221     069A  0838               	movf	i1___flmul@temp,w
  6222     069B  00B3               	movwf	i1___flmul@bexp
  6223     069C  30FF               	movlw	255
  6224     069D  05B4               	andwf	i1___flmul@prod,f
  6225     069E  30FF               	movlw	255
  6226     069F  05B5               	andwf	i1___flmul@prod+1,f
  6227     06A0  307F               	movlw	127
  6228     06A1  05B6               	andwf	i1___flmul@prod+2,f
  6229     06A2  3000               	movlw	0
  6230     06A3  05B7               	andwf	i1___flmul@prod+3,f
  6231     06A4                     i1l2709:
  6232     06A4  1C33               	btfss	i1___flmul@bexp,0
  6233     06A5  2EA7               	goto	u406_21
  6234     06A6  2EA8               	goto	u406_20
  6235     06A7                     u406_21:
  6236     06A7  2EA9               	goto	i1l2713
  6237     06A8                     u406_20:
  6238     06A8                     i1l2711:
  6239     06A8  17B6               	bsf	i1___flmul@prod+2,7
  6240     06A9                     i1l2713:
  6241     06A9  0833               	movf	i1___flmul@bexp,w
  6242     06AA  00A8               	movwf	??i1___flmul
  6243     06AB  1003               	clrc
  6244     06AC  0C28               	rrf	??i1___flmul,w
  6245     06AD  00B7               	movwf	i1___flmul@prod+3
  6246     06AE                     i1l764:
  6247     06AE  082D               	movf	i1___flmul@sign,w
  6248     06AF  00A8               	movwf	??i1___flmul
  6249     06B0  0828               	movf	??i1___flmul,w
  6250     06B1  04B7               	iorwf	i1___flmul@prod+3,f
  6251     06B2                     i1l2715:
  6252     06B2  0837               	movf	i1___flmul@prod+3,w
  6253     06B3  00A3               	movwf	?i1___flmul+3
  6254     06B4  0836               	movf	i1___flmul@prod+2,w
  6255     06B5  00A2               	movwf	?i1___flmul+2
  6256     06B6  0835               	movf	i1___flmul@prod+1,w
  6257     06B7  00A1               	movwf	?i1___flmul+1
  6258     06B8  0834               	movf	i1___flmul@prod,w
  6259     06B9  00A0               	movwf	?i1___flmul
  6260     06BA                     i1l752:
  6261     06BA  0008               	return
  6262     06BB                     __end_ofi1___flmul:
  6263                           
  6264                           	psect	text17
  6265     17B0                     __ptext17:	
  6266 ;; *************** function i1__Umul8_16 *****************
  6267 ;; Defined at:
  6268 ;;		line 4 in file "C:\Program Files\Microchip\xc8\v2.40\pic\sources\c90\common\Umul8_16.c"
  6269 ;; Parameters:    Size  Location     Type
  6270 ;;  multiplier      1    wreg     unsigned char 
  6271 ;;  multiplicand    1    0[COMMON] unsigned char 
  6272 ;; Auto vars:     Size  Location     Type
  6273 ;;  multiplier      1    8[COMMON] unsigned char 
  6274 ;;  word_mpld       2    6[COMMON] unsigned int 
  6275 ;;  product         2    4[COMMON] unsigned int 
  6276 ;; Return value:  Size  Location     Type
  6277 ;;                  2    0[COMMON] unsigned int 
  6278 ;; Registers used:
  6279 ;;		wreg, status,2, status,0
  6280 ;; Tracked objects:
  6281 ;;		On entry : 0/0
  6282 ;;		On exit  : 0/0
  6283 ;;		Unchanged: 0/0
  6284 ;; Data sizes:     COMMON   BANK0   BANK1   BANK3   BANK2
  6285 ;;      Params:         2       0       0       0       0
  6286 ;;      Locals:         5       0       0       0       0
  6287 ;;      Temps:          2       0       0       0       0
  6288 ;;      Totals:         9       0       0       0       0
  6289 ;;Total ram usage:        9 bytes
  6290 ;; Hardware stack levels used: 1
  6291 ;; This function calls:
  6292 ;;		Nothing
  6293 ;; This function is called by:
  6294 ;;		i1___flmul
  6295 ;; This function uses a non-reentrant model
  6296 ;;
  6297                           
  6298     17B0                     i1__Umul8_16:	
  6299                           ;psect for function i1__Umul8_16
  6300                           
  6301                           
  6302                           ;incstack = 0
  6303                           ; Regs used in i1__Umul8_16: [wreg+status,2+status,0]
  6304                           ;i1__Umul8_16@multiplier stored from wreg
  6305     17B0  00F8               	movwf	i1__Umul8_16@multiplier
  6306     17B1                     i1l2001:
  6307     17B1  01F4               	clrf	i1__Umul8_16@product
  6308     17B2  01F5               	clrf	i1__Umul8_16@product+1
  6309     17B3                     i1l2003:
  6310     17B3  0870               	movf	i1__Umul8_16@multiplicand,w
  6311     17B4  00F2               	movwf	??i1__Umul8_16
  6312     17B5  01F3               	clrf	??i1__Umul8_16+1
  6313     17B6  0872               	movf	??i1__Umul8_16,w
  6314     17B7  00F6               	movwf	i1__Umul8_16@word_mpld
  6315     17B8  0873               	movf	??i1__Umul8_16+1,w
  6316     17B9  00F7               	movwf	i1__Umul8_16@word_mpld+1
  6317     17BA                     i1l2005:
  6318     17BA  1C78               	btfss	i1__Umul8_16@multiplier,0
  6319     17BB  2FBD               	goto	u238_21
  6320     17BC  2FBE               	goto	u238_20
  6321     17BD                     u238_21:
  6322     17BD  2FC4               	goto	i1l771
  6323     17BE                     u238_20:
  6324     17BE                     i1l2007:
  6325     17BE  0876               	movf	i1__Umul8_16@word_mpld,w
  6326     17BF  07F4               	addwf	i1__Umul8_16@product,f
  6327     17C0  1803               	skipnc
  6328     17C1  0AF5               	incf	i1__Umul8_16@product+1,f
  6329     17C2  0877               	movf	i1__Umul8_16@word_mpld+1,w
  6330     17C3  07F5               	addwf	i1__Umul8_16@product+1,f
  6331     17C4                     i1l771:
  6332     17C4  3001               	movlw	1
  6333     17C5                     u239_25:
  6334     17C5  1003               	clrc
  6335     17C6  0DF6               	rlf	i1__Umul8_16@word_mpld,f
  6336     17C7  0DF7               	rlf	i1__Umul8_16@word_mpld+1,f
  6337     17C8  3EFF               	addlw	-1
  6338     17C9  1D03               	skipz
  6339     17CA  2FC5               	goto	u239_25
  6340     17CB  1003               	clrc
  6341     17CC  0CF8               	rrf	i1__Umul8_16@multiplier,f
  6342     17CD                     i1l2009:
  6343     17CD  0878               	movf	i1__Umul8_16@multiplier,w
  6344     17CE  1D03               	btfss	3,2
  6345     17CF  2FD1               	goto	u240_21
  6346     17D0  2FD2               	goto	u240_20
  6347     17D1                     u240_21:
  6348     17D1  2FBA               	goto	i1l2005
  6349     17D2                     u240_20:
  6350     17D2                     i1l2011:
  6351     17D2  0875               	movf	i1__Umul8_16@product+1,w
  6352     17D3  00F1               	movwf	?i1__Umul8_16+1
  6353     17D4  0874               	movf	i1__Umul8_16@product,w
  6354     17D5  00F0               	movwf	?i1__Umul8_16
  6355     17D6                     i1l773:
  6356     17D6  0008               	return
  6357     17D7                     __end_ofi1__Umul8_16:
  6358                           
  6359                           	psect	text18
  6360     0C5A                     __ptext18:	
  6361 ;; *************** function i1___fldiv *****************
  6362 ;; Defined at:
  6363 ;;		line 8 in file "C:\Program Files\Microchip\xc8\v2.40\pic\sources\c90\common\sprcdiv.c"
  6364 ;; Parameters:    Size  Location     Type
  6365 ;;  a               4   26[BANK0 ] unsigned int 
  6366 ;;  b               4   30[BANK0 ] unsigned int 
  6367 ;; Auto vars:     Size  Location     Type
  6368 ;;  grs             4   46[BANK0 ] unsigned long 
  6369 ;;  rem             4   39[BANK0 ] unsigned long 
  6370 ;;  new_exp         2   44[BANK0 ] int 
  6371 ;;  aexp            1   51[BANK0 ] unsigned char 
  6372 ;;  bexp            1   50[BANK0 ] unsigned char 
  6373 ;;  sign            1   43[BANK0 ] unsigned char 
  6374 ;; Return value:  Size  Location     Type
  6375 ;;                  4   26[BANK0 ] unsigned char 
  6376 ;; Registers used:
  6377 ;;		wreg, status,2, status,0, btemp+1
  6378 ;; Tracked objects:
  6379 ;;		On entry : 0/0
  6380 ;;		On exit  : 0/0
  6381 ;;		Unchanged: 0/0
  6382 ;; Data sizes:     COMMON   BANK0   BANK1   BANK3   BANK2
  6383 ;;      Params:         0       8       0       0       0
  6384 ;;      Locals:         0      13       0       0       0
  6385 ;;      Temps:          0       5       0       0       0
  6386 ;;      Totals:         0      26       0       0       0
  6387 ;;Total ram usage:       26 bytes
  6388 ;; Hardware stack levels used: 1
  6389 ;; This function calls:
  6390 ;;		Nothing
  6391 ;; This function is called by:
  6392 ;;		i1_ultrasonic_measure_distance
  6393 ;; This function uses a non-reentrant model
  6394 ;;
  6395                           
  6396     0C5A                     i1___fldiv:	
  6397                           ;psect for function i1___fldiv
  6398                           
  6399     0C5A                     i1l2437:	
  6400                           ;incstack = 0
  6401                           ; Regs used in i1___fldiv: [wreg+status,2+status,0+btemp+1]
  6402                           
  6403     0C5A  1283               	bcf	3,5	;RP0=0, select bank0
  6404     0C5B  1303               	bcf	3,6	;RP1=0, select bank0
  6405     0C5C  0841               	movf	i1___fldiv@b+3,w
  6406     0C5D  3980               	andlw	128
  6407     0C5E  00CB               	movwf	i1___fldiv@sign
  6408     0C5F                     i1l2439:
  6409     0C5F  0841               	movf	i1___fldiv@b+3,w
  6410     0C60  00C2               	movwf	??i1___fldiv
  6411     0C61  0742               	addwf	??i1___fldiv,w
  6412     0C62  00D2               	movwf	i1___fldiv@bexp
  6413     0C63                     i1l2441:
  6414     0C63  1FC0               	btfss	i1___fldiv@b+2,7
  6415     0C64  2C66               	goto	u341_21
  6416     0C65  2C67               	goto	u341_20
  6417     0C66                     u341_21:
  6418     0C66  2C68               	goto	i1l2445
  6419     0C67                     u341_20:
  6420     0C67                     i1l2443:
  6421     0C67  1452               	bsf	i1___fldiv@bexp,0
  6422     0C68                     i1l2445:
  6423     0C68  0852               	movf	i1___fldiv@bexp,w
  6424     0C69  1903               	btfsc	3,2
  6425     0C6A  2C6C               	goto	u342_21
  6426     0C6B  2C6D               	goto	u342_20
  6427     0C6C                     u342_21:
  6428     0C6C  2C7D               	goto	i1l2455
  6429     0C6D                     u342_20:
  6430     0C6D                     i1l2447:
  6431     0C6D  0A52               	incf	i1___fldiv@bexp,w
  6432     0C6E  1D03               	btfss	3,2
  6433     0C6F  2C71               	goto	u343_21
  6434     0C70  2C72               	goto	u343_20
  6435     0C71                     u343_21:
  6436     0C71  2C7A               	goto	i1l2451
  6437     0C72                     u343_20:
  6438     0C72                     i1l2449:
  6439     0C72  3000               	movlw	0
  6440     0C73  00C1               	movwf	i1___fldiv@b+3
  6441     0C74  3000               	movlw	0
  6442     0C75  00C0               	movwf	i1___fldiv@b+2
  6443     0C76  3000               	movlw	0
  6444     0C77  00BF               	movwf	i1___fldiv@b+1
  6445     0C78  3000               	movlw	0
  6446     0C79  00BE               	movwf	i1___fldiv@b
  6447     0C7A                     i1l2451:
  6448     0C7A  17C0               	bsf	i1___fldiv@b+2,7
  6449     0C7B                     i1l2453:
  6450     0C7B  01C1               	clrf	i1___fldiv@b+3
  6451     0C7C  2C85               	goto	i1l2457
  6452     0C7D                     i1l2455:
  6453     0C7D  3000               	movlw	0
  6454     0C7E  00C1               	movwf	i1___fldiv@b+3
  6455     0C7F  3000               	movlw	0
  6456     0C80  00C0               	movwf	i1___fldiv@b+2
  6457     0C81  3000               	movlw	0
  6458     0C82  00BF               	movwf	i1___fldiv@b+1
  6459     0C83  3000               	movlw	0
  6460     0C84  00BE               	movwf	i1___fldiv@b
  6461     0C85                     i1l2457:
  6462     0C85  083D               	movf	i1___fldiv@a+3,w
  6463     0C86  3980               	andlw	128
  6464     0C87  00C2               	movwf	??i1___fldiv
  6465     0C88  0842               	movf	??i1___fldiv,w
  6466     0C89  06CB               	xorwf	i1___fldiv@sign,f
  6467     0C8A                     i1l2459:
  6468     0C8A  083D               	movf	i1___fldiv@a+3,w
  6469     0C8B  00C2               	movwf	??i1___fldiv
  6470     0C8C  0742               	addwf	??i1___fldiv,w
  6471     0C8D  00D3               	movwf	i1___fldiv@aexp
  6472     0C8E                     i1l2461:
  6473     0C8E  1FBC               	btfss	i1___fldiv@a+2,7
  6474     0C8F  2C91               	goto	u344_21
  6475     0C90  2C92               	goto	u344_20
  6476     0C91                     u344_21:
  6477     0C91  2C93               	goto	i1l2465
  6478     0C92                     u344_20:
  6479     0C92                     i1l2463:
  6480     0C92  1453               	bsf	i1___fldiv@aexp,0
  6481     0C93                     i1l2465:
  6482     0C93  0853               	movf	i1___fldiv@aexp,w
  6483     0C94  1903               	btfsc	3,2
  6484     0C95  2C97               	goto	u345_21
  6485     0C96  2C98               	goto	u345_20
  6486     0C97                     u345_21:
  6487     0C97  2CA8               	goto	i1l2475
  6488     0C98                     u345_20:
  6489     0C98                     i1l2467:
  6490     0C98  0A53               	incf	i1___fldiv@aexp,w
  6491     0C99  1D03               	btfss	3,2
  6492     0C9A  2C9C               	goto	u346_21
  6493     0C9B  2C9D               	goto	u346_20
  6494     0C9C                     u346_21:
  6495     0C9C  2CA5               	goto	i1l2471
  6496     0C9D                     u346_20:
  6497     0C9D                     i1l2469:
  6498     0C9D  3000               	movlw	0
  6499     0C9E  00BD               	movwf	i1___fldiv@a+3
  6500     0C9F  3000               	movlw	0
  6501     0CA0  00BC               	movwf	i1___fldiv@a+2
  6502     0CA1  3000               	movlw	0
  6503     0CA2  00BB               	movwf	i1___fldiv@a+1
  6504     0CA3  3000               	movlw	0
  6505     0CA4  00BA               	movwf	i1___fldiv@a
  6506     0CA5                     i1l2471:
  6507     0CA5  17BC               	bsf	i1___fldiv@a+2,7
  6508     0CA6                     i1l2473:
  6509     0CA6  01BD               	clrf	i1___fldiv@a+3
  6510     0CA7  2CB0               	goto	i1l712
  6511     0CA8                     i1l2475:
  6512     0CA8  3000               	movlw	0
  6513     0CA9  00BD               	movwf	i1___fldiv@a+3
  6514     0CAA  3000               	movlw	0
  6515     0CAB  00BC               	movwf	i1___fldiv@a+2
  6516     0CAC  3000               	movlw	0
  6517     0CAD  00BB               	movwf	i1___fldiv@a+1
  6518     0CAE  3000               	movlw	0
  6519     0CAF  00BA               	movwf	i1___fldiv@a
  6520     0CB0                     i1l712:
  6521     0CB0  083D               	movf	i1___fldiv@a+3,w
  6522     0CB1  043C               	iorwf	i1___fldiv@a+2,w
  6523     0CB2  043B               	iorwf	i1___fldiv@a+1,w
  6524     0CB3  043A               	iorwf	i1___fldiv@a,w
  6525     0CB4  1D03               	skipz
  6526     0CB5  2CB7               	goto	u347_21
  6527     0CB6  2CB8               	goto	u347_20
  6528     0CB7                     u347_21:
  6529     0CB7  2CD1               	goto	i1l2485
  6530     0CB8                     u347_20:
  6531     0CB8                     i1l2477:
  6532     0CB8  3000               	movlw	0
  6533     0CB9  00C1               	movwf	i1___fldiv@b+3
  6534     0CBA  3000               	movlw	0
  6535     0CBB  00C0               	movwf	i1___fldiv@b+2
  6536     0CBC  3000               	movlw	0
  6537     0CBD  00BF               	movwf	i1___fldiv@b+1
  6538     0CBE  3000               	movlw	0
  6539     0CBF  00BE               	movwf	i1___fldiv@b
  6540     0CC0  3080               	movlw	128
  6541     0CC1  04C0               	iorwf	i1___fldiv@b+2,f
  6542     0CC2  307F               	movlw	127
  6543     0CC3  04C1               	iorwf	i1___fldiv@b+3,f
  6544     0CC4                     i1l2479:
  6545     0CC4  084B               	movf	i1___fldiv@sign,w
  6546     0CC5  00C2               	movwf	??i1___fldiv
  6547     0CC6  0842               	movf	??i1___fldiv,w
  6548     0CC7  04C1               	iorwf	i1___fldiv@b+3,f
  6549     0CC8                     i1l2481:
  6550     0CC8  0841               	movf	i1___fldiv@b+3,w
  6551     0CC9  00BD               	movwf	?i1___fldiv+3
  6552     0CCA  0840               	movf	i1___fldiv@b+2,w
  6553     0CCB  00BC               	movwf	?i1___fldiv+2
  6554     0CCC  083F               	movf	i1___fldiv@b+1,w
  6555     0CCD  00BB               	movwf	?i1___fldiv+1
  6556     0CCE  083E               	movf	i1___fldiv@b,w
  6557     0CCF  00BA               	movwf	?i1___fldiv
  6558     0CD0  2E2C               	goto	i1l714
  6559     0CD1                     i1l2485:
  6560     0CD1  0852               	movf	i1___fldiv@bexp,w
  6561     0CD2  1D03               	btfss	3,2
  6562     0CD3  2CD5               	goto	u348_21
  6563     0CD4  2CD6               	goto	u348_20
  6564     0CD5                     u348_21:
  6565     0CD5  2CDF               	goto	i1l2491
  6566     0CD6                     u348_20:
  6567     0CD6                     i1l2487:
  6568     0CD6  3000               	movlw	0
  6569     0CD7  00BD               	movwf	?i1___fldiv+3
  6570     0CD8  3000               	movlw	0
  6571     0CD9  00BC               	movwf	?i1___fldiv+2
  6572     0CDA  3000               	movlw	0
  6573     0CDB  00BB               	movwf	?i1___fldiv+1
  6574     0CDC  3000               	movlw	0
  6575     0CDD  00BA               	movwf	?i1___fldiv
  6576     0CDE  2E2C               	goto	i1l714
  6577     0CDF                     i1l2491:
  6578     0CDF  0852               	movf	i1___fldiv@bexp,w
  6579     0CE0  00C2               	movwf	??i1___fldiv
  6580     0CE1  01C3               	clrf	??i1___fldiv+1
  6581     0CE2  0843               	movf	??i1___fldiv+1,w
  6582     0CE3  00C5               	movwf	??i1___fldiv+3
  6583     0CE4  0853               	movf	i1___fldiv@aexp,w
  6584     0CE5  0242               	subwf	??i1___fldiv,w
  6585     0CE6  00C4               	movwf	??i1___fldiv+2
  6586     0CE7  1C03               	skipc
  6587     0CE8  03C5               	decf	??i1___fldiv+3,f
  6588     0CE9  0844               	movf	??i1___fldiv+2,w
  6589     0CEA  3E7F               	addlw	127
  6590     0CEB  00CC               	movwf	i1___fldiv@new_exp
  6591     0CEC  0845               	movf	??i1___fldiv+3,w
  6592     0CED  1803               	skipnc
  6593     0CEE  3E01               	addlw	1
  6594     0CEF  3E00               	addlw	0
  6595     0CF0  00CD               	movwf	i1___fldiv@new_exp+1
  6596     0CF1                     i1l2493:
  6597     0CF1  0841               	movf	i1___fldiv@b+3,w
  6598     0CF2  00CA               	movwf	i1___fldiv@rem+3
  6599     0CF3  0840               	movf	i1___fldiv@b+2,w
  6600     0CF4  00C9               	movwf	i1___fldiv@rem+2
  6601     0CF5  083F               	movf	i1___fldiv@b+1,w
  6602     0CF6  00C8               	movwf	i1___fldiv@rem+1
  6603     0CF7  083E               	movf	i1___fldiv@b,w
  6604     0CF8  00C7               	movwf	i1___fldiv@rem
  6605     0CF9                     i1l2495:
  6606     0CF9  3000               	movlw	0
  6607     0CFA  00C1               	movwf	i1___fldiv@b+3
  6608     0CFB  3000               	movlw	0
  6609     0CFC  00C0               	movwf	i1___fldiv@b+2
  6610     0CFD  3000               	movlw	0
  6611     0CFE  00BF               	movwf	i1___fldiv@b+1
  6612     0CFF  3000               	movlw	0
  6613     0D00  00BE               	movwf	i1___fldiv@b
  6614     0D01                     i1l2497:
  6615     0D01  3000               	movlw	0
  6616     0D02  00D1               	movwf	i1___fldiv@grs+3
  6617     0D03  3000               	movlw	0
  6618     0D04  00D0               	movwf	i1___fldiv@grs+2
  6619     0D05  3000               	movlw	0
  6620     0D06  00CF               	movwf	i1___fldiv@grs+1
  6621     0D07  3000               	movlw	0
  6622     0D08  00CE               	movwf	i1___fldiv@grs
  6623     0D09                     i1l2499:
  6624     0D09  01D3               	clrf	i1___fldiv@aexp
  6625     0D0A  2D55               	goto	i1l2519
  6626     0D0B                     i1l2501:
  6627     0D0B  0853               	movf	i1___fldiv@aexp,w
  6628     0D0C  1903               	btfsc	3,2
  6629     0D0D  2D0F               	goto	u349_21
  6630     0D0E  2D10               	goto	u349_20
  6631     0D0F                     u349_21:
  6632     0D0F  2D30               	goto	i1l2511
  6633     0D10                     u349_20:
  6634     0D10                     i1l2503:
  6635     0D10  3001               	movlw	1
  6636     0D11  00C2               	movwf	??i1___fldiv
  6637     0D12                     u350_25:
  6638     0D12  1003               	clrc
  6639     0D13  0DC7               	rlf	i1___fldiv@rem,f
  6640     0D14  0DC8               	rlf	i1___fldiv@rem+1,f
  6641     0D15  0DC9               	rlf	i1___fldiv@rem+2,f
  6642     0D16  0DCA               	rlf	i1___fldiv@rem+3,f
  6643     0D17  0BC2               	decfsz	??i1___fldiv,f
  6644     0D18  2D12               	goto	u350_25
  6645     0D19  3001               	movlw	1
  6646     0D1A  00C2               	movwf	??i1___fldiv
  6647     0D1B                     u351_25:
  6648     0D1B  1003               	clrc
  6649     0D1C  0DBE               	rlf	i1___fldiv@b,f
  6650     0D1D  0DBF               	rlf	i1___fldiv@b+1,f
  6651     0D1E  0DC0               	rlf	i1___fldiv@b+2,f
  6652     0D1F  0DC1               	rlf	i1___fldiv@b+3,f
  6653     0D20  0BC2               	decfsz	??i1___fldiv,f
  6654     0D21  2D1B               	goto	u351_25
  6655     0D22                     i1l2505:
  6656     0D22  1FD1               	btfss	i1___fldiv@grs+3,7
  6657     0D23  2D25               	goto	u352_21
  6658     0D24  2D26               	goto	u352_20
  6659     0D25                     u352_21:
  6660     0D25  2D27               	goto	i1l2509
  6661     0D26                     u352_20:
  6662     0D26                     i1l2507:
  6663     0D26  143E               	bsf	i1___fldiv@b,0
  6664     0D27                     i1l2509:
  6665     0D27  3001               	movlw	1
  6666     0D28  00C2               	movwf	??i1___fldiv
  6667     0D29                     u353_25:
  6668     0D29  1003               	clrc
  6669     0D2A  0DCE               	rlf	i1___fldiv@grs,f
  6670     0D2B  0DCF               	rlf	i1___fldiv@grs+1,f
  6671     0D2C  0DD0               	rlf	i1___fldiv@grs+2,f
  6672     0D2D  0DD1               	rlf	i1___fldiv@grs+3,f
  6673     0D2E  0BC2               	decfsz	??i1___fldiv,f
  6674     0D2F  2D29               	goto	u353_25
  6675     0D30                     i1l2511:
  6676     0D30  083D               	movf	i1___fldiv@a+3,w
  6677     0D31  024A               	subwf	i1___fldiv@rem+3,w
  6678     0D32  1D03               	skipz
  6679     0D33  2D3E               	goto	u354_25
  6680     0D34  083C               	movf	i1___fldiv@a+2,w
  6681     0D35  0249               	subwf	i1___fldiv@rem+2,w
  6682     0D36  1D03               	skipz
  6683     0D37  2D3E               	goto	u354_25
  6684     0D38  083B               	movf	i1___fldiv@a+1,w
  6685     0D39  0248               	subwf	i1___fldiv@rem+1,w
  6686     0D3A  1D03               	skipz
  6687     0D3B  2D3E               	goto	u354_25
  6688     0D3C  083A               	movf	i1___fldiv@a,w
  6689     0D3D  0247               	subwf	i1___fldiv@rem,w
  6690     0D3E                     u354_25:
  6691     0D3E  1C03               	skipc
  6692     0D3F  2D41               	goto	u354_21
  6693     0D40  2D42               	goto	u354_20
  6694     0D41                     u354_21:
  6695     0D41  2D51               	goto	i1l2517
  6696     0D42                     u354_20:
  6697     0D42                     i1l2513:
  6698     0D42  1751               	bsf	i1___fldiv@grs+3,6
  6699     0D43                     i1l2515:
  6700     0D43  083A               	movf	i1___fldiv@a,w
  6701     0D44  02C7               	subwf	i1___fldiv@rem,f
  6702     0D45  083B               	movf	i1___fldiv@a+1,w
  6703     0D46  1C03               	skipc
  6704     0D47  0F3B               	incfsz	i1___fldiv@a+1,w
  6705     0D48  02C8               	subwf	i1___fldiv@rem+1,f
  6706     0D49  083C               	movf	i1___fldiv@a+2,w
  6707     0D4A  1C03               	skipc
  6708     0D4B  0F3C               	incfsz	i1___fldiv@a+2,w
  6709     0D4C  02C9               	subwf	i1___fldiv@rem+2,f
  6710     0D4D  083D               	movf	i1___fldiv@a+3,w
  6711     0D4E  1C03               	skipc
  6712     0D4F  0F3D               	incfsz	i1___fldiv@a+3,w
  6713     0D50  02CA               	subwf	i1___fldiv@rem+3,f
  6714     0D51                     i1l2517:
  6715     0D51  3001               	movlw	1
  6716     0D52  00C2               	movwf	??i1___fldiv
  6717     0D53  0842               	movf	??i1___fldiv,w
  6718     0D54  07D3               	addwf	i1___fldiv@aexp,f
  6719     0D55                     i1l2519:
  6720     0D55  301A               	movlw	26
  6721     0D56  0253               	subwf	i1___fldiv@aexp,w
  6722     0D57  1C03               	skipc
  6723     0D58  2D5A               	goto	u355_21
  6724     0D59  2D5B               	goto	u355_20
  6725     0D5A                     u355_21:
  6726     0D5A  2D0B               	goto	i1l2501
  6727     0D5B                     u355_20:
  6728     0D5B                     i1l2521:
  6729     0D5B  084A               	movf	i1___fldiv@rem+3,w
  6730     0D5C  0449               	iorwf	i1___fldiv@rem+2,w
  6731     0D5D  0448               	iorwf	i1___fldiv@rem+1,w
  6732     0D5E  0447               	iorwf	i1___fldiv@rem,w
  6733     0D5F  1903               	skipnz
  6734     0D60  2D62               	goto	u356_21
  6735     0D61  2D63               	goto	u356_20
  6736     0D62                     u356_21:
  6737     0D62  2D82               	goto	i1l2535
  6738     0D63                     u356_20:
  6739     0D63                     i1l2523:
  6740     0D63  144E               	bsf	i1___fldiv@grs,0
  6741     0D64  2D82               	goto	i1l2535
  6742     0D65                     i1l2525:
  6743     0D65  3001               	movlw	1
  6744     0D66  00C2               	movwf	??i1___fldiv
  6745     0D67                     u357_25:
  6746     0D67  1003               	clrc
  6747     0D68  0DBE               	rlf	i1___fldiv@b,f
  6748     0D69  0DBF               	rlf	i1___fldiv@b+1,f
  6749     0D6A  0DC0               	rlf	i1___fldiv@b+2,f
  6750     0D6B  0DC1               	rlf	i1___fldiv@b+3,f
  6751     0D6C  0BC2               	decfsz	??i1___fldiv,f
  6752     0D6D  2D67               	goto	u357_25
  6753     0D6E                     i1l2527:
  6754     0D6E  1FD1               	btfss	i1___fldiv@grs+3,7
  6755     0D6F  2D71               	goto	u358_21
  6756     0D70  2D72               	goto	u358_20
  6757     0D71                     u358_21:
  6758     0D71  2D73               	goto	i1l2531
  6759     0D72                     u358_20:
  6760     0D72                     i1l2529:
  6761     0D72  143E               	bsf	i1___fldiv@b,0
  6762     0D73                     i1l2531:
  6763     0D73  3001               	movlw	1
  6764     0D74  00C2               	movwf	??i1___fldiv
  6765     0D75                     u359_25:
  6766     0D75  1003               	clrc
  6767     0D76  0DCE               	rlf	i1___fldiv@grs,f
  6768     0D77  0DCF               	rlf	i1___fldiv@grs+1,f
  6769     0D78  0DD0               	rlf	i1___fldiv@grs+2,f
  6770     0D79  0DD1               	rlf	i1___fldiv@grs+3,f
  6771     0D7A  0BC2               	decfsz	??i1___fldiv,f
  6772     0D7B  2D75               	goto	u359_25
  6773     0D7C                     i1l2533:
  6774     0D7C  30FF               	movlw	255
  6775     0D7D  07CC               	addwf	i1___fldiv@new_exp,f
  6776     0D7E  1803               	skipnc
  6777     0D7F  0ACD               	incf	i1___fldiv@new_exp+1,f
  6778     0D80  30FF               	movlw	255
  6779     0D81  07CD               	addwf	i1___fldiv@new_exp+1,f
  6780     0D82                     i1l2535:
  6781     0D82  1FC0               	btfss	i1___fldiv@b+2,7
  6782     0D83  2D85               	goto	u360_21
  6783     0D84  2D86               	goto	u360_20
  6784     0D85                     u360_21:
  6785     0D85  2D65               	goto	i1l2525
  6786     0D86                     u360_20:
  6787     0D86                     i1l2537:
  6788     0D86  01D3               	clrf	i1___fldiv@aexp
  6789     0D87                     i1l2539:
  6790     0D87  1FD1               	btfss	i1___fldiv@grs+3,7
  6791     0D88  2D8A               	goto	u361_21
  6792     0D89  2D8B               	goto	u361_20
  6793     0D8A                     u361_21:
  6794     0D8A  2DA7               	goto	i1l2547
  6795     0D8B                     u361_20:
  6796     0D8B                     i1l2541:
  6797     0D8B  30FF               	movlw	255
  6798     0D8C  054E               	andwf	i1___fldiv@grs,w
  6799     0D8D  00C2               	movwf	??i1___fldiv
  6800     0D8E  30FF               	movlw	255
  6801     0D8F  054F               	andwf	i1___fldiv@grs+1,w
  6802     0D90  00C3               	movwf	??i1___fldiv+1
  6803     0D91  30FF               	movlw	255
  6804     0D92  0550               	andwf	i1___fldiv@grs+2,w
  6805     0D93  00C4               	movwf	??i1___fldiv+2
  6806     0D94  307F               	movlw	127
  6807     0D95  0551               	andwf	i1___fldiv@grs+3,w
  6808     0D96  00C5               	movwf	??i1___fldiv+3
  6809     0D97  0845               	movf	??i1___fldiv+3,w
  6810     0D98  0444               	iorwf	??i1___fldiv+2,w
  6811     0D99  0443               	iorwf	??i1___fldiv+1,w
  6812     0D9A  0442               	iorwf	??i1___fldiv,w
  6813     0D9B  1903               	skipnz
  6814     0D9C  2D9E               	goto	u362_21
  6815     0D9D  2D9F               	goto	u362_20
  6816     0D9E                     u362_21:
  6817     0D9E  2DA2               	goto	i1l728
  6818     0D9F                     u362_20:
  6819     0D9F                     i1l2543:
  6820     0D9F  01D3               	clrf	i1___fldiv@aexp
  6821     0DA0  0AD3               	incf	i1___fldiv@aexp,f
  6822     0DA1  2DA7               	goto	i1l2547
  6823     0DA2                     i1l728:
  6824     0DA2  1C3E               	btfss	i1___fldiv@b,0
  6825     0DA3  2DA5               	goto	u363_21
  6826     0DA4  2DA6               	goto	u363_20
  6827     0DA5                     u363_21:
  6828     0DA5  2DA7               	goto	i1l2547
  6829     0DA6                     u363_20:
  6830     0DA6  2D9F               	goto	i1l2543
  6831     0DA7                     i1l2547:
  6832     0DA7  0853               	movf	i1___fldiv@aexp,w
  6833     0DA8  1903               	btfsc	3,2
  6834     0DA9  2DAB               	goto	u364_21
  6835     0DAA  2DAC               	goto	u364_20
  6836     0DAB                     u364_21:
  6837     0DAB  2DDD               	goto	i1l2557
  6838     0DAC                     u364_20:
  6839     0DAC                     i1l2549:
  6840     0DAC  3001               	movlw	1
  6841     0DAD  07BE               	addwf	i1___fldiv@b,f
  6842     0DAE  3000               	movlw	0
  6843     0DAF  1803               	skipnc
  6844     0DB0  3001               	movlw	1
  6845     0DB1  07BF               	addwf	i1___fldiv@b+1,f
  6846     0DB2  3000               	movlw	0
  6847     0DB3  1803               	skipnc
  6848     0DB4  3001               	movlw	1
  6849     0DB5  07C0               	addwf	i1___fldiv@b+2,f
  6850     0DB6  3000               	movlw	0
  6851     0DB7  1803               	skipnc
  6852     0DB8  3001               	movlw	1
  6853     0DB9  07C1               	addwf	i1___fldiv@b+3,f
  6854     0DBA                     i1l2551:
  6855     0DBA  1C41               	btfss	i1___fldiv@b+3,0
  6856     0DBB  2DBD               	goto	u365_21
  6857     0DBC  2DBE               	goto	u365_20
  6858     0DBD                     u365_21:
  6859     0DBD  2DDD               	goto	i1l2557
  6860     0DBE                     u365_20:
  6861     0DBE                     i1l2553:
  6862     0DBE  083E               	movf	i1___fldiv@b,w
  6863     0DBF  00C2               	movwf	??i1___fldiv
  6864     0DC0  083F               	movf	i1___fldiv@b+1,w
  6865     0DC1  00C3               	movwf	??i1___fldiv+1
  6866     0DC2  0840               	movf	i1___fldiv@b+2,w
  6867     0DC3  00C4               	movwf	??i1___fldiv+2
  6868     0DC4  0841               	movf	i1___fldiv@b+3,w
  6869     0DC5  00C5               	movwf	??i1___fldiv+3
  6870     0DC6  3001               	movlw	1
  6871     0DC7  00C6               	movwf	??i1___fldiv+4
  6872     0DC8                     u366_25:
  6873     0DC8  0D45               	rlf	??i1___fldiv+3,w
  6874     0DC9  0CC5               	rrf	??i1___fldiv+3,f
  6875     0DCA  0CC4               	rrf	??i1___fldiv+2,f
  6876     0DCB  0CC3               	rrf	??i1___fldiv+1,f
  6877     0DCC  0CC2               	rrf	??i1___fldiv,f
  6878     0DCD                     u366_20:
  6879     0DCD  0BC6               	decfsz	??i1___fldiv+4,f
  6880     0DCE  2DC8               	goto	u366_25
  6881     0DCF  0845               	movf	??i1___fldiv+3,w
  6882     0DD0  00C1               	movwf	i1___fldiv@b+3
  6883     0DD1  0844               	movf	??i1___fldiv+2,w
  6884     0DD2  00C0               	movwf	i1___fldiv@b+2
  6885     0DD3  0843               	movf	??i1___fldiv+1,w
  6886     0DD4  00BF               	movwf	i1___fldiv@b+1
  6887     0DD5  0842               	movf	??i1___fldiv,w
  6888     0DD6  00BE               	movwf	i1___fldiv@b
  6889     0DD7                     i1l2555:
  6890     0DD7  3001               	movlw	1
  6891     0DD8  07CC               	addwf	i1___fldiv@new_exp,f
  6892     0DD9  1803               	skipnc
  6893     0DDA  0ACD               	incf	i1___fldiv@new_exp+1,f
  6894     0DDB  3000               	movlw	0
  6895     0DDC  07CD               	addwf	i1___fldiv@new_exp+1,f
  6896     0DDD                     i1l2557:
  6897     0DDD  084D               	movf	i1___fldiv@new_exp+1,w
  6898     0DDE  3A80               	xorlw	128
  6899     0DDF  00FF               	movwf	btemp+1
  6900     0DE0  3080               	movlw	128
  6901     0DE1  027F               	subwf	btemp+1,w
  6902     0DE2  1D03               	skipz
  6903     0DE3  2DE6               	goto	u367_25
  6904     0DE4  30FF               	movlw	255
  6905     0DE5  024C               	subwf	i1___fldiv@new_exp,w
  6906     0DE6                     u367_25:
  6907     0DE6  1C03               	skipc
  6908     0DE7  2DE9               	goto	u367_21
  6909     0DE8  2DEA               	goto	u367_20
  6910     0DE9                     u367_21:
  6911     0DE9  2DF8               	goto	i1l2561
  6912     0DEA                     u367_20:
  6913     0DEA                     i1l2559:
  6914     0DEA  30FF               	movlw	255
  6915     0DEB  1283               	bcf	3,5	;RP0=0, select bank0
  6916     0DEC  1303               	bcf	3,6	;RP1=0, select bank0
  6917     0DED  00CC               	movwf	i1___fldiv@new_exp
  6918     0DEE  3000               	movlw	0
  6919     0DEF  00CD               	movwf	i1___fldiv@new_exp+1
  6920     0DF0  3000               	movlw	0
  6921     0DF1  00C1               	movwf	i1___fldiv@b+3
  6922     0DF2  3000               	movlw	0
  6923     0DF3  00C0               	movwf	i1___fldiv@b+2
  6924     0DF4  3000               	movlw	0
  6925     0DF5  00BF               	movwf	i1___fldiv@b+1
  6926     0DF6  3000               	movlw	0
  6927     0DF7  00BE               	movwf	i1___fldiv@b
  6928     0DF8                     i1l2561:
  6929     0DF8  1283               	bcf	3,5	;RP0=0, select bank0
  6930     0DF9  1303               	bcf	3,6	;RP1=0, select bank0
  6931     0DFA  084D               	movf	i1___fldiv@new_exp+1,w
  6932     0DFB  3A80               	xorlw	128
  6933     0DFC  00FF               	movwf	btemp+1
  6934     0DFD  3080               	movlw	128
  6935     0DFE  027F               	subwf	btemp+1,w
  6936     0DFF  1D03               	skipz
  6937     0E00  2E03               	goto	u368_25
  6938     0E01  3001               	movlw	1
  6939     0E02  024C               	subwf	i1___fldiv@new_exp,w
  6940     0E03                     u368_25:
  6941     0E03  1803               	skipnc
  6942     0E04  2E06               	goto	u368_21
  6943     0E05  2E07               	goto	u368_20
  6944     0E06                     u368_21:
  6945     0E06  2E14               	goto	i1l734
  6946     0E07                     u368_20:
  6947     0E07                     i1l2563:
  6948     0E07  1283               	bcf	3,5	;RP0=0, select bank0
  6949     0E08  1303               	bcf	3,6	;RP1=0, select bank0
  6950     0E09  01CC               	clrf	i1___fldiv@new_exp
  6951     0E0A  01CD               	clrf	i1___fldiv@new_exp+1
  6952     0E0B                     i1l2565:
  6953     0E0B  3000               	movlw	0
  6954     0E0C  00C1               	movwf	i1___fldiv@b+3
  6955     0E0D  3000               	movlw	0
  6956     0E0E  00C0               	movwf	i1___fldiv@b+2
  6957     0E0F  3000               	movlw	0
  6958     0E10  00BF               	movwf	i1___fldiv@b+1
  6959     0E11  3000               	movlw	0
  6960     0E12  00BE               	movwf	i1___fldiv@b
  6961     0E13                     i1l2567:
  6962     0E13  01CB               	clrf	i1___fldiv@sign
  6963     0E14                     i1l734:
  6964     0E14  1283               	bcf	3,5	;RP0=0, select bank0
  6965     0E15  1303               	bcf	3,6	;RP1=0, select bank0
  6966     0E16  084C               	movf	i1___fldiv@new_exp,w
  6967     0E17  00D2               	movwf	i1___fldiv@bexp
  6968     0E18                     i1l2569:
  6969     0E18  1C52               	btfss	i1___fldiv@bexp,0
  6970     0E19  2E1B               	goto	u369_21
  6971     0E1A  2E1C               	goto	u369_20
  6972     0E1B                     u369_21:
  6973     0E1B  2E1E               	goto	i1l2573
  6974     0E1C                     u369_20:
  6975     0E1C                     i1l2571:
  6976     0E1C  17C0               	bsf	i1___fldiv@b+2,7
  6977     0E1D  2E22               	goto	i1l736
  6978     0E1E                     i1l2573:
  6979     0E1E  307F               	movlw	127
  6980     0E1F  00C2               	movwf	??i1___fldiv
  6981     0E20  0842               	movf	??i1___fldiv,w
  6982     0E21  05C0               	andwf	i1___fldiv@b+2,f
  6983     0E22                     i1l736:
  6984     0E22  0852               	movf	i1___fldiv@bexp,w
  6985     0E23  00C2               	movwf	??i1___fldiv
  6986     0E24  1003               	clrc
  6987     0E25  0C42               	rrf	??i1___fldiv,w
  6988     0E26  00C1               	movwf	i1___fldiv@b+3
  6989     0E27  084B               	movf	i1___fldiv@sign,w
  6990     0E28  00C2               	movwf	??i1___fldiv
  6991     0E29  0842               	movf	??i1___fldiv,w
  6992     0E2A  04C1               	iorwf	i1___fldiv@b+3,f
  6993     0E2B  2CC8               	goto	i1l2481
  6994     0E2C                     i1l714:
  6995     0E2C  0008               	return
  6996     0E2D                     __end_ofi1___fldiv:
  6997     007E                     btemp	set	126	;btemp
  6998     007E                     wtemp0	set	126
  6999                           
  7000                           	psect	idloc
  7001                           
  7002                           ;Config register IDLOC0 @ 0x2000
  7003                           ;	unspecified, using default values
  7004     2000                     	org	8192
  7005     2000  3FFF               	dw	16383
  7006                           
  7007                           ;Config register IDLOC1 @ 0x2001
  7008                           ;	unspecified, using default values
  7009     2001                     	org	8193
  7010     2001  3FFF               	dw	16383
  7011                           
  7012                           ;Config register IDLOC2 @ 0x2002
  7013                           ;	unspecified, using default values
  7014     2002                     	org	8194
  7015     2002  3FFF               	dw	16383
  7016                           
  7017                           ;Config register IDLOC3 @ 0x2003
  7018                           ;	unspecified, using default values
  7019     2003                     	org	8195
  7020     2003  3FFF               	dw	16383
  7021                           
  7022                           	psect	config
  7023                           
  7024                           ;Config register CONFIG1 @ 0x2007
  7025                           ;	Oscillator Selection bits
  7026                           ;	FOSC = INTRC_NOCLKOUT, INTOSCIO oscillator: I/O function on RA6/OSC2/CLKOUT pin, I/O f
      +                          unction on RA7/OSC1/CLKIN
  7027                           ;	Watchdog Timer Enable bit
  7028                           ;	WDTE = OFF, WDT disabled and can be enabled by SWDTEN bit of the WDTCON register
  7029                           ;	Power-up Timer Enable bit
  7030                           ;	PWRTE = OFF, PWRT disabled
  7031                           ;	RE3/MCLR pin function select bit
  7032                           ;	MCLRE = OFF, RE3/MCLR pin function is digital input, MCLR internally tied to VDD
  7033                           ;	Code Protection bit
  7034                           ;	CP = OFF, Program memory code protection is disabled
  7035                           ;	Data Code Protection bit
  7036                           ;	CPD = OFF, Data memory code protection is disabled
  7037                           ;	Brown Out Reset Selection bits
  7038                           ;	BOREN = OFF, BOR disabled
  7039                           ;	Internal External Switchover bit
  7040                           ;	IESO = OFF, Internal/External Switchover mode is disabled
  7041                           ;	Fail-Safe Clock Monitor Enabled bit
  7042                           ;	FCMEN = OFF, Fail-Safe Clock Monitor is disabled
  7043                           ;	Low Voltage Programming Enable bit
  7044                           ;	LVP = OFF, RB3 pin has digital I/O, HV on MCLR must be used for programming
  7045                           ;	In-Circuit Debugger Mode bit
  7046                           ;	DEBUG = 0x1, unprogramme  7047     2007                     	org	8199
  7048     2007  20D4               	dw	8404
  7049                           
  7050                           ;Config register CONFIG2 @ 0x2008
  7051                           ;	Brown-out Reset Selection bit
  7052                           ;	BOR4V = BOR40V, Brown-out Reset set to 4.0V
  7053                           ;	Flash Program Memory Self Write Enable bits
  7054                           ;	WRT = OFF, Write protection off
  7055     2008                     	org	8200
  7056     2008  3FFF               	dw	16383

Data Sizes:
    Strings     0
    Constant    0
    Data        2
    BSS         57
    Persistent  0
    Stack       0

Auto Spaces:
    Space          Size  Autos    Used
    COMMON           14     14      14
    BANK0            80     78      79
    BANK1            80     79      79
    BANK3            96     11      69
    BANK2            96      0       0

Pointer List with Targets:

    None.

Critical Paths under _main in COMMON

    None.

Critical Paths under _isr in COMMON

    i1_ultrasonic_measure_distance->i1___xxtofl
    i1___fltol->i1___xxtofl
    i1___flmul->i1___xxtofl
    i1___fldiv->i1___xxtofl

Critical Paths under _main in BANK0

    None.

Critical Paths under _isr in BANK0

    _isr->i1_ultrasonic_measure_distance
    i1_ultrasonic_measure_distance->i1___fltol
    i1___fltol->i1___fldiv
    i1___fldiv->i1___flmul

Critical Paths under _main in BANK1

    _main->_ultrasonic_measure_distance
    _ultrasonic_measure_distance->___fltol
    ___fltol->___fldiv
    ___flmul->___xxtofl
    ___fldiv->___flmul
    _setup->_I2C_Slave_Init
    _Lcd_Init->_Lcd_Cmd
    _Lcd_Cmd->_Lcd_Port

Critical Paths under _isr in BANK1

    None.

Critical Paths under _main in BANK3

    _main->_ultrasonic_measure_distance

Critical Paths under _isr in BANK3

    None.

Critical Paths under _main in BANK2

    None.

Critical Paths under _isr in BANK2

    None.

Call Graph Tables:

 ---------------------------------------------------------------------------------
 (Depth) Function   	        Calls       Base Space   Used Autos Params    Refs
 ---------------------------------------------------------------------------------
 (0) _main                                                 3     3      0    5822
                                              8 BANK3      3     3      0
                           _Lcd_Init
                              _setup
        _ultrasonic_measure_distance
 ---------------------------------------------------------------------------------
 (1) _ultrasonic_measure_distance                         11     9      2    5602
                                             76 BANK1      3     1      2
                                              0 BANK3      8     8      0
                            ___fldiv
                            ___flmul
                            ___fltol
                           ___xxtofl
 ---------------------------------------------------------------------------------
 (2) ___xxtofl                                            14    10      4     550
                                              0 BANK1     14    10      4
 ---------------------------------------------------------------------------------
 (2) ___fltol                                             10     6      4     381
                                             66 BANK1     10     6      4
                            ___fldiv (ARG)
                            ___flmul (ARG)
                           ___xxtofl (ARG)
 ---------------------------------------------------------------------------------
 (2) ___flmul                                             26    18      8    2873
                                             14 BANK1     26    18      8
                          __Umul8_16
                           ___xxtofl (ARG)
 ---------------------------------------------------------------------------------
 (3) __Umul8_16                                            9     7      2     799
                                              0 BANK1      9     7      2
 ---------------------------------------------------------------------------------
 (2) ___fldiv                                             26    18      8    1729
                                             40 BANK1     26    18      8
                            ___flmul (ARG)
                           ___xxtofl (ARG)
 ---------------------------------------------------------------------------------
 (1) _setup                                                0     0      0      22
                     _I2C_Slave_Init
 ---------------------------------------------------------------------------------
 (2) _I2C_Slave_Init                                       1     1      0      22
                                              0 BANK1      1     1      0
 ---------------------------------------------------------------------------------
 (1) _Lcd_Init                                             2     2      0     198
                                              4 BANK1      2     2      0
                            _Lcd_Cmd
                           _Lcd_Port
 ---------------------------------------------------------------------------------
 (2) _Lcd_Cmd                                              3     3      0     110
                                              1 BANK1      3     3      0
                           _Lcd_Port
 ---------------------------------------------------------------------------------
 (2) _Lcd_Port                                             1     1      0      88
                                              0 BANK1      1     1      0
 ---------------------------------------------------------------------------------
 Estimated maximum stack depth 3
 ---------------------------------------------------------------------------------
 (Depth) Function   	        Calls       Base Space   Used Autos Params    Refs
 ---------------------------------------------------------------------------------
 (4) _isr                                                  5     5      0    3764
                                             73 BANK0      5     5      0
      i1_ultrasonic_measure_distance
 ---------------------------------------------------------------------------------
 (5) i1_ultrasonic_measure_distance                       11     9      2    3764
                                             62 BANK0     11     9      2
                          i1___fldiv
                          i1___flmul
                          i1___fltol
                         i1___xxtofl
 ---------------------------------------------------------------------------------
 (6) i1___xxtofl                                          14    10      4     348
                                              0 COMMON    14    10      4
 ---------------------------------------------------------------------------------
 (6) i1___fltol                                           10     6      4     255
                                             52 BANK0     10     6      4
                          i1___fldiv (ARG)
                          i1___flmul (ARG)
                         i1___xxtofl (ARG)
 ---------------------------------------------------------------------------------
 (6) i1___flmul                                           26    18      8    1919
                                              0 BANK0     26    18      8
                        i1__Umul8_16
                         i1___xxtofl (ARG)
 ---------------------------------------------------------------------------------
 (7) i1__Umul8_16                                          9     7      2     349
                                              0 COMMON     9     7      2
 ---------------------------------------------------------------------------------
 (6) i1___fldiv                                           26    18      8    1173
                                             26 BANK0     26    18      8
                          i1___flmul (ARG)
                         i1___xxtofl (ARG)
 ---------------------------------------------------------------------------------
 Estimated maximum stack depth 7
 ---------------------------------------------------------------------------------

 Call Graph Graphs:

 _main (ROOT)
   _Lcd_Init
     _Lcd_Cmd
       _Lcd_Port
     _Lcd_Port
   _setup
     _I2C_Slave_Init
   _ultrasonic_measure_distance
     ___fldiv
       ___flmul (ARG)
         __Umul8_16
         ___xxtofl (ARG)
       ___xxtofl (ARG)
     ___flmul
     ___fltol
       ___fldiv (ARG)
       ___flmul (ARG)
       ___xxtofl (ARG)
     ___xxtofl

 _isr (ROOT)
   i1_ultrasonic_measure_distance
     i1___fldiv
       i1___flmul (ARG)
         i1__Umul8_16
         i1___xxtofl (ARG)
       i1___xxtofl (ARG)
     i1___flmul
     i1___fltol
       i1___fldiv (ARG)
       i1___flmul (ARG)
       i1___xxtofl (ARG)
     i1___xxtofl

 Address spaces:
Name               Size   Autos  Total    Cost      Usage
BANK3               60      B      45       9       71.9%
BITBANK3            60      0       0       8        0.0%
SFR3                 0      0       0       4        0.0%
BITSFR3              0      0       0       4        0.0%
BANK2               60      0       0      11        0.0%
BITBANK2            60      0       0      10        0.0%
SFR2                 0      0       0       5        0.0%
BITSFR2              0      0       0       5        0.0%
BANK1               50     4F      4F       7       98.8%
BITBANK1            50      0       0       6        0.0%
SFR1                 0      0       0       2        0.0%
BITSFR1              0      0       0       2        0.0%
BANK0               50     4E      4F       5       98.8%
BITBANK0            50      0       0       4        0.0%
SFR0                 0      0       0       1        0.0%
BITSFR0              0      0       0       1        0.0%
COMMON               E      E       E       1      100.0%
BITCOMMON            E      0       0       0        0.0%
CODE                 0      0       0       0        0.0%
DATA                 0      0      F1      12        0.0%
ABS                  0      0      F1       3        0.0%
NULL                 0      0       0       0        0.0%
STACK                0      0       0       2        0.0%
EEDATA             100      0       0       0        0.0%


Microchip Technology PIC Macro Assembler V2.40 build 20220703182018 
Symbol Table                                                                                   Wed Aug 30 14:16:56 2023

                               ___fldiv@aexp 00E1                                 ___fldiv@bexp 00E0  
                                          _z 01C2                                 ___fldiv@sign 00D9  
                                i1___fldiv@a 003A                                  i1___fldiv@b 003E  
                                _SSPSTATbits 0094                                           _BF 04A0  
                                         l93 178F                                  i1___flmul@a 0024  
                                i1___flmul@b 0020                                           fsr 0004  
                        __Umul8_16@word_mpld 00A6                                   i1___xxtofl 0AE8  
                                        l110 087F                                          l102 0855  
                                        l103 0858                                          l104 0862  
                                        l105 0865                                          l113 17AF  
                                        l106 086F                                          l107 0872  
                                        l108 087C                                          l125 092D  
                                        l261 08B3                                          l271 06C8  
                                        l274 06CF                                          l268 0849  
                                        l277 0782                                          l712 0E83  
                                        l714 0FFF                                          l810 0C2F  
                                        l802 0C07                                          l556 07E5  
                                        l549 07FA                                          l734 0FE7  
                                        l559 07FA                                          l736 0FF5  
                                        l728 0F75                                          l752 0375  
                                        l809 0C23                                          l771 17ED  
                                        l764 0369                                          l773 17FF  
                                        l758 02E5                                          l796 0BC4  
                                        l798 0C59                                          _GIE 005F  
                                        _RA0 0028                                          _LDC 01BE  
                                        _RA1 0029                                          _RDC 01C0  
                                        _isr 0A36                                          indf 0000  
                               i1___fltol@f1 0054                                 ___flmul@aexp 00C0  
                               ___flmul@bexp 00C1                                 ___flmul@sign 00BB  
                               ___flmul@temp 00C6                                 ___flmul@prod 00C2  
                              i1___fldiv@grs 004E                                i1___fldiv@rem 0047  
                               ___fltol@exp1 00EB                                         l2021 1787  
                                       l2101 0E65                                         l2031 1796  
                                       l2023 1788                                         l2015 1779  
                                       l2111 0E79                                         l2103 0E66  
                                       l2033 179E                                         l2025 1789  
                                       l2017 1785                                         l2201 0FDA  
                                       l2105 0E6B                                         l2113 0E7B  
                                       l2041 078E                                         l2035 17A1  
                                       l2027 178C                                         l2019 1786  
                                       l2211 0FF1                                         l2203 0FDE  
                                       l2131 0EC4                                         l2115 0E8B  
                                       l2123 0EA4                                         l2107 0E70  
                                       l2051 07B3                                         l2037 17AC  
                                       l2029 1793                                         l2205 0FE6  
                                       l2141 0EE3                                         l2133 0ECC  
                                       l2125 0EA9                                         l2117 0E97  
                                       l2109 0E78                                         l2301 029A  
                                       l2221 003A                                         l2061 07C1  
                                       l2053 07B5                                         l2045 0797  
                                       l2207 0FEB                                         l2151 0F15  
                                       l2143 0EF5                                         l2135 0ED4  
                                       l2119 0E9B                                         l2311 02BF  
                                       l2303 02A8                                         l2231 0051  
                                       l2223 003E                                         l2071 07EA  
                                       l2055 07B9                                         l2063 07D3  
                                       l2047 07AA                                         l2039 0783  
                                       l3031 089B                                         l2209 0FEF  
                                       l2161 0F36                                         l2153 0F16  
                                       l2145 0EF9                                         l2137 0EDC  
                                       l2129 0EB2                                         l2081 0E3A  
                                       l2321 02E2                                         l2305 02B1  
                                       l2313 02C5                                         l2241 0068  
                                       l2233 0053                                         l2225 003F  
                                       l2217 0031                                         l2073 07EF  
                                       l2049 07AB                                         l3033 08AE  
                                       l2171 0F4F                                         l2163 0F38  
                                       l2155 0F24                                         l2147 0EFA  
                                       l2139 0EDE                                         l2091 0E4E  
                                       l2083 0E3B                                         l2075 0E2D  
                                       l2331 0301                                         l2315 02C9  
                                       l2307 02B5                                         l2251 007D  
                                       l2243 0069                                         l2235 005B  
                                       l2227 0044                                         l2219 0036  
                                       l3035 08B7                                         l3027 0880  
                                       l2181 0F72                                         l2165 0F41  
                                       l2173 0F55                                         l2149 0F03  
                                       l2157 0F28                                         l2085 0E40  
                                       l2093 0E50                                         l2077 0E32  
                                       l2341 0347                                         l2333 031A  
                                       l2325 02EA                                         l2317 02CA  
                                       l2309 02B6                                         l2261 0098  
                                       l2253 0085                                         l2245 006E  
                                       l2237 0060                                         l2229 0049  
                                       l2069 07DA                                         l3029 088A  
                                       l2191 0F91                                         l2175 0F59  
                                       l2167 0F45                                         l2159 0F2E  
                                       l2095 0E58                                         l2087 0E45  
                                       l2079 0E36                                         l2351 0364  
                                       l2343 0351                                         l2327 02EF  
                                       l2335 0320                                         l2319 02CE  
                                       l2271 0114                                         l2263 00A6  
                                       l2255 008A                                         l2247 0073  
                                       l2239 0064                                         l2193 0FAA  
                                       l2185 0F7A                                         l2177 0F5A  
                                       l2169 0F46                                         l2097 0E5D  
                                       l2089 0E4D                                         l2353 036D  
                                       l2345 0353                                         l2337 032D  
                                       l2329 02FD                                         l2281 0180  
                                       l2273 0130                                         l2265 00B3  
                                       l2257 008F                                         l2249 007B  
                                       l2361 0BAC                                         l2187 0F7F  
                                       l2195 0FB0                                         l2179 0F5E  
                                       l2099 0E61                                         l2347 035F  
                                       l2339 0338                                         l2291 020A  
                                       l2283 018E                                         l2275 014C  
                                       l2267 00CE                                         l2371 0BD8  
                                       l2363 0BBC                                         l2197 0FBD  
                                       l2189 0F8D                                         l2349 0363  
                                       l2293 0218                                         l2285 01AB  
                                       l2277 0155                                         l2269 00EA  
                                       l2381 0C0E                                         l2373 0BE5  
                                       l2365 0BCC                                         l2357 0BA3  
                                       l2199 0FCB                                         l2295 0243  
                                       l2287 01C2                                         l2279 0163  
                                       l2391 0C47                                         l2383 0C19  
                                       l2375 0BEC                                         l2359 0BA8  
                                       l2297 0269                                         l2289 01DF  
                                       l2393 0C4C                                         l2385 0C1D  
                                       l2377 0BF0                                         l2369 0BD5  
                                       l2801 06CC                                         l2299 0291  
                                       l2395 0C50                                         l2387 0C27  
                                       l2379 0BFE                                         l2811 0723  
                                       l2803 06CE                                         l2821 082D  
                                       l2397 0C51                                         l2389 0C31  
                                       l2805 06D3                                         l2831 0834  
                                       l2823 082E                                         l2815 0819  
                                       l2807 06DD                                         l2841 0839  
                                       l2833 0835                                         l2825 082F  
                                       l2817 081D                                         l2809 06E0  
                                       l2771 08EF                                         l2763 08C9  
                                       l2851 083F                                         l2843 083A  
                                       l2835 0836                                         l2827 0830  
                                       l2819 0821                                         l1981 085E  
                                       l2773 0926                                         l2765 08CF  
                                       l2853 0840                                         l2845 083B  
                                       l2837 0837                                         l2829 0831  
                                       l1983 086B                                         l2767 08D9  
                                       l2855 0843                                         l2847 083C  
                                       l2839 0838                                         l1991 17E3  
                                       l1985 0878                                         l1977 084D  
                                       l2769 08E9                                         l2849 083D  
                                       l1993 17E7                                         l1979 0851  
                                       l1995 17F6                                         l1987 17DA  
                                       l2795 06BB                                         l1997 17FB  
                                       l1989 17DC                                         l2797 06BE  
                                       l2799 06C5                                         ?_isr 0070  
                                       u3001 025B                                         u3010 0277  
                                       u3002 0262                                         u3003 0269  
                                       u3100 02E9                                         u3101 02E8  
                                       u3021 0283                                         u2310 0851  
                                       u3110 02EF                                         u3022 028A  
                                       u2311 0850                                         u3111 02EE  
                                       u3023 0291                                         u3015 0272  
                                       u2320 085E                                         u3120 0301  
                                       u2321 085D                                         u3121 0300  
                                       u2330 086B                                         u3130 0310  
                                       u3050 02B5                                         u2410 078E  
                                       u3210 0BEB                                         u2331 086A  
                                       u3051 02B4                                         u3035 0293  
                                       u2411 078D                                         u3211 0BEA  
                                       u2340 0878                                         u3140 032D  
                                       u2500 07EF                                         u2420 07A5  
                                       u3300 0C50                                         u2341 0877  
                                       u3141 032C                                         u3045 02AA  
                                       u2501 07EE                                         u3301 0C4F  
                                       u3205 0BDD                                         u2510 0E3A  
                                       u2350 17E7                                         u3150 0347  
                                       u3070 02C9                                         u2430 07B9  
                                       u3230 0C0D                                         u2511 0E39  
                                       u2351 17E6                                         u3151 0346  
                                       u3135 030B                                         u3071 02C8  
                                       u2431 07B8                                         u3231 0C0C  
                                       u2520 0E40                                         u3160 0363  
                                       u3080 02CE                                         u2440 07C0  
                                       u2521 0E3F                                         u3161 0362  
                                       u3145 0329                                         u3081 02CD  
                                       u3065 02B8                                         u2441 07BF  
                                       u2425 07A0                                         u3225 0BFF  
                                       u2530 0E45                                         u2370 17FB  
                                       u3090 02E2                                         u3250 0C1D  
                                       u3170 0BA8                                         u2531 0E44  
                                       u2371 17FA                                         u3155 0343  
                                       u3091 02E1                                         u3251 0C1C  
                                       u3171 0BA7                                         u2700 0F59  
                                       u2620 0EF9                                         u2540 0E65  
                                       u2460 07D2                                         u3260 0C23  
                                       u3180 0BAC                                         u4220 06CC  
                                       u2701 0F58                                         u2621 0EF8  
                                       u2605 0EE5                                         u2541 0E64  
                                       u2365 17EE                                         u2461 07D1  
                                       u3261 0C22                                         u3245 0C12  
                                       u3181 0BAB                                         u4221 06CB  
                                       u2710 0F5E                                         u2550 0E6B  
                                       u2470 07D9                                         u3270 0C27  
                                       u3190 0BCC                                         u4230 06D3  
                                       u2711 0F5D                                         u2615 0EEE  
                                       u2551 0E6A                                         u2471 07D8  
                                       u2455 07C2                                         u3271 0C26  
                                       u3191 0BCB                                         u4231 06D2  
                                       u2720 0F72                                         u2640 0F15  
                                       u2560 0E70                                         u2800 003E  
                                       u3280 0C3C                                         u2721 0F71  
                                       u2641 0F14                                         u2561 0E6F  
                                       u2801 003D                                         u2730 0F79  
                                       u2650 0F2E                                         u2570 0E8B  
                                       u2810 0044                                         u2490 07EA  
                                       u3290 0C4C                                         u2731 0F78  
                                       u2651 0F2D                                         u2635 0EFC  
                                       u2571 0E8A                                         u2811 0043  
                                       u2491 07E9                                         u3291 0C4B  
                                       u2740 0F7F                                         u2660 0F36  
                                       u2580 0EA9                                         u2820 0049  
                                       u2741 0F7E                                         u2661 0F35  
                                       u2645 0F11                                         u2581 0EA8  
                                       u2901 0122                                         u2821 0048  
                                       u2485 07DC                                         u3285 0C37  
                                       u2750 0F91                                         u2590 0EE3  
                                       u2902 0129                                         u2830 0068  
                                       u2751 0F90                                         u2591 0EE2  
                                       u2911 013E                                         u2903 0130  
                                       u2831 0067                                         u2760 0FA0  
                                       u2680 0F45                                         u2912 0145  
                                       u2840 006E                                         u2681 0F44  
                                       u2913 014C                                         u2841 006D  
                                       u2770 0FBD                                         u2850 0073  
                                       u2771 0FBC                                         u2675 0F3A  
                                       u2931 0172                                         u2851 0072  
                                       _PEIE 005E                                         u2780 0FDA  
                                       u2932 0179                                         u2860 008A  
                                       u4540 08AE                                         u2781 0FD9  
                                       u2765 0F9B                                         u2941 019D  
                                       u2933 0180                                         u2925 014E  
                                       u2861 0089                                         u4541 08AD  
                                       u2790 0FEF                                         u2942 01A4  
                                       u2870 008F                                         u4607 092A  
                                       u2791 0FEE                                         u2775 0FB9  
                                       u2695 0F48                                         u2943 01AB  
                                       u2871 008E                                         u4617 17A7  
                                       u2785 0FD6                                         u2961 01D1  
                                       u2881 00DC                                         u4545 08AA  
                                       u2962 01D8                                         u2882 00E3  
                                       u2971 01FC                                         u2963 01DF  
                                       u2955 01AD                                         u2891 00F8  
                                       u2883 00EA                                         u2972 0203  
                                       u2892 00FF                                         u2981 0227  
                                       u2973 020A                                         u2893 0106  
                                       u4557 08BF                                         u2990 024F  
                                       u2982 022E                                         u2983 0235  
                                       u4567 06C2                                         u4577 08D5  
                                       u4587 08E5                                         u2995 024A  
                                       u4597 08F3                                         _main 0880  
                              i1___flmul@grs 002E                                         _time 01B8  
                                       btemp 007E                                         start 0010  
                            ___fldiv@new_exp 00DA                              __end_of_Lcd_Cmd 17B0  
                                      ??_isr 0069                               i1___fldiv@aexp 0053  
                             i1___fldiv@bexp 0052                               i1___fldiv@sign 004B  
                              ___fltol@sign1 00EA                                        ?_main 0070  
                            __end_of___fldiv 1000                              __end_of___flmul 0376  
                            __end_of___fltol 07FB                                        _ANSEL 0188  
                                      _T1CON 0010                                        i1l250 0ADC  
                                      i1l252 0AD6                                        i1l237 0A50  
                                      i1l246 0AAB                                        i1l238 0A4B  
                                      i1l271 09B3                                        i1l247 0A8E  
                                      i1l255 0ADF                                        i1l239 0A47  
                                      i1l274 09BA                                        i1l277 0A35  
                                      i1l712 0CB0                                        i1l714 0E2C  
                                      i1l810 0B75                                        i1l802 0B4D  
                                      i1l556 0990                                        i1l549 09A5  
                                      i1l734 0E14                                        i1l559 09A5  
                                      i1l736 0E22                                        i1l728 0DA2  
                                      i1l752 06BA                                        i1l809 0B69  
                                      i1l771 17C4                                        i1l764 06AE  
                                      i1l773 17D6                                        i1l758 062A  
                                      i1l796 0B0A                                        i1l798 0B9F  
                                      _TMR1H 000F                                        _TMR1L 000E  
                                      _PORTA 0005                                        _PORTB 0006  
                                      _PORTC 0007                                        _PORTD 0008  
                                      _PORTE 0009                                        _TRISA 0085  
                                      _TRISB 0086                                        _TRISC 0087  
                                      _TRISD 0088                                        _SSPIE 0463  
                                      _TRISE 0089                                        _SSPIF 0063  
                                      _Ultra 01BC                               i1___flmul@aexp 0032  
                             i1___flmul@bexp 0033                               i1___flmul@sign 002D  
                             i1___flmul@temp 0038                               i1___flmul@prod 0034  
                                      _setup 0819                                        pclath 000A  
                             i1___fltol@exp1 005D                                        status 0003  
                                      wtemp0 007E        __end_ofi1_ultrasonic_measure_distance 0A36  
              i1_ultrasonic_measure_distance 09A6                             __end_of_Lcd_Init 092E  
                           __end_of_Lcd_Port 0880  i1ultrasonic_measure_distance@pulse_duration 0065  
  ultrasonic_measure_distance@pulse_duration 01CC                              __initialization 0013  
                               __end_of_main 08C9                                       ??_main 01D0  
                                ?i1___xxtofl 0070                                       ?_setup 0070  
                                     _ANSELH 0189                                       i1l2001 17B1  
                                     i1l2011 17D2                                       i1l2003 17B3  
                                     i1l2005 17BA                                       i1l2007 17BE  
                                     i1l2009 17CD                                       i1l3001 0A70  
                                     i1l3011 0A8D                                       i1l3003 0A71  
                                     i1l3021 0AC5                                       i1l3013 0A94  
                                     i1l3005 0A77                                       i1l3023 0ACE  
                                     i1l3015 0AAF                                       i1l3007 0A7B  
                                     i1l2401 092E                                       i1l3025 0ACF  
                                     i1l3017 0AB3                                       i1l3009 0A8A  
                                     i1l2411 0956                                       i1l2403 0939  
                                     i1l3019 0AC2                                       i1l2501 0D0B  
                                     i1l2413 095E                                       i1l2503 0D10  
                                     i1l2511 0D30                                       i1l2431 0985  
                                     i1l2423 096C                                       i1l2415 0960  
                                     i1l2407 0942                                       i1l2521 0D5B  
                                     i1l2513 0D42                                       i1l2505 0D22  
                                     i1l2441 0C63                                       i1l2601 03A9  
                                     i1l2433 0995                                       i1l2417 0964  
                                     i1l2425 097E                                       i1l2409 0955  
                                     i1l2531 0D73                                       i1l2523 0D63  
                                     i1l2515 0D43                                       i1l2507 0D26  
                                     i1l2451 0C7A                                       i1l2443 0C67  
                                     i1l2611 03C0                                       i1l2603 03AD  
                                     i1l2435 099A                                       i1l2541 0D8B  
                                     i1l2533 0D7C                                       i1l2525 0D65  
                                     i1l2517 0D51                                       i1l2509 0D27  
                                     i1l2461 0C8E                                       i1l2453 0C7B  
                                     i1l2445 0C68                                       i1l2437 0C5A  
                                     i1l2701 067D                                       i1l2613 03C2  
                                     i1l2605 03AE                                       i1l2551 0DBA  
                                     i1l2543 0D9F                                       i1l2527 0D6E  
                                     i1l2535 0D82                                       i1l2519 0D55  
                                     i1l2471 0CA5                                       i1l2463 0C92  
                                     i1l2447 0C6D                                       i1l2455 0C7D  
                                     i1l2439 0C5F                                       i1l2711 06A8  
                                     i1l2703 068C                                       i1l2631 042F  
                                     i1l2623 03DD                                       i1l2615 03CA  
                                     i1l2607 03B3                                       i1l2561 0DF8  
                                     i1l2553 0DBE                                       i1l2537 0D86  
                                     i1l2529 0D72                                       i1l2481 0CC8  
                                     i1l2473 0CA6                                       i1l2465 0C93  
                                     i1l2457 0C85                                       i1l2449 0C72  
                                     i1l2713 06A9                                       i1l2705 0696  
                                     i1l2641 04A8                                       i1l2633 0459  
                                     i1l2625 03EB                                       i1l2617 03CF  
                                     i1l2609 03B8                                       i1l2721 0AEE  
                                     i1l2571 0E1C                                       i1l2563 0E07  
                                     i1l2555 0DD7                                       i1l2547 0DA7  
                                     i1l2539 0D87                                       i1l2491 0CDF  
                                     i1l2467 0C98                                       i1l2475 0CA8  
                                     i1l2459 0C8A                                       i1l2715 06B2  
                                     i1l2707 0698                                       i1l2651 0524  
                                     i1l2643 04C5                                       i1l2635 0475  
                                     i1l2627 03F8                                       i1l2619 03D4  
                                     i1l2731 0B1B                                       i1l2723 0AF2  
                                     i1l2573 0E1E                                       i1l2565 0E0B  
                                     i1l2549 0DAC                                       i1l2557 0DDD  
                                     i1l2493 0CF1                                       i1l2477 0CB8  
                                     i1l2485 0CD1                                       i1l2469 0C9D  
                                     i1l2709 06A4                                       i1l2661 05D6  
                                     i1l2653 054F                                       i1l2645 04D3  
                                     i1l2637 0491                                       i1l2629 0413  
                                     i1l2581 037B                                       i1l2741 0B44  
                                     i1l2733 0B1E                                       i1l2725 0B02  
                                     i1l2567 0E13                                       i1l2559 0DEA  
                                     i1l2495 0CF9                                       i1l2487 0CD6  
                                     i1l2479 0CC4                                       i1l2671 05FB  
                                     i1l2663 05DF                                       i1l2655 055D  
                                     i1l2647 04F0                                       i1l2639 049A  
                                     i1l2591 038E                                       i1l2583 037F  
                                     i1l2751 0B77                                       i1l2743 0B54  
                                     i1l2735 0B2B                                       i1l2727 0B12  
                                     i1l2719 0AE9                                       i1l2569 0E18  
                                     i1l2497 0D01                                       i1l2681 0613  
                                     i1l2673 0604                                       i1l2665 05ED  
                                     i1l2657 0588                                       i1l2649 0507  
                                     i1l2593 0396                                       i1l2585 0383  
                                     i1l2753 0B8D                                       i1l2745 0B5F  
                                     i1l2737 0B32                                       i1l2499 0D09  
                                     i1l2691 0642                                       i1l2683 0627  
                                     i1l2667 05F6                                       i1l2675 060A  
                                     i1l2659 05AE                                       i1l2595 0398  
                                     i1l2587 0384                                       i1l2579 0376  
                                     i1l2755 0B92                                       i1l2747 0B63  
                                     i1l2739 0B36                                       i1l2693 0646  
                                     i1l2677 060E                                       i1l2669 05FA  
                                     i1l2597 03A0                                       i1l2589 0389  
                                     i1l2757 0B96                                       i1l2749 0B6D  
                                     i1l2861 09B0                                       i1l2695 065F  
                                     i1l2687 062F                                       i1l2679 060F  
                                     i1l2599 03A5                                       i1l2759 0B97  
                                     i1l2871 09C3                                       i1l2863 09B7  
                                     i1l2689 0634                                       i1l2697 0665  
                                     i1l2873 09F0                                       i1l2865 09B9  
                                     i1l2857 09A6                                       i1l2699 0672  
                                     i1l2867 09BE                                       i1l2859 09A9  
                                     i1l2869 09C2                                       i1l2991 0A56  
                                     i1l2993 0A5B                                       i1l2985 0A36  
                                     i1l2995 0A5F                                       i1l2987 0A3A  
                                     i1l2997 0A6C                                       i1l2989 0A3E  
                                     i1l2999 0A6F                                       u240_20 17D2  
                                     u400_20 062E                                       u240_21 17D1  
                                     u400_21 062D                                       u401_20 0634  
                                     u401_21 0633                                       u402_20 0646  
                                     u402_21 0645                                       u410_25 0B23  
                                     u403_20 0655                                       u331_20 0939  
                                     u411_20 0B31                                       u331_21 0938  
                                     u411_21 0B30                                       u403_25 0650  
                                     u404_20 0672                                       u340_20 099A  
                                     u332_20 0950                                       u420_20 0B96  
                                     u404_21 0671                                       u340_21 0999  
                                     u420_21 0B95                                       u404_25 066E  
                                     u332_25 094B                                       u412_25 0B45  
                                     u341_20 0C67                                       u405_20 068C  
                                     u333_20 0964                                       u413_20 0B53  
                                     u341_21 0C66                                       u405_21 068B  
                                     u333_21 0963                                       u413_21 0B52  
                                     u405_25 0688                                       u342_20 0C6D  
                                     u238_20 17BE                                       u406_20 06A8  
                                     u334_20 096B                                       u342_21 0C6C  
                                     u238_21 17BD                                       u406_21 06A7  
                                     u334_21 096A                                       u350_25 0D12  
                                     u414_25 0B58                                       u343_20 0C72  
                                     u415_20 0B63                                       u407_20 0AEE  
                                     u343_21 0C71                                       u415_21 0B62  
                                     u407_21 0AED                                       u351_25 0D1B  
                                     u239_25 17C5                                       u335_25 096D  
                                     u360_20 0D86                                       u352_20 0D26  
                                     u344_20 0C92                                       u336_20 097D  
                                     u416_20 0B69                                       u408_20 0AF2  
                                     u424_20 09B7                                       u360_21 0D85  
                                     u352_21 0D25                                       u344_21 0C91  
                                     u336_21 097C                                       u416_21 0B68  
                                     u408_21 0AF1                                       u424_21 09B6  
                                     u361_20 0D8B                                       u345_20 0C98  
                                     u337_20 0984                                       u417_20 0B6D  
                                     u409_20 0B12                                       u425_20 09BE  
                                     u361_21 0D8A                                       u345_21 0C97  
                                     u337_21 0983                                       u417_21 0B6C  
                                     u409_21 0B11                                       u425_21 09BD  
                                     u353_25 0D29                                       u362_20 0D9F  
                                     u354_20 0D42                                       u346_20 0C9D  
                                     u370_20 0383                                       u418_20 0B82  
                                     u450_20 0A94                                       u442_20 0A3A  
                                     u362_21 0D9E                                       u354_21 0D41  
                                     u346_21 0C9C                                       u370_21 0382  
                                     u450_21 0A93                                       u442_21 0A39  
                                     u354_25 0D3E                                       u338_25 0987  
                                     u418_25 0B7D                                       u363_20 0DA6  
                                     u355_20 0D5B                                       u347_20 0CB8  
                                     u371_20 0389                                       u339_20 0995  
                                     u419_20 0B92                                       u451_20 0AAF  
                                     u443_20 0A3E                                       u363_21 0DA5  
                                     u355_21 0D5A                                       u347_21 0CB7  
                                     u371_21 0388                                       u339_21 0994  
                                     u419_21 0B91                                       u451_21 0AAE  
                                     u443_21 0A3D                                       u364_20 0DAC  
                                     u356_20 0D63                                       u348_20 0CD6  
                                     u372_20 038E                                       u452_20 0AB3  
                                     u444_20 0A4B                                       u364_21 0DAB  
                                     u356_21 0D62                                       u348_21 0CD5  
                                     u380_21 0467                                       u372_21 038D  
                                     u452_21 0AB2                                       u444_21 0A4A  
                                     u380_22 046E                                       u380_23 0475  
                                     u365_20 0DBE                                       u349_20 0D10  
                                     u373_20 03AD                                       u453_20 0ADC  
                                     u445_20 0A56                                       u365_21 0DBD  
                                     u349_21 0D0F                                       u381_21 0483  
                                     u373_21 03AC                                       u453_21 0ADB  
                                     u445_21 0A55                                       u381_22 048A  
                                     u381_23 0491                                       u357_25 0D67  
                                     u366_20 0DCD                                       u358_20 0D72  
                                     u374_20 03B3                                       u446_20 0A5B  
                                     u358_21 0D71                                       u390_21 05A0  
                                     u374_21 03B2                                       u446_21 0A5A  
                                     u390_22 05A7                                       u390_23 05AE  
                                     u366_25 0DC8                                       u382_25 0493  
                                     u462_27 0AA7                                       u367_20 0DEA  
                                     u391_20 05BC                                       u375_20 03B8  
                                     u447_20 0A5F                                       u367_21 0DE9  
                                     u383_21 04B7                                       u375_21 03B7  
                                     u447_21 0A5E                                       u383_22 04BE  
                                     u383_23 04C5                                       u367_25 0DE6  
                                     u359_25 0D75                                       u391_25 05B7  
                                     u463_27 0AD3                                       u368_20 0E07  
                                     u376_20 03CF                                       u448_20 0A77  
                                     u368_21 0E06                                       u392_21 05C8  
                                     u384_21 04E2                                       u376_21 03CE  
                                     u448_21 0A76                                       u392_22 05CF  
                                     u384_22 04E9                                       u392_23 05D6  
                                     u384_23 04F0                                       u368_25 0E03  
                                     u464_27 09AD                                       u369_20 0E1C  
                                     u377_20 03D4                                       u449_20 0A7B  
                                     u369_21 0E1B                                       u377_21 03D3  
                                     u449_21 0A7A                                       u393_25 05D8  
                                     u385_25 04F2                                       u386_21 0516  
                                     u378_21 0421                                       u386_22 051D  
                                     u378_22 0428                                       u386_23 0524  
                                     u378_23 042F                                       u394_25 05EF  
                                     u395_20 05FA                                       u395_21 05F9  
                                     u387_21 0541                                       u379_21 043D  
                                     u387_22 0548                                       u379_22 0444  
                                     u387_23 054F                                       u379_23 044B  
                                     u388_21 056C                                       u388_22 0573  
                                     u388_23 057A                                       u396_25 05FD  
                                     u397_20 060E                                       u389_20 0594  
                                     u397_21 060D                                       u389_25 058F  
                                     u398_20 0613                                       u398_21 0612  
                                     u399_20 0627                                       u399_21 0626  
                                  ??_Lcd_Cmd 00A1                                       _SSPADD 0093  
                                     _TRISC3 043B                                       _TRISC4 043C  
                                     _SSPCON 0014                                       _SSPBUF 0013  
                           __end_of___xxtofl 0C5A                                    ??___fldiv 00D0  
                                  ??___flmul 00B6                                    ??___fltol 00E6  
                                     _toggle 01D3                            __end_ofi1___fldiv 0E2D  
                          __end_ofi1___flmul 06BB                            __end_ofi1___fltol 09A6  
                                     saved_w 007E                              i1___fltol@sign1 005C  
                               ___xxtofl@arg 00AA                                 ___xxtofl@exp 00A9  
                               ___xxtofl@val 00A0                      __end_of__initialization 002D  
                                 ___fltol@f1 00E2                                 ?i1__Umul8_16 0070  
                             __pcstackCOMMON 0070                                 __pidataBANK3 07FB  
             ?i1_ultrasonic_measure_distance 005E                 ?_ultrasonic_measure_distance 00EC  
                              __end_of_setup 084A                               _OPTION_REGbits 0081  
                                  ?_Lcd_Init 0070                                    ?_Lcd_Port 0070  
                                    ??_setup 00A1                        I2C_Slave_Init@address 00A0  
                                 __pbssBANK0 006E                                   __pbssBANK3 0190  
                             i1___xxtofl@arg 007A                               i1___xxtofl@exp 0079  
                             i1___xxtofl@val 0070                            __end_of__Umul8_16 1800  
                                 __pmaintext 0880                                   __pintentry 0004  
              ??_ultrasonic_measure_distance 00EE                                    ?___xxtofl 00A0  
                        i1__Umul8_16@product 0074                                   ??_Lcd_Init 00A4  
                                 ??_Lcd_Port 00A0                                      _SSPCON2 0091  
                                    _SSPSTAT 0094                                      _Lcd_Cmd 1790  
                                    ___fldiv 0E2D                                      ___flmul 0031  
                                    ___fltol 0783                                 ??i1___xxtofl 0074  
                                    __ptext1 06BB                                      __ptext2 0BA0  
                                    __ptext3 0783                                      __ptext4 0031  
                                    __ptext5 17D7                                      __ptext6 0E2D  
                                    __ptext7 0819                                      __ptext8 1776  
                                    __ptext9 08C9                                    _T1CONbits 0010  
                                 ??___xxtofl 00A4                                      _receive 006E  
                                    clrloop0 0812                         end_of_initialization 002D  
                         __end_ofi1___xxtofl 0BA0                               _I2C_Slave_Init 1776  
                                  Lcd_Port@a 00A0                        i1__Umul8_16@word_mpld 0076  
                                  _PORTBbits 0006                                    _PORTDbits 0008  
                              ___xxtofl@sign 00A8                                    _TRISCbits 0087  
                                  i1___fldiv 0C5A                                    i1___flmul 0376  
                                ___fldiv@grs 00DC                                    i1___fltol 092E  
                                ___fldiv@rem 00D5                                  ___flmul@grs 00BC  
                     __end_of_I2C_Slave_Init 1790                                   _writeInLCD 0190  
                        start_initialization 0013                                   ?i1___fldiv 003A  
                                __end_of_isr 0AE8                                   ?i1___flmul 0020  
                                 ?i1___fltol 0054                              ?_I2C_Slave_Init 0070  
                                  __Umul8_16 17D7                                  __pdataBANK3 01D3  
                                  ___fldiv@a 00C8                                    ___fldiv@b 00CC  
                                  ___flmul@a 00B2                                    ___flmul@b 00AE  
                                  ___latbits 0002                                __pcstackBANK0 0020  
                              __pcstackBANK1 00A0                                __pcstackBANK3 01C8  
                            i1___xxtofl@sign 0078                                     ?_Lcd_Cmd 0070  
                          i1___fldiv@new_exp 004C                     i1__Umul8_16@multiplicand 0070  
                                   ?___fldiv 00C8                                     ?___flmul 00AE  
                                   ?___fltol 00E2                                   ?__Umul8_16 00A0  
                                  _distanceF 01C6                                  ??i1___fldiv 0042  
                                ??i1___flmul 0028                                  ??i1___fltol 0058  
                          interrupt_function 0004                                     _IOCBbits 0096  
                                  clear_ram0 0811                                     Lcd_Cmd@a 00A3  
                                   _PIR1bits 000C          __end_of_ultrasonic_measure_distance 0783  
                _ultrasonic_measure_distance 06BB                                  _distanceLCD 01A4  
                                   _WPUBbits 0095                                     _Lcd_Init 08C9  
                                   _Lcd_Port 084A                                ??i1__Umul8_16 0072  
                                ??__Umul8_16 00A2                                     ___xxtofl 0BA0  
                                   __ptext10 1790                                     __ptext11 084A  
                                   __ptext12 0A36                                     __ptext13 09A6  
                                   __ptext14 0AE8                                     __ptext15 092E  
                                   __ptext16 0376                                     __ptext17 17B0  
                                   __ptext18 0C5A                             ??_I2C_Slave_Init 00A0  
                                   _received 01C4                          __end_ofi1__Umul8_16 17D7  
                                 _INTCONbits 000B                                     intlevel1 0000  
                     i1__Umul8_16@multiplier 0078        i1ultrasonic_measure_distance@distance 0067  
        ultrasonic_measure_distance@distance 01CE                                   _OSCCONbits 008F  
                     __Umul8_16@multiplicand 00A0                                  _SSPCON2bits 0091  
            ??i1_ultrasonic_measure_distance 0060             _ultrasonic_measure_distance$1310 01C8  
         i1_ultrasonic_measure_distance$1400 0061                         __Umul8_16@multiplier 00A8  
                                 _SSPCONbits 0014                                  i1__Umul8_16 17B0  
                          __Umul8_16@product 00A4  
