

Microchip MPLAB XC8 Assembler V2.40 build 20220703182018 
                                                                                               Fri Mar 24 19:44:22 2023

Microchip MPLAB XC8 C Compiler v2.40 (Free license) build 20220703182018 Og1 
     1                           	processor	16F887
     2                           	pagewidth 120
     3                           	opt	flic
     4                           	psect	idataBANK0,global,class=CODE,delta=2,noexec
     5                           	psect	strings,global,class=STRING,delta=2,noexec
     6                           	psect	cinit,global,class=CODE,merge=1,delta=2
     7                           	psect	bssBANK0,global,class=BANK0,space=1,delta=1,noexec
     8                           	psect	dataBANK0,global,class=BANK0,space=1,delta=1,noexec
     9                           	psect	cstackBANK1,global,class=BANK1,space=1,delta=1,noexec
    10                           	psect	cstackCOMMON,global,class=COMMON,space=1,delta=1,noexec
    11                           	psect	cstackBANK0,global,class=BANK0,space=1,delta=1,noexec
    12                           	psect	maintext,global,class=CODE,split=1,delta=2
    13                           	psect	text1,local,class=CODE,merge=1,delta=2
    14                           	psect	text2,local,class=CODE,merge=1,delta=2
    15                           	psect	intentry,global,class=CODE,delta=2
    16                           	psect	text3,local,class=CODE,merge=1,delta=2
    17                           	psect	text4,local,class=CODE,merge=1,delta=2
    18                           	psect	text5,local,class=CODE,merge=1,delta=2,group=1
    19                           	psect	text6,local,class=CODE,merge=1,delta=2,group=1
    20                           	psect	text7,local,class=CODE,merge=1,delta=2,group=1
    21                           	psect	text8,local,class=CODE,merge=1,delta=2,group=1
    22                           	psect	text9,local,class=CODE,merge=1,delta=2,group=1
    23                           	psect	text10,local,class=CODE,merge=1,delta=2,group=1
    24                           	psect	text11,local,class=CODE,merge=1,delta=2,group=1
    25                           	psect	text12,local,class=CODE,merge=1,delta=2,group=1
    26                           	psect	idloc,global,abs,ovrld,class=IDLOC,space=5,delta=2,noexec
    27                           	psect	config,global,abs,ovrld,class=CONFIG,space=4,delta=2,noexec
    28                           	dabs	1,0x7E,2
    29     0000                     
    30                           ; Version 2.40
    31                           ; Generated 17/11/2021 GMT
    32                           ; 
    33                           ; Copyright © 2021, Microchip Technology Inc. and its subsidiaries ("Microchip")
    34                           ; All rights reserved.
    35                           ; 
    36                           ; This software is developed by Microchip Technology Inc. and its subsidiaries ("Microch
      +                          ip").
    37                           ; 
    38                           ; Redistribution and use in source and binary forms, with or without modification, are
    39                           ; permitted provided that the following conditions are met:
    40                           ; 
    41                           ;     1. Redistributions of source code must retain the above copyright notice, this lis
      +                          t of
    42                           ;        conditions and the following disclaimer.
    43                           ; 
    44                           ;     2. Redistributions in binary form must reproduce the above copyright notice, this 
      +                          list
    45                           ;        of conditions and the following disclaimer in the documentation and/or other
    46                           ;        materials provided with the distribution. Publication is not required when
    47                           ;        this file is used in an embedded application.
    48                           ; 
    49                           ;     3. Microchip's name may not be used to endorse or promote products derived from th
      +                          is
    50                           ;        software without specific prior written permission.
    51                           ; 
    52                           ; THIS SOFTWARE IS PROVIDED BY MICROCHIP "AS IS" AND ANY EXPRESS OR IMPLIED WARRANTIES,
    53                           ; INCLUDING, BUT NOT LIMITED TO, THE IMPLIED WARRANTIES OF MERCHANTABILITY AND FITNESS F
      +                          OR
    54                           ; PURPOSE ARE DISCLAIMED.  IN NO EVENT SHALL MICROCHIP BE LIABLE FOR ANY DIRECT, INDIREC
      +                          T,
    55                           ; INCIDENTAL, SPECIAL, EXEMPLARY, OR CONSEQUENTIAL DAMAGES (INCLUDING BUT NOT LIMITED TO
    56                           ; PROCUREMENT OF SUBSTITUTE GOODS OR SERVICES; LOSS OF USE, DATA OR PROFITS; OR BUSINESS
    57                           ; INTERRUPTION) HOWSOEVER CAUSED AND ON ANY THEORY OF LIABILITY, WHETHER IN CONTRACT, ST
      +                          RICT
    58                           ; LIABILITY, OR TORT (INCLUDING NEGLIGENCE OR OTHERWISE) ARISING IN ANY WAY OUT OF THE U
      +                          SE OF
    59                           ; THIS SOFTWARE, EVEN IF ADVISED OF THE POSSIBILITY OF SUCH DAMAGE.
    60                           ; 
    61                           ; 
    62                           ; Code-generator required, PIC16F887 Definitions
    63                           ; 
    64                           ; SFR Addresses
    65     0000                     	;# 
    66     0001                     	;# 
    67     0002                     	;# 
    68     0003                     	;# 
    69     0004                     	;# 
    70     0005                     	;# 
    71     0006                     	;# 
    72     0007                     	;# 
    73     0008                     	;# 
    74     0009                     	;# 
    75     000A                     	;# 
    76     000B                     	;# 
    77     000C                     	;# 
    78     000D                     	;# 
    79     000E                     	;# 
    80     000E                     	;# 
    81     000F                     	;# 
    82     0010                     	;# 
    83     0011                     	;# 
    84     0012                     	;# 
    85     0013                     	;# 
    86     0014                     	;# 
    87     0015                     	;# 
    88     0015                     	;# 
    89     0016                     	;# 
    90     0017                     	;# 
    91     0018                     	;# 
    92     0019                     	;# 
    93     001A                     	;# 
    94     001B                     	;# 
    95     001B                     	;# 
    96     001C                     	;# 
    97     001D                     	;# 
    98     001E                     	;# 
    99     001F                     	;# 
   100     0081                     	;# 
   101     0085                     	;# 
   102     0086                     	;# 
   103     0087                     	;# 
   104     0088                     	;# 
   105     0089                     	;# 
   106     008C                     	;# 
   107     008D                     	;# 
   108     008E                     	;# 
   109     008F                     	;# 
   110     0090                     	;# 
   111     0091                     	;# 
   112     0092                     	;# 
   113     0093                     	;# 
   114     0093                     	;# 
   115     0093                     	;# 
   116     0094                     	;# 
   117     0095                     	;# 
   118     0096                     	;# 
   119     0097                     	;# 
   120     0098                     	;# 
   121     0099                     	;# 
   122     009A                     	;# 
   123     009B                     	;# 
   124     009C                     	;# 
   125     009D                     	;# 
   126     009E                     	;# 
   127     009F                     	;# 
   128     0105                     	;# 
   129     0107                     	;# 
   130     0108                     	;# 
   131     0109                     	;# 
   132     010C                     	;# 
   133     010C                     	;# 
   134     010D                     	;# 
   135     010E                     	;# 
   136     010F                     	;# 
   137     0185                     	;# 
   138     0187                     	;# 
   139     0188                     	;# 
   140     0189                     	;# 
   141     018C                     	;# 
   142     018D                     	;# 
   143     0000                     	;# 
   144     0001                     	;# 
   145     0002                     	;# 
   146     0003                     	;# 
   147     0004                     	;# 
   148     0005                     	;# 
   149     0006                     	;# 
   150     0007                     	;# 
   151     0008                     	;# 
   152     0009                     	;# 
   153     000A                     	;# 
   154     000B                     	;# 
   155     000C                     	;# 
   156     000D                     	;# 
   157     000E                     	;# 
   158     000E                     	;# 
   159     000F                     	;# 
   160     0010                     	;# 
   161     0011                     	;# 
   162     0012                     	;# 
   163     0013                     	;# 
   164     0014                     	;# 
   165     0015                     	;# 
   166     0015                     	;# 
   167     0016                     	;# 
   168     0017                     	;# 
   169     0018                     	;# 
   170     0019                     	;# 
   171     001A                     	;# 
   172     001B                     	;# 
   173     001B                     	;# 
   174     001C                     	;# 
   175     001D                     	;# 
   176     001E                     	;# 
   177     001F                     	;# 
   178     0081                     	;# 
   179     0085                     	;# 
   180     0086                     	;# 
   181     0087                     	;# 
   182     0088                     	;# 
   183     0089                     	;# 
   184     008C                     	;# 
   185     008D                     	;# 
   186     008E                     	;# 
   187     008F                     	;# 
   188     0090                     	;# 
   189     0091                     	;# 
   190     0092                     	;# 
   191     0093                     	;# 
   192     0093                     	;# 
   193     0093                     	;# 
   194     0094                     	;# 
   195     0095                     	;# 
   196     0096                     	;# 
   197     0097                     	;# 
   198     0098                     	;# 
   199     0099                     	;# 
   200     009A                     	;# 
   201     009B                     	;# 
   202     009C                     	;# 
   203     009D                     	;# 
   204     009E                     	;# 
   205     009F                     	;# 
   206     0105                     	;# 
   207     0107                     	;# 
   208     0108                     	;# 
   209     0109                     	;# 
   210     010C                     	;# 
   211     010C                     	;# 
   212     010D                     	;# 
   213     010E                     	;# 
   214     010F                     	;# 
   215     0185                     	;# 
   216     0187                     	;# 
   217     0188                     	;# 
   218     0189                     	;# 
   219     018C                     	;# 
   220     018D                     	;# 
   221                           
   222                           	psect	idataBANK0
   223     07ED                     __pidataBANK0:
   224                           
   225                           ;initializer for _pHundreds
   226     07ED  3466               	retlw	low (_hundreds| 0)
   227                           
   228                           ;initializer for _pTens
   229     07EE  3468               	retlw	low (_tens| 0)
   230                           
   231                           ;initializer for _pUnit
   232     07EF  346A               	retlw	low (_unit| 0)
   233                           
   234                           	psect	strings
   235     0800                     __pstrings:
   236     0800                     stringtab:
   237     0800                     __stringtab:
   238     0800                     stringcode:	
   239                           ;	String table - string pointers are 1 byte each
   240                           
   241     0800                     stringdir:
   242     0800  3008               	movlw	high stringdir
   243     0801  008A               	movwf	10
   244     0802  0804               	movf	4,w
   245     0803  0A84               	incf	4,f
   246     0804  0782               	addwf	2,f
   247     0805                     __stringbase:
   248     0805  3400               	retlw	0
   249     0806                     __end_of__stringtab:
   250     0806                     _table_display:
   251     0806  3440               	retlw	64
   252     0807  3400               	retlw	0
   253     0808  3479               	retlw	121
   254     0809  3400               	retlw	0
   255     080A  3424               	retlw	36
   256     080B  3400               	retlw	0
   257     080C  3430               	retlw	48
   258     080D  3400               	retlw	0
   259     080E  3419               	retlw	25
   260     080F  3400               	retlw	0
   261     0810  3412               	retlw	18
   262     0811  3400               	retlw	0
   263     0812  3402               	retlw	2
   264     0813  3400               	retlw	0
   265     0814  3478               	retlw	120
   266     0815  3400               	retlw	0
   267     0816  3400               	retlw	0
   268     0817  3400               	retlw	0
   269     0818  3410               	retlw	16
   270     0819  3400               	retlw	0
   271     081A  3408               	retlw	8
   272     081B  3400               	retlw	0
   273     081C  3403               	retlw	3
   274     081D  3400               	retlw	0
   275     081E  3446               	retlw	70
   276     081F  3400               	retlw	0
   277     0820  3421               	retlw	33
   278     0821  3400               	retlw	0
   279     0822  3406               	retlw	6
   280     0823  3400               	retlw	0
   281     0824  340E               	retlw	14
   282     0825  3400               	retlw	0
   283     0826                     __end_of_table_display:
   284     000B                     _INTCONbits	set	11
   285     0001                     _TMR0	set	1
   286     0007                     _PORTC	set	7
   287     001E                     _ADRESH	set	30
   288     001F                     _ADCON0bits	set	31
   289     0008                     _PORTD	set	8
   290     0006                     _PORTB	set	6
   291     0066                     _ADIF	set	102
   292     005A                     _T0IF	set	90
   293     009F                     _ADCON1bits	set	159
   294     0085                     _TRISAbits	set	133
   295     0081                     _OPTION_REGbits	set	129
   296     008F                     _OSCCONbits	set	143
   297     0088                     _TRISD	set	136
   298     0087                     _TRISC	set	135
   299     0086                     _TRISB	set	134
   300     009E                     _ADRESL	set	158
   301     0188                     _ANSELbits	set	392
   302     0189                     _ANSELH	set	393
   303     0188                     _ANSEL	set	392
   304                           
   305                           	psect	cinit
   306     0015                     start_initialization:	
   307                           ; #config settings
   308                           
   309     0015                     __initialization:
   310                           
   311                           ; Initialize objects allocated to BANK0
   312     0015  120A  118A  27ED  120A  118A  	fcall	__pidataBANK0	;fetch initializer
   313     001A  00EC               	movwf	__pdataBANK0& (0+127)
   314     001B  120A  118A  27EE  120A  118A  	fcall	__pidataBANK0+1	;fetch initializer
   315     0020  00ED               	movwf	(__pdataBANK0+1)& (0+127)
   316     0021  120A  118A  27EF  120A  118A  	fcall	__pidataBANK0+2	;fetch initializer
   317     0026  00EE               	movwf	(__pdataBANK0+2)& (0+127)
   318                           
   319                           ; Clear objects allocated to BANK0
   320     0027  01E0               	clrf	__pbssBANK0& (0+127)
   321     0028  01E1               	clrf	(__pbssBANK0+1)& (0+127)
   322     0029  01E2               	clrf	(__pbssBANK0+2)& (0+127)
   323     002A  01E3               	clrf	(__pbssBANK0+3)& (0+127)
   324     002B  01E4               	clrf	(__pbssBANK0+4)& (0+127)
   325     002C  01E5               	clrf	(__pbssBANK0+5)& (0+127)
   326     002D  01E6               	clrf	(__pbssBANK0+6)& (0+127)
   327     002E  01E7               	clrf	(__pbssBANK0+7)& (0+127)
   328     002F  01E8               	clrf	(__pbssBANK0+8)& (0+127)
   329     0030  01E9               	clrf	(__pbssBANK0+9)& (0+127)
   330     0031  01EA               	clrf	(__pbssBANK0+10)& (0+127)
   331     0032  01EB               	clrf	(__pbssBANK0+11)& (0+127)
   332     0033                     end_of_initialization:	
   333                           ;End of C runtime variable initialization code
   334                           
   335     0033                     __end_of__initialization:
   336     0033  0183               	clrf	3
   337     0034  120A  158A  2C6A   	ljmp	_main	;jump to C main() function
   338                           
   339                           	psect	bssBANK0
   340     0060                     __pbssBANK0:
   341     0060                     _adc2:
   342     0060                     	ds	2
   343     0062                     _adc1:
   344     0062                     	ds	2
   345     0064                     _value_display:
   346     0064                     	ds	2
   347     0066                     _hundreds:
   348     0066                     	ds	2
   349     0068                     _tens:
   350     0068                     	ds	2
   351     006A                     _unit:
   352     006A                     	ds	2
   353                           
   354                           	psect	dataBANK0
   355     006C                     __pdataBANK0:
   356     006C                     _pHundreds:
   357     006C                     	ds	1
   358     006D                     _pTens:
   359     006D                     	ds	1
   360     006E                     _pUnit:
   361     006E                     	ds	1
   362                           
   363                           	psect	cstackBANK1
   364     00A0                     __pcstackBANK1:
   365     00A0                     ??_setup:
   366                           
   367                           ; 1 bytes @ 0x0
   368     00A0                     	ds	2
   369     00A2                     ??_main:
   370                           
   371                           ; 1 bytes @ 0x2
   372     00A2                     	ds	2
   373                           
   374                           	psect	cstackCOMMON
   375     0070                     __pcstackCOMMON:
   376     0070                     ?_table:
   377     0070                     ?_setup:	
   378                           ; 1 bytes @ 0x0
   379                           
   380     0070                     ?_isr:	
   381                           ; 1 bytes @ 0x0
   382                           
   383     0070                     ?_main:	
   384                           ; 1 bytes @ 0x0
   385                           
   386     0070                     ?__Umul8_16:	
   387                           ; 1 bytes @ 0x0
   388                           
   389     0070                     ?___wmul:	
   390                           ; 2 bytes @ 0x0
   391                           
   392     0070                     ?___fladd:	
   393                           ; 2 bytes @ 0x0
   394                           
   395     0070                     ?___fldiv:	
   396                           ; 4 bytes @ 0x0
   397                           
   398     0070                     __Umul8_16@multiplicand:	
   399                           ; 4 bytes @ 0x0
   400                           
   401     0070                     table@digit:	
   402                           ; 1 bytes @ 0x0
   403                           
   404     0070                     ___wmul@multiplier:	
   405                           ; 2 bytes @ 0x0
   406                           
   407     0070                     ___fladd@b:	
   408                           ; 2 bytes @ 0x0
   409                           
   410     0070                     ___fldiv@a:	
   411                           ; 4 bytes @ 0x0
   412                           
   413                           
   414                           ; 4 bytes @ 0x0
   415     0070                     	ds	2
   416     0072                     ??_table:
   417     0072                     ??__Umul8_16:	
   418                           ; 1 bytes @ 0x2
   419                           
   420     0072                     ___wmul@multiplicand:	
   421                           ; 1 bytes @ 0x2
   422                           
   423                           
   424                           ; 2 bytes @ 0x2
   425     0072                     	ds	2
   426     0074                     ??___wmul:
   427     0074                     ___wmul@product:	
   428                           ; 1 bytes @ 0x4
   429                           
   430     0074                     __Umul8_16@product:	
   431                           ; 2 bytes @ 0x4
   432                           
   433     0074                     ___fladd@a:	
   434                           ; 2 bytes @ 0x4
   435                           
   436     0074                     ___fldiv@b:	
   437                           ; 4 bytes @ 0x4
   438                           
   439                           
   440                           ; 4 bytes @ 0x4
   441     0074                     	ds	2
   442     0076                     __Umul8_16@word_mpld:
   443                           
   444                           ; 2 bytes @ 0x6
   445     0076                     	ds	2
   446     0078                     ??___fldiv:
   447     0078                     ___fladd@signs:	
   448                           ; 1 bytes @ 0x8
   449                           
   450     0078                     __Umul8_16@multiplier:	
   451                           ; 1 bytes @ 0x8
   452                           
   453                           
   454                           ; 1 bytes @ 0x8
   455     0078                     	ds	1
   456     0079                     ___fladd@aexp:
   457                           
   458                           ; 1 bytes @ 0x9
   459     0079                     	ds	1
   460     007A                     ___fladd@bexp:
   461                           
   462                           ; 1 bytes @ 0xA
   463     007A                     	ds	1
   464     007B                     ___fladd@grs:
   465                           
   466                           ; 1 bytes @ 0xB
   467     007B                     	ds	1
   468     007C                     ??___flsub:
   469                           
   470                           ; 1 bytes @ 0xC
   471     007C                     	ds	1
   472     007D                     ??_getDigits:
   473                           
   474                           	psect	cstackBANK0
   475     0020                     __pcstackBANK0:	
   476                           ; 1 bytes @ 0xD
   477                           
   478     0020                     ??___fladd:
   479     0020                     ___fldiv@rem:	
   480                           ; 1 bytes @ 0x0
   481                           
   482                           
   483                           ; 4 bytes @ 0x0
   484     0020                     	ds	4
   485     0024                     ___fldiv@sign:
   486                           
   487                           ; 1 bytes @ 0x4
   488     0024                     	ds	1
   489     0025                     ___fldiv@new_exp:
   490                           
   491                           ; 2 bytes @ 0x5
   492     0025                     	ds	2
   493     0027                     ___fldiv@grs:
   494                           
   495                           ; 4 bytes @ 0x7
   496     0027                     	ds	1
   497     0028                     ?___xxtofl:
   498     0028                     ___xxtofl@val:	
   499                           ; 4 bytes @ 0x8
   500                           
   501                           
   502                           ; 4 bytes @ 0x8
   503     0028                     	ds	3
   504     002B                     ___fldiv@bexp:
   505                           
   506                           ; 1 bytes @ 0xB
   507     002B                     	ds	1
   508     002C                     ??___xxtofl:
   509     002C                     ___fldiv@aexp:	
   510                           ; 1 bytes @ 0xC
   511                           
   512                           
   513                           ; 1 bytes @ 0xC
   514     002C                     	ds	4
   515     0030                     ___xxtofl@sign:
   516                           
   517                           ; 1 bytes @ 0x10
   518     0030                     	ds	1
   519     0031                     ___xxtofl@exp:
   520                           
   521                           ; 1 bytes @ 0x11
   522     0031                     	ds	1
   523     0032                     ___xxtofl@arg:
   524                           
   525                           ; 4 bytes @ 0x12
   526     0032                     	ds	4
   527     0036                     ?___flsub:
   528     0036                     ?___flmul:	
   529                           ; 4 bytes @ 0x16
   530                           
   531     0036                     ___flsub@a:	
   532                           ; 4 bytes @ 0x16
   533                           
   534     0036                     ___flmul@b:	
   535                           ; 4 bytes @ 0x16
   536                           
   537                           
   538                           ; 4 bytes @ 0x16
   539     0036                     	ds	4
   540     003A                     ___flsub@b:
   541     003A                     ___flmul@a:	
   542                           ; 4 bytes @ 0x1A
   543                           
   544                           
   545                           ; 4 bytes @ 0x1A
   546     003A                     	ds	4
   547     003E                     ??___flmul:
   548     003E                     ?___fltol:	
   549                           ; 1 bytes @ 0x1E
   550                           
   551     003E                     ___fltol@f1:	
   552                           ; 4 bytes @ 0x1E
   553                           
   554                           
   555                           ; 4 bytes @ 0x1E
   556     003E                     	ds	4
   557     0042                     ??___fltol:
   558                           
   559                           ; 1 bytes @ 0x22
   560     0042                     	ds	1
   561     0043                     ___flmul@sign:
   562                           
   563                           ; 1 bytes @ 0x23
   564     0043                     	ds	1
   565     0044                     ___flmul@grs:
   566                           
   567                           ; 4 bytes @ 0x24
   568     0044                     	ds	2
   569     0046                     ___fltol@sign1:
   570                           
   571                           ; 1 bytes @ 0x26
   572     0046                     	ds	1
   573     0047                     ___fltol@exp1:
   574                           
   575                           ; 1 bytes @ 0x27
   576     0047                     	ds	1
   577     0048                     ___flmul@aexp:
   578                           
   579                           ; 1 bytes @ 0x28
   580     0048                     	ds	1
   581     0049                     ___flmul@bexp:
   582                           
   583                           ; 1 bytes @ 0x29
   584     0049                     	ds	1
   585     004A                     ___flmul@prod:
   586                           
   587                           ; 4 bytes @ 0x2A
   588     004A                     	ds	4
   589     004E                     ___flmul@temp:
   590                           
   591                           ; 2 bytes @ 0x2E
   592     004E                     	ds	2
   593     0050                     ?_getDigits:
   594     0050                     getDigits@num:	
   595                           ; 1 bytes @ 0x30
   596                           
   597                           
   598                           ; 2 bytes @ 0x30
   599     0050                     	ds	2
   600     0052                     _getDigits$901:
   601                           
   602                           ; 4 bytes @ 0x32
   603     0052                     	ds	4
   604     0056                     getDigits@num2:
   605                           
   606                           ; 4 bytes @ 0x36
   607     0056                     	ds	4
   608     005A                     ??_isr:
   609                           
   610                           ; 1 bytes @ 0x3A
   611     005A                     	ds	6
   612                           
   613                           	psect	maintext
   614     0C6A                     __pmaintext:	
   615 ;;
   616 ;;Main: autosize = 0, tempsize = 2, incstack = 0, save=0
   617 ;;
   618 ;; *************** function _main *****************
   619 ;; Defined at:
   620 ;;		line 84 in file "main.c"
   621 ;; Parameters:    Size  Location     Type
   622 ;;		None
   623 ;; Auto vars:     Size  Location     Type
   624 ;;		None
   625 ;; Return value:  Size  Location     Type
   626 ;;                  1    wreg      void 
   627 ;; Registers used:
   628 ;;		wreg, status,2, status,0, pclath, cstack
   629 ;; Tracked objects:
   630 ;;		On entry : B00/0
   631 ;;		On exit  : 0/0
   632 ;;		Unchanged: 0/0
   633 ;; Data sizes:     COMMON   BANK0   BANK1   BANK3   BANK2
   634 ;;      Params:         0       0       0       0       0
   635 ;;      Locals:         0       0       0       0       0
   636 ;;      Temps:          0       0       2       0       0
   637 ;;      Totals:         0       0       2       0       0
   638 ;;Total ram usage:        2 bytes
   639 ;; Hardware stack levels required when called: 5
   640 ;; This function calls:
   641 ;;		_setup
   642 ;; This function is called by:
   643 ;;		Startup code after reset
   644 ;; This function uses a non-reentrant model
   645 ;;
   646                           
   647     0C6A                     _main:	
   648                           ;psect for function _main
   649                           
   650     0C6A                     l2087:	
   651                           ;incstack = 0
   652                           ; Regs used in _main: [wreg+status,2+status,0+pclath+cstack]
   653                           
   654                           
   655                           ;main.c: 86:     setup();
   656     0C6A  120A  158A  241F  120A  158A  	fcall	_setup
   657     0C6F                     l2089:
   658                           
   659                           ;main.c: 90:     ADCON0bits.CHS = 0;
   660     0C6F  30C3               	movlw	-61
   661     0C70  1283               	bcf	3,5	;RP0=0, select bank0
   662     0C71  1303               	bcf	3,6	;RP1=0, select bank0
   663     0C72  059F               	andwf	31,f	;volatile
   664     0C73                     l2091:
   665                           
   666                           ;main.c: 91:     ADCON0bits.GO = 1;
   667     0C73  149F               	bsf	31,1	;volatile
   668     0C74                     l80:	
   669                           ;main.c: 92:     while(ADCON0bits.GO);
   670                           
   671     0C74  189F               	btfsc	31,1	;volatile
   672     0C75  2C77               	goto	u2931
   673     0C76  2C78               	goto	u2930
   674     0C77                     u2931:
   675     0C77  2C74               	goto	l80
   676     0C78                     u2930:
   677     0C78                     l2093:
   678                           
   679                           ;main.c: 93:     adc1 = (ADRESH << 8) | ADRESL;
   680     0C78  081E               	movf	30,w	;volatile
   681     0C79  00E3               	movwf	_adc1+1
   682     0C7A  1683               	bsf	3,5	;RP0=1, select bank1
   683     0C7B  1303               	bcf	3,6	;RP1=0, select bank1
   684     0C7C  081E               	movf	30,w	;volatile
   685     0C7D  1283               	bcf	3,5	;RP0=0, select bank0
   686     0C7E  1303               	bcf	3,6	;RP1=0, select bank0
   687     0C7F  00E2               	movwf	_adc1
   688                           
   689                           ;main.c: 94:     PORTC = (char)(adc1 >> 2);
   690     0C80  0863               	movf	_adc1+1,w
   691     0C81  1683               	bsf	3,5	;RP0=1, select bank1
   692     0C82  1303               	bcf	3,6	;RP1=0, select bank1
   693     0C83  00A3               	movwf	(??_main^(0+128)+1)
   694     0C84  1283               	bcf	3,5	;RP0=0, select bank0
   695     0C85  1303               	bcf	3,6	;RP1=0, select bank0
   696     0C86  0862               	movf	_adc1,w
   697     0C87  1683               	bsf	3,5	;RP0=1, select bank1
   698     0C88  1303               	bcf	3,6	;RP1=0, select bank1
   699     0C89  00A2               	movwf	??_main^(0+128)
   700     0C8A  0D23               	rlf	(??_main^(0+128)+1),w
   701     0C8B  0CA3               	rrf	(??_main^(0+128)+1),f
   702     0C8C  0CA2               	rrf	??_main^(0+128),f
   703     0C8D  0D23               	rlf	(??_main^(0+128)+1),w
   704     0C8E  0CA3               	rrf	(??_main^(0+128)+1),f
   705     0C8F  0CA2               	rrf	??_main^(0+128),f
   706     0C90  0822               	movf	??_main^(0+128),w
   707     0C91  1283               	bcf	3,5	;RP0=0, select bank0
   708     0C92  1303               	bcf	3,6	;RP1=0, select bank0
   709     0C93  0087               	movwf	7	;volatile
   710                           
   711                           ;main.c: 95:     _delay((unsigned long)((10)*(8000000/4000.0)));
   712     0C94  301A               	movlw	26
   713     0C95  1683               	bsf	3,5	;RP0=1, select bank1
   714     0C96  1303               	bcf	3,6	;RP1=0, select bank1
   715     0C97  00A3               	movwf	(??_main^(0+128)+1)
   716     0C98  30F7               	movlw	247
   717     0C99  00A2               	movwf	??_main^(0+128)
   718     0C9A                     u2957:
   719     0C9A  0BA2               	decfsz	??_main^(0+128),f
   720     0C9B  2C9A               	goto	u2957
   721     0C9C  0BA3               	decfsz	(??_main^(0+128)+1),f
   722     0C9D  2C9A               	goto	u2957
   723     0C9E  2C9F               	nop2
   724     0C9F                     l2095:
   725                           
   726                           ;main.c: 98:     ADCON0bits.CHS = 4;
   727     0C9F  1283               	bcf	3,5	;RP0=0, select bank0
   728     0CA0  1303               	bcf	3,6	;RP1=0, select bank0
   729     0CA1  081F               	movf	31,w	;volatile
   730     0CA2  39C3               	andlw	-61
   731     0CA3  3810               	iorlw	16
   732     0CA4  009F               	movwf	31	;volatile
   733     0CA5                     l2097:
   734                           
   735                           ;main.c: 99:     ADCON0bits.GO = 1;
   736     0CA5  149F               	bsf	31,1	;volatile
   737     0CA6                     l83:	
   738                           ;main.c: 100:     while(ADCON0bits.GO);
   739                           
   740     0CA6  189F               	btfsc	31,1	;volatile
   741     0CA7  2CA9               	goto	u2941
   742     0CA8  2CAA               	goto	u2940
   743     0CA9                     u2941:
   744     0CA9  2CA6               	goto	l83
   745     0CAA                     u2940:
   746     0CAA                     l2099:
   747                           
   748                           ;main.c: 101:     adc2 = (ADRESH << 8) | ADRESL;
   749     0CAA  081E               	movf	30,w	;volatile
   750     0CAB  00E1               	movwf	_adc2+1
   751     0CAC  1683               	bsf	3,5	;RP0=1, select bank1
   752     0CAD  1303               	bcf	3,6	;RP1=0, select bank1
   753     0CAE  081E               	movf	30,w	;volatile
   754     0CAF  1283               	bcf	3,5	;RP0=0, select bank0
   755     0CB0  1303               	bcf	3,6	;RP1=0, select bank0
   756     0CB1  00E0               	movwf	_adc2
   757                           
   758                           ;main.c: 102:     _delay((unsigned long)((10)*(8000000/4000.0)));
   759     0CB2  301A               	movlw	26
   760     0CB3  1683               	bsf	3,5	;RP0=1, select bank1
   761     0CB4  1303               	bcf	3,6	;RP1=0, select bank1
   762     0CB5  00A3               	movwf	(??_main^(0+128)+1)
   763     0CB6  30F7               	movlw	247
   764     0CB7  00A2               	movwf	??_main^(0+128)
   765     0CB8                     u2967:
   766     0CB8  0BA2               	decfsz	??_main^(0+128),f
   767     0CB9  2CB8               	goto	u2967
   768     0CBA  0BA3               	decfsz	(??_main^(0+128)+1),f
   769     0CBB  2CB8               	goto	u2967
   770     0CBC  2CBD               	nop2
   771     0CBD  2C6F               	goto	l2089
   772     0CBE  120A  118A  2812   	ljmp	start
   773     0CC1                     __end_of_main:
   774                           
   775                           	psect	text1
   776     0C1F                     __ptext1:	
   777 ;; *************** function _setup *****************
   778 ;; Defined at:
   779 ;;		line 108 in file "main.c"
   780 ;; Parameters:    Size  Location     Type
   781 ;;		None
   782 ;; Auto vars:     Size  Location     Type
   783 ;;		None
   784 ;; Return value:  Size  Location     Type
   785 ;;                  1    wreg      void 
   786 ;; Registers used:
   787 ;;		wreg, status,2, status,0
   788 ;; Tracked objects:
   789 ;;		On entry : 0/0
   790 ;;		On exit  : 0/0
   791 ;;		Unchanged: 0/0
   792 ;; Data sizes:     COMMON   BANK0   BANK1   BANK3   BANK2
   793 ;;      Params:         0       0       0       0       0
   794 ;;      Locals:         0       0       0       0       0
   795 ;;      Temps:          0       0       2       0       0
   796 ;;      Totals:         0       0       2       0       0
   797 ;;Total ram usage:        2 bytes
   798 ;; Hardware stack levels used: 1
   799 ;; Hardware stack levels required when called: 4
   800 ;; This function calls:
   801 ;;		Nothing
   802 ;; This function is called by:
   803 ;;		_main
   804 ;; This function uses a non-reentrant model
   805 ;;
   806                           
   807     0C1F                     _setup:	
   808                           ;psect for function _setup
   809                           
   810     0C1F                     l2005:	
   811                           ;incstack = 0
   812                           ; Regs used in _setup: [wreg+status,2+status,0]
   813                           
   814                           
   815                           ;main.c: 110:     ANSEL = 0;
   816     0C1F  1683               	bsf	3,5	;RP0=1, select bank3
   817     0C20  1703               	bsf	3,6	;RP1=1, select bank3
   818     0C21  0188               	clrf	8	;volatile
   819                           
   820                           ;main.c: 111:     ANSELH = 0;
   821     0C22  0189               	clrf	9	;volatile
   822                           
   823                           ;main.c: 112:     TRISB = 0;
   824     0C23  1683               	bsf	3,5	;RP0=1, select bank1
   825     0C24  1303               	bcf	3,6	;RP1=0, select bank1
   826     0C25  0186               	clrf	6	;volatile
   827                           
   828                           ;main.c: 113:     TRISC = 0;
   829     0C26  0187               	clrf	7	;volatile
   830                           
   831                           ;main.c: 114:     TRISD = 0;
   832     0C27  0188               	clrf	8	;volatile
   833     0C28                     l2007:
   834                           
   835                           ;main.c: 117:     OSCCONbits.IRCF = 0b111;
   836     0C28  3070               	movlw	112
   837     0C29  048F               	iorwf	15,f	;volatile
   838     0C2A                     l2009:
   839                           
   840                           ;main.c: 118:     OSCCONbits.SCS = 1;
   841     0C2A  140F               	bsf	15,0	;volatile
   842     0C2B                     l2011:
   843                           
   844                           ;main.c: 121:     OPTION_REGbits.T0CS = 0;
   845     0C2B  1281               	bcf	1,5	;volatile
   846     0C2C                     l2013:
   847                           
   848                           ;main.c: 122:     OPTION_REGbits.PSA = 0;
   849     0C2C  1181               	bcf	1,3	;volatile
   850     0C2D                     l2015:
   851                           
   852                           ;main.c: 123:     OPTION_REGbits.PS = 0b111;
   853     0C2D  3007               	movlw	7
   854     0C2E  0481               	iorwf	1,f	;volatile
   855     0C2F                     l2017:
   856                           
   857                           ;main.c: 124:     TMR0 = 200;
   858     0C2F  30C8               	movlw	200
   859     0C30  1283               	bcf	3,5	;RP0=0, select bank0
   860     0C31  1303               	bcf	3,6	;RP1=0, select bank0
   861     0C32  0081               	movwf	1	;volatile
   862     0C33                     l2019:
   863                           
   864                           ;main.c: 127:     INTCONbits.T0IF = 0;
   865     0C33  110B               	bcf	11,2	;volatile
   866     0C34                     l2021:
   867                           
   868                           ;main.c: 128:     INTCONbits.T0IE = 1;
   869     0C34  168B               	bsf	11,5	;volatile
   870     0C35                     l2023:
   871                           
   872                           ;main.c: 129:     INTCONbits.GIE = 1;
   873     0C35  178B               	bsf	11,7	;volatile
   874     0C36                     l2025:
   875                           
   876                           ;main.c: 132:     TRISAbits.TRISA0 = 1;
   877     0C36  1683               	bsf	3,5	;RP0=1, select bank1
   878     0C37  1303               	bcf	3,6	;RP1=0, select bank1
   879     0C38  1405               	bsf	5,0	;volatile
   880     0C39                     l2027:
   881                           
   882                           ;main.c: 133:     ANSELbits.ANS0 = 1;
   883     0C39  1683               	bsf	3,5	;RP0=1, select bank3
   884     0C3A  1703               	bsf	3,6	;RP1=1, select bank3
   885     0C3B  1408               	bsf	8,0	;volatile
   886     0C3C                     l2029:
   887                           
   888                           ;main.c: 134:     ADCON0bits.CHS = 0;
   889     0C3C  30C3               	movlw	-61
   890     0C3D  1283               	bcf	3,5	;RP0=0, select bank0
   891     0C3E  1303               	bcf	3,6	;RP1=0, select bank0
   892     0C3F  059F               	andwf	31,f	;volatile
   893     0C40                     l2031:
   894                           
   895                           ;main.c: 135:     _delay((unsigned long)((1)*(8000000/4000.0)));
   896     0C40  3003               	movlw	3
   897     0C41  1683               	bsf	3,5	;RP0=1, select bank1
   898     0C42  1303               	bcf	3,6	;RP1=0, select bank1
   899     0C43  00A1               	movwf	(??_setup^(0+128)+1)
   900     0C44  3097               	movlw	151
   901     0C45  00A0               	movwf	??_setup^(0+128)
   902     0C46                     u2977:
   903     0C46  0BA0               	decfsz	??_setup^(0+128),f
   904     0C47  2C46               	goto	u2977
   905     0C48  0BA1               	decfsz	(??_setup^(0+128)+1),f
   906     0C49  2C46               	goto	u2977
   907     0C4A                     l2033:
   908                           
   909                           ;main.c: 136:     TRISAbits.TRISA5 = 1;
   910     0C4A  1683               	bsf	3,5	;RP0=1, select bank1
   911     0C4B  1303               	bcf	3,6	;RP1=0, select bank1
   912     0C4C  1685               	bsf	5,5	;volatile
   913     0C4D                     l2035:
   914                           
   915                           ;main.c: 137:     ANSELbits.ANS4 = 1;
   916     0C4D  1683               	bsf	3,5	;RP0=1, select bank3
   917     0C4E  1703               	bsf	3,6	;RP1=1, select bank3
   918     0C4F  1608               	bsf	8,4	;volatile
   919     0C50                     l2037:
   920                           
   921                           ;main.c: 138:     ADCON0bits.CHS = 4;
   922     0C50  1283               	bcf	3,5	;RP0=0, select bank0
   923     0C51  1303               	bcf	3,6	;RP1=0, select bank0
   924     0C52  081F               	movf	31,w	;volatile
   925     0C53  39C3               	andlw	-61
   926     0C54  3810               	iorlw	16
   927     0C55  009F               	movwf	31	;volatile
   928     0C56                     l2039:
   929                           
   930                           ;main.c: 139:     _delay((unsigned long)((1)*(8000000/4000.0)));
   931     0C56  3003               	movlw	3
   932     0C57  1683               	bsf	3,5	;RP0=1, select bank1
   933     0C58  1303               	bcf	3,6	;RP1=0, select bank1
   934     0C59  00A1               	movwf	(??_setup^(0+128)+1)
   935     0C5A  3097               	movlw	151
   936     0C5B  00A0               	movwf	??_setup^(0+128)
   937     0C5C                     u2987:
   938     0C5C  0BA0               	decfsz	??_setup^(0+128),f
   939     0C5D  2C5C               	goto	u2987
   940     0C5E  0BA1               	decfsz	(??_setup^(0+128)+1),f
   941     0C5F  2C5C               	goto	u2987
   942     0C60                     l2041:
   943                           
   944                           ;main.c: 140:     ADCON1bits.ADFM = 1;
   945     0C60  1683               	bsf	3,5	;RP0=1, select bank1
   946     0C61  1303               	bcf	3,6	;RP1=0, select bank1
   947     0C62  179F               	bsf	31,7	;volatile
   948     0C63                     l2043:
   949                           
   950                           ;main.c: 141:     ADCON1bits.VCFG0 = 0;
   951     0C63  121F               	bcf	31,4	;volatile
   952     0C64                     l2045:
   953                           
   954                           ;main.c: 142:     ADCON1bits.VCFG1 = 1;
   955     0C64  169F               	bsf	31,5	;volatile
   956     0C65                     l2047:
   957                           
   958                           ;main.c: 143:     ADCON0bits.ADON = 1;
   959     0C65  1283               	bcf	3,5	;RP0=0, select bank0
   960     0C66  1303               	bcf	3,6	;RP1=0, select bank0
   961     0C67  141F               	bsf	31,0	;volatile
   962     0C68                     l2049:
   963                           
   964                           ;main.c: 144:     ADIF = 0;
   965     0C68  130C               	bcf	12,6	;volatile
   966     0C69                     l91:
   967     0C69  0008               	return
   968     0C6A                     __end_of_setup:
   969                           
   970                           	psect	text2
   971     0D39                     __ptext2:	
   972 ;; *************** function _isr *****************
   973 ;; Defined at:
   974 ;;		line 61 in file "main.c"
   975 ;; Parameters:    Size  Location     Type
   976 ;;		None
   977 ;; Auto vars:     Size  Location     Type
   978 ;;		None
   979 ;; Return value:  Size  Location     Type
   980 ;;                  1    wreg      void 
   981 ;; Registers used:
   982 ;;		wreg, fsr0l, fsr0h, status,2, status,0, btemp+1, pclath, cstack
   983 ;; Tracked objects:
   984 ;;		On entry : 0/0
   985 ;;		On exit  : 0/0
   986 ;;		Unchanged: 0/0
   987 ;; Data sizes:     COMMON   BANK0   BANK1   BANK3   BANK2
   988 ;;      Params:         0       0       0       0       0
   989 ;;      Locals:         0       0       0       0       0
   990 ;;      Temps:          0       6       0       0       0
   991 ;;      Totals:         0       6       0       0       0
   992 ;;Total ram usage:        6 bytes
   993 ;; Hardware stack levels used: 1
   994 ;; Hardware stack levels required when called: 3
   995 ;; This function calls:
   996 ;;		_getDigits
   997 ;;		_table
   998 ;; This function is called by:
   999 ;;		Interrupt level 1
  1000 ;; This function uses a non-reentrant model
  1001 ;;
  1002                           
  1003     0D39                     _isr:	
  1004                           ;psect for function _isr
  1005                           
  1006     0D39                     i1l2051:
  1007                           
  1008                           ;main.c: 62:     if (T0IF) {
  1009     0D39  1D0B               	btfss	11,2	;volatile
  1010     0D3A  2D3C               	goto	u292_21
  1011     0D3B  2D3D               	goto	u292_20
  1012     0D3C                     u292_21:
  1013     0D3C  2DB0               	goto	i1l74
  1014     0D3D                     u292_20:
  1015     0D3D                     i1l2053:
  1016                           
  1017                           ;main.c: 63:     getDigits(adc2);
  1018     0D3D  0861               	movf	_adc2+1,w
  1019     0D3E  00D1               	movwf	getDigits@num+1
  1020     0D3F  0860               	movf	_adc2,w
  1021     0D40  00D0               	movwf	getDigits@num
  1022     0D41  120A  158A  2677  120A  158A  	fcall	_getDigits
  1023     0D46                     i1l2055:
  1024                           
  1025                           ;main.c: 64:     PORTB = 0b000;
  1026     0D46  1283               	bcf	3,5	;RP0=0, select bank0
  1027     0D47  1303               	bcf	3,6	;RP1=0, select bank0
  1028     0D48  0186               	clrf	6	;volatile
  1029     0D49                     i1l2057:
  1030                           
  1031                           ;main.c: 65:     value_display = table(hundreds);
  1032     0D49  0867               	movf	_hundreds+1,w
  1033     0D4A  00F1               	movwf	table@digit+1
  1034     0D4B  0866               	movf	_hundreds,w
  1035     0D4C  00F0               	movwf	table@digit
  1036     0D4D  120A  118A  27E2  120A  158A  	fcall	_table
  1037     0D52  1283               	bcf	3,5	;RP0=0, select bank0
  1038     0D53  1303               	bcf	3,6	;RP1=0, select bank0
  1039     0D54  00DA               	movwf	??_isr
  1040     0D55  01DB               	clrf	??_isr+1
  1041     0D56  085A               	movf	??_isr,w
  1042     0D57  00E4               	movwf	_value_display
  1043     0D58  085B               	movf	??_isr+1,w
  1044     0D59  00E5               	movwf	_value_display+1
  1045     0D5A                     i1l2059:
  1046                           
  1047                           ;main.c: 66:     PORTD = value_display;
  1048     0D5A  0864               	movf	_value_display,w
  1049     0D5B  0088               	movwf	8	;volatile
  1050     0D5C                     i1l2061:
  1051                           
  1052                           ;main.c: 67:     PORTB = 0b100;
  1053     0D5C  3004               	movlw	4
  1054     0D5D  0086               	movwf	6	;volatile
  1055     0D5E                     i1l2063:
  1056                           
  1057                           ;main.c: 68:     _delay((unsigned long)((10)*(8000000/4000.0)));
  1058     0D5E  301A               	movlw	26
  1059     0D5F  1283               	bcf	3,5	;RP0=0, select bank0
  1060     0D60  1303               	bcf	3,6	;RP1=0, select bank0
  1061     0D61  00DB               	movwf	??_isr+1
  1062     0D62  30F7               	movlw	247
  1063     0D63  00DA               	movwf	??_isr
  1064     0D64                     u299_27:
  1065     0D64  0BDA               	decfsz	??_isr,f
  1066     0D65  2D64               	goto	u299_27
  1067     0D66  0BDB               	decfsz	??_isr+1,f
  1068     0D67  2D64               	goto	u299_27
  1069     0D68  2D69               	nop2
  1070     0D69                     i1l2065:
  1071                           
  1072                           ;main.c: 69:     PORTB = 0b000;
  1073     0D69  1283               	bcf	3,5	;RP0=0, select bank0
  1074     0D6A  1303               	bcf	3,6	;RP1=0, select bank0
  1075     0D6B  0186               	clrf	6	;volatile
  1076     0D6C                     i1l2067:
  1077                           
  1078                           ;main.c: 70:     value_display = table(tens);
  1079     0D6C  0869               	movf	_tens+1,w
  1080     0D6D  00F1               	movwf	table@digit+1
  1081     0D6E  0868               	movf	_tens,w
  1082     0D6F  00F0               	movwf	table@digit
  1083     0D70  120A  118A  27E2  120A  158A  	fcall	_table
  1084     0D75  1283               	bcf	3,5	;RP0=0, select bank0
  1085     0D76  1303               	bcf	3,6	;RP1=0, select bank0
  1086     0D77  00DA               	movwf	??_isr
  1087     0D78  01DB               	clrf	??_isr+1
  1088     0D79  085A               	movf	??_isr,w
  1089     0D7A  00E4               	movwf	_value_display
  1090     0D7B  085B               	movf	??_isr+1,w
  1091     0D7C  00E5               	movwf	_value_display+1
  1092     0D7D                     i1l2069:
  1093                           
  1094                           ;main.c: 71:     PORTD = value_display;
  1095     0D7D  0864               	movf	_value_display,w
  1096     0D7E  0088               	movwf	8	;volatile
  1097     0D7F                     i1l2071:
  1098                           
  1099                           ;main.c: 72:     PORTB = 0b010;
  1100     0D7F  3002               	movlw	2
  1101     0D80  0086               	movwf	6	;volatile
  1102     0D81                     i1l2073:
  1103                           
  1104                           ;main.c: 73:     _delay((unsigned long)((10)*(8000000/4000.0)));
  1105     0D81  301A               	movlw	26
  1106     0D82  1283               	bcf	3,5	;RP0=0, select bank0
  1107     0D83  1303               	bcf	3,6	;RP1=0, select bank0
  1108     0D84  00DB               	movwf	??_isr+1
  1109     0D85  30F7               	movlw	247
  1110     0D86  00DA               	movwf	??_isr
  1111     0D87                     u300_27:
  1112     0D87  0BDA               	decfsz	??_isr,f
  1113     0D88  2D87               	goto	u300_27
  1114     0D89  0BDB               	decfsz	??_isr+1,f
  1115     0D8A  2D87               	goto	u300_27
  1116     0D8B  2D8C               	nop2
  1117     0D8C                     i1l2075:
  1118                           
  1119                           ;main.c: 74:     PORTB = 0b000;
  1120     0D8C  1283               	bcf	3,5	;RP0=0, select bank0
  1121     0D8D  1303               	bcf	3,6	;RP1=0, select bank0
  1122     0D8E  0186               	clrf	6	;volatile
  1123     0D8F                     i1l2077:
  1124                           
  1125                           ;main.c: 75:     value_display = table(unit);
  1126     0D8F  086B               	movf	_unit+1,w
  1127     0D90  00F1               	movwf	table@digit+1
  1128     0D91  086A               	movf	_unit,w
  1129     0D92  00F0               	movwf	table@digit
  1130     0D93  120A  118A  27E2  120A  158A  	fcall	_table
  1131     0D98  1283               	bcf	3,5	;RP0=0, select bank0
  1132     0D99  1303               	bcf	3,6	;RP1=0, select bank0
  1133     0D9A  00DA               	movwf	??_isr
  1134     0D9B  01DB               	clrf	??_isr+1
  1135     0D9C  085A               	movf	??_isr,w
  1136     0D9D  00E4               	movwf	_value_display
  1137     0D9E  085B               	movf	??_isr+1,w
  1138     0D9F  00E5               	movwf	_value_display+1
  1139     0DA0                     i1l2079:
  1140                           
  1141                           ;main.c: 76:     PORTD = value_display;
  1142     0DA0  0864               	movf	_value_display,w
  1143     0DA1  0088               	movwf	8	;volatile
  1144     0DA2                     i1l2081:
  1145                           
  1146                           ;main.c: 77:     PORTB = 0b001;
  1147     0DA2  3001               	movlw	1
  1148     0DA3  0086               	movwf	6	;volatile
  1149     0DA4                     i1l2083:
  1150                           
  1151                           ;main.c: 78:     _delay((unsigned long)((10)*(8000000/4000.0)));
  1152     0DA4  301A               	movlw	26
  1153     0DA5  1283               	bcf	3,5	;RP0=0, select bank0
  1154     0DA6  1303               	bcf	3,6	;RP1=0, select bank0
  1155     0DA7  00DB               	movwf	??_isr+1
  1156     0DA8  30F7               	movlw	247
  1157     0DA9  00DA               	movwf	??_isr
  1158     0DAA                     u301_27:
  1159     0DAA  0BDA               	decfsz	??_isr,f
  1160     0DAB  2DAA               	goto	u301_27
  1161     0DAC  0BDB               	decfsz	??_isr+1,f
  1162     0DAD  2DAA               	goto	u301_27
  1163     0DAE  2DAF               	nop2
  1164     0DAF                     i1l2085:
  1165                           
  1166                           ;main.c: 80:  T0IF = 0;
  1167     0DAF  110B               	bcf	11,2	;volatile
  1168     0DB0                     i1l74:
  1169     0DB0  1283               	bcf	3,5	;RP0=0, select bank0
  1170     0DB1  1303               	bcf	3,6	;RP1=0, select bank0
  1171     0DB2  085F               	movf	??_isr+5,w
  1172     0DB3  00FF               	movwf	btemp+1
  1173     0DB4  085E               	movf	??_isr+4,w
  1174     0DB5  008A               	movwf	10
  1175     0DB6  085D               	movf	??_isr+3,w
  1176     0DB7  0084               	movwf	4
  1177     0DB8  0E5C               	swapf	??_isr+2,w
  1178     0DB9  0083               	movwf	3
  1179     0DBA  0EFE               	swapf	btemp,f
  1180     0DBB  0E7E               	swapf	btemp,w
  1181     0DBC  0009               	retfie
  1182     0DBD                     __end_of_isr:
  1183                           
  1184                           	psect	intentry
  1185     0004                     __pintentry:	
  1186                           ;incstack = 0
  1187                           ; Regs used in _isr: [wreg-fsr0h+status,2+status,0+btemp+1+pclath+cstack]
  1188                           
  1189     0004                     interrupt_function:
  1190     007E                     saved_w	set	btemp
  1191     0004  00FE               	movwf	btemp
  1192     0005  0E03               	swapf	3,w
  1193     0006  1283               	bcf	3,5	;RP0=0, select bank0
  1194     0007  1303               	bcf	3,6	;RP1=0, select bank0
  1195     0008  00DC               	movwf	??_isr+2
  1196     0009  0804               	movf	4,w
  1197     000A  00DD               	movwf	??_isr+3
  1198     000B  080A               	movf	10,w
  1199     000C  00DE               	movwf	??_isr+4
  1200     000D  087F               	movf	btemp+1,w
  1201     000E  00DF               	movwf	??_isr+5
  1202     000F  120A  158A  2D39   	ljmp	_isr
  1203                           
  1204                           	psect	text3
  1205     07E2                     __ptext3:	
  1206 ;; *************** function _table *****************
  1207 ;; Defined at:
  1208 ;;		line 147 in file "main.c"
  1209 ;; Parameters:    Size  Location     Type
  1210 ;;  digit           2    0[COMMON] int 
  1211 ;; Auto vars:     Size  Location     Type
  1212 ;;		None
  1213 ;; Return value:  Size  Location     Type
  1214 ;;                  1    wreg      unsigned char 
  1215 ;; Registers used:
  1216 ;;		wreg, fsr0l, fsr0h, status,2, status,0, pclath
  1217 ;; Tracked objects:
  1218 ;;		On entry : 0/0
  1219 ;;		On exit  : 0/0
  1220 ;;		Unchanged: 0/0
  1221 ;; Data sizes:     COMMON   BANK0   BANK1   BANK3   BANK2
  1222 ;;      Params:         2       0       0       0       0
  1223 ;;      Locals:         0       0       0       0       0
  1224 ;;      Temps:          1       0       0       0       0
  1225 ;;      Totals:         3       0       0       0       0
  1226 ;;Total ram usage:        3 bytes
  1227 ;; Hardware stack levels used: 2
  1228 ;; This function calls:
  1229 ;;		Nothing
  1230 ;; This function is called by:
  1231 ;;		_isr
  1232 ;; This function uses a non-reentrant model
  1233 ;;
  1234                           
  1235     07E2                     _table:	
  1236                           ;psect for function _table
  1237                           
  1238     07E2                     i1l2001:	
  1239                           ;incstack = 0
  1240                           ; Regs used in _table: [wreg-fsr0h+status,2+status,0+pclath]
  1241                           
  1242                           
  1243                           ;main.c: 148:     return table_display[digit];
  1244     07E2  0870               	movf	table@digit,w
  1245     07E3  00F2               	movwf	??_table
  1246     07E4  0772               	addwf	??_table,w
  1247     07E5  3E01               	addlw	low ((_table_display-__stringbase)| (0+32768))
  1248     07E6  0084               	movwf	4
  1249     07E7  120A  158A  2000  120A  118A  	fcall	stringdir
  1250     07EC                     i1l94:
  1251     07EC  0008               	return
  1252     07ED                     __end_of_table:
  1253                           
  1254                           	psect	text4
  1255     0E77                     __ptext4:	
  1256 ;; *************** function _getDigits *****************
  1257 ;; Defined at:
  1258 ;;		line 151 in file "main.c"
  1259 ;; Parameters:    Size  Location     Type
  1260 ;;  num             2   48[BANK0 ] int 
  1261 ;; Auto vars:     Size  Location     Type
  1262 ;;  num2            4   54[BANK0 ] float 
  1263 ;; Return value:  Size  Location     Type
  1264 ;;                  1    wreg      void 
  1265 ;; Registers used:
  1266 ;;		wreg, fsr0l, fsr0h, status,2, status,0, btemp+1, pclath, cstack
  1267 ;; Tracked objects:
  1268 ;;		On entry : 0/0
  1269 ;;		On exit  : 0/0
  1270 ;;		Unchanged: 0/0
  1271 ;; Data sizes:     COMMON   BANK0   BANK1   BANK3   BANK2
  1272 ;;      Params:         0       2       0       0       0
  1273 ;;      Locals:         0       8       0       0       0
  1274 ;;      Temps:          0       0       0       0       0
  1275 ;;      Totals:         0      10       0       0       0
  1276 ;;Total ram usage:       10 bytes
  1277 ;; Hardware stack levels used: 1
  1278 ;; Hardware stack levels required when called: 2
  1279 ;; This function calls:
  1280 ;;		___fldiv
  1281 ;;		___flmul
  1282 ;;		___flsub
  1283 ;;		___fltol
  1284 ;;		___wmul
  1285 ;;		___xxtofl
  1286 ;; This function is called by:
  1287 ;;		_isr
  1288 ;; This function uses a non-reentrant model
  1289 ;;
  1290                           
  1291     0E77                     _getDigits:	
  1292                           ;psect for function _getDigits
  1293                           
  1294     0E77                     i1l1985:	
  1295                           ;incstack = 0
  1296                           ; Regs used in _getDigits: [wreg-fsr0h+status,2+status,0+btemp+1+pclath+cstack]
  1297                           
  1298                           
  1299                           ;main.c: 152:     float num2 = (float)(5/1023)* (float)(num*100);
  1300     0E77  3000               	movlw	0
  1301     0E78  1283               	bcf	3,5	;RP0=0, select bank0
  1302     0E79  1303               	bcf	3,6	;RP1=0, select bank0
  1303     0E7A  00B9               	movwf	___flmul@b+3
  1304     0E7B  3000               	movlw	0
  1305     0E7C  00B8               	movwf	___flmul@b+2
  1306     0E7D  3000               	movlw	0
  1307     0E7E  00B7               	movwf	___flmul@b+1
  1308     0E7F  3000               	movlw	0
  1309     0E80  00B6               	movwf	___flmul@b
  1310     0E81  3064               	movlw	100
  1311     0E82  00F2               	movwf	___wmul@multiplicand
  1312     0E83  3000               	movlw	0
  1313     0E84  00F3               	movwf	___wmul@multiplicand+1
  1314     0E85  0851               	movf	getDigits@num+1,w
  1315     0E86  00F1               	movwf	___wmul@multiplier+1
  1316     0E87  0850               	movf	getDigits@num,w
  1317     0E88  00F0               	movwf	___wmul@multiplier
  1318     0E89  120A  158A  23FA  120A  158A  	fcall	___wmul
  1319     0E8E  0870               	movf	?___wmul,w
  1320     0E8F  1283               	bcf	3,5	;RP0=0, select bank0
  1321     0E90  1303               	bcf	3,6	;RP1=0, select bank0
  1322     0E91  00A8               	movwf	___xxtofl@val
  1323     0E92  0871               	movf	?___wmul+1,w
  1324     0E93  00A9               	movwf	___xxtofl@val+1
  1325     0E94  3000               	movlw	0
  1326     0E95  1BA9               	btfsc	___xxtofl@val+1,7
  1327     0E96  30FF               	movlw	255
  1328     0E97  00AA               	movwf	___xxtofl@val+2
  1329     0E98  00AB               	movwf	___xxtofl@val+3
  1330     0E99  3001               	movlw	1
  1331     0E9A  120A  158A  25BD  120A  158A  	fcall	___xxtofl
  1332     0E9F  1283               	bcf	3,5	;RP0=0, select bank0
  1333     0EA0  1303               	bcf	3,6	;RP1=0, select bank0
  1334     0EA1  082B               	movf	?___xxtofl+3,w
  1335     0EA2  00BD               	movwf	___flmul@a+3
  1336     0EA3  082A               	movf	?___xxtofl+2,w
  1337     0EA4  00BC               	movwf	___flmul@a+2
  1338     0EA5  0829               	movf	?___xxtofl+1,w
  1339     0EA6  00BB               	movwf	___flmul@a+1
  1340     0EA7  0828               	movf	?___xxtofl,w
  1341     0EA8  00BA               	movwf	___flmul@a
  1342     0EA9  120A  118A  2037  120A  158A  	fcall	___flmul
  1343     0EAE  1283               	bcf	3,5	;RP0=0, select bank0
  1344     0EAF  1303               	bcf	3,6	;RP1=0, select bank0
  1345     0EB0  0839               	movf	?___flmul+3,w
  1346     0EB1  00D9               	movwf	getDigits@num2+3
  1347     0EB2  0838               	movf	?___flmul+2,w
  1348     0EB3  00D8               	movwf	getDigits@num2+2
  1349     0EB4  0837               	movf	?___flmul+1,w
  1350     0EB5  00D7               	movwf	getDigits@num2+1
  1351     0EB6  0836               	movf	?___flmul,w
  1352     0EB7  00D6               	movwf	getDigits@num2
  1353     0EB8                     i1l1987:
  1354                           
  1355                           ;main.c: 154:     *pHundreds = (int) (num2 / 100);
  1356     0EB8  0859               	movf	getDigits@num2+3,w
  1357     0EB9  00F7               	movwf	___fldiv@b+3
  1358     0EBA  0858               	movf	getDigits@num2+2,w
  1359     0EBB  00F6               	movwf	___fldiv@b+2
  1360     0EBC  0857               	movf	getDigits@num2+1,w
  1361     0EBD  00F5               	movwf	___fldiv@b+1
  1362     0EBE  0856               	movf	getDigits@num2,w
  1363     0EBF  00F4               	movwf	___fldiv@b
  1364     0EC0  3042               	movlw	66
  1365     0EC1  00F3               	movwf	___fldiv@a+3
  1366     0EC2  30C8               	movlw	200
  1367     0EC3  00F2               	movwf	___fldiv@a+2
  1368     0EC4  3000               	movlw	0
  1369     0EC5  00F1               	movwf	___fldiv@a+1
  1370     0EC6  3000               	movlw	0
  1371     0EC7  00F0               	movwf	___fldiv@a
  1372     0EC8  120A  118A  25E2  120A  158A  	fcall	___fldiv
  1373     0ECD  0873               	movf	?___fldiv+3,w
  1374     0ECE  1283               	bcf	3,5	;RP0=0, select bank0
  1375     0ECF  1303               	bcf	3,6	;RP1=0, select bank0
  1376     0ED0  00C1               	movwf	___fltol@f1+3
  1377     0ED1  0872               	movf	?___fldiv+2,w
  1378     0ED2  00C0               	movwf	___fltol@f1+2
  1379     0ED3  0871               	movf	?___fldiv+1,w
  1380     0ED4  00BF               	movwf	___fltol@f1+1
  1381     0ED5  0870               	movf	?___fldiv,w
  1382     0ED6  00BE               	movwf	___fltol@f1
  1383     0ED7  120A  158A  24C1  120A  158A  	fcall	___fltol
  1384     0EDC  1283               	bcf	3,5	;RP0=0, select bank0
  1385     0EDD  1303               	bcf	3,6	;RP1=0, select bank0
  1386     0EDE  086C               	movf	_pHundreds,w
  1387     0EDF  0084               	movwf	4
  1388     0EE0  083E               	movf	?___fltol,w
  1389     0EE1  1383               	bcf	3,7	;select IRP bank0
  1390     0EE2  0080               	movwf	0
  1391     0EE3  0A84               	incf	4,f
  1392     0EE4  083F               	movf	?___fltol+1,w
  1393     0EE5  0080               	movwf	0
  1394     0EE6                     i1l1989:
  1395                           
  1396                           ;main.c: 155:     num2 = (int) (num2 - (*pHundreds)*100);
  1397     0EE6  0859               	movf	getDigits@num2+3,w
  1398     0EE7  00BD               	movwf	___flsub@b+3
  1399     0EE8  0858               	movf	getDigits@num2+2,w
  1400     0EE9  00BC               	movwf	___flsub@b+2
  1401     0EEA  0857               	movf	getDigits@num2+1,w
  1402     0EEB  00BB               	movwf	___flsub@b+1
  1403     0EEC  0856               	movf	getDigits@num2,w
  1404     0EED  00BA               	movwf	___flsub@b
  1405     0EEE  3064               	movlw	100
  1406     0EEF  00F2               	movwf	___wmul@multiplicand
  1407     0EF0  3000               	movlw	0
  1408     0EF1  00F3               	movwf	___wmul@multiplicand+1
  1409     0EF2  086C               	movf	_pHundreds,w
  1410     0EF3  0084               	movwf	4
  1411     0EF4  0800               	movf	0,w
  1412     0EF5  00F0               	movwf	___wmul@multiplier
  1413     0EF6  0A84               	incf	4,f
  1414     0EF7  0800               	movf	0,w
  1415     0EF8  00F1               	movwf	___wmul@multiplier+1
  1416     0EF9  120A  158A  23FA  120A  158A  	fcall	___wmul
  1417     0EFE  0870               	movf	?___wmul,w
  1418     0EFF  1283               	bcf	3,5	;RP0=0, select bank0
  1419     0F00  1303               	bcf	3,6	;RP1=0, select bank0
  1420     0F01  00A8               	movwf	___xxtofl@val
  1421     0F02  0871               	movf	?___wmul+1,w
  1422     0F03  00A9               	movwf	___xxtofl@val+1
  1423     0F04  3000               	movlw	0
  1424     0F05  1BA9               	btfsc	___xxtofl@val+1,7
  1425     0F06  30FF               	movlw	255
  1426     0F07  00AA               	movwf	___xxtofl@val+2
  1427     0F08  00AB               	movwf	___xxtofl@val+3
  1428     0F09  3001               	movlw	1
  1429     0F0A  120A  158A  25BD  120A  158A  	fcall	___xxtofl
  1430     0F0F  1283               	bcf	3,5	;RP0=0, select bank0
  1431     0F10  1303               	bcf	3,6	;RP1=0, select bank0
  1432     0F11  082B               	movf	?___xxtofl+3,w
  1433     0F12  00B9               	movwf	___flsub@a+3
  1434     0F13  082A               	movf	?___xxtofl+2,w
  1435     0F14  00B8               	movwf	___flsub@a+2
  1436     0F15  0829               	movf	?___xxtofl+1,w
  1437     0F16  00B7               	movwf	___flsub@a+1
  1438     0F17  0828               	movf	?___xxtofl,w
  1439     0F18  00B6               	movwf	___flsub@a
  1440     0F19  120A  158A  23D6  120A  158A  	fcall	___flsub
  1441     0F1E  1283               	bcf	3,5	;RP0=0, select bank0
  1442     0F1F  1303               	bcf	3,6	;RP1=0, select bank0
  1443     0F20  0839               	movf	?___flsub+3,w
  1444     0F21  00C1               	movwf	___fltol@f1+3
  1445     0F22  0838               	movf	?___flsub+2,w
  1446     0F23  00C0               	movwf	___fltol@f1+2
  1447     0F24  0837               	movf	?___flsub+1,w
  1448     0F25  00BF               	movwf	___fltol@f1+1
  1449     0F26  0836               	movf	?___flsub,w
  1450     0F27  00BE               	movwf	___fltol@f1
  1451     0F28  120A  158A  24C1  120A  158A  	fcall	___fltol
  1452     0F2D  1283               	bcf	3,5	;RP0=0, select bank0
  1453     0F2E  1303               	bcf	3,6	;RP1=0, select bank0
  1454     0F2F  083E               	movf	?___fltol,w
  1455     0F30  00D2               	movwf	_getDigits$901
  1456     0F31  083F               	movf	?___fltol+1,w
  1457     0F32  00D3               	movwf	_getDigits$901+1
  1458     0F33  3000               	movlw	0
  1459     0F34  1BD3               	btfsc	_getDigits$901+1,7
  1460     0F35  30FF               	movlw	255
  1461     0F36  00D4               	movwf	_getDigits$901+2
  1462     0F37  00D5               	movwf	_getDigits$901+3
  1463     0F38                     i1l1991:
  1464                           
  1465                           ;main.c: 155:     num2 = (int) (num2 - (*pHundreds)*100);
  1466     0F38  0855               	movf	_getDigits$901+3,w
  1467     0F39  00AB               	movwf	___xxtofl@val+3
  1468     0F3A  0854               	movf	_getDigits$901+2,w
  1469     0F3B  00AA               	movwf	___xxtofl@val+2
  1470     0F3C  0853               	movf	_getDigits$901+1,w
  1471     0F3D  00A9               	movwf	___xxtofl@val+1
  1472     0F3E  0852               	movf	_getDigits$901,w
  1473     0F3F  00A8               	movwf	___xxtofl@val
  1474     0F40  3001               	movlw	1
  1475     0F41  120A  158A  25BD  120A  158A  	fcall	___xxtofl
  1476     0F46  1283               	bcf	3,5	;RP0=0, select bank0
  1477     0F47  1303               	bcf	3,6	;RP1=0, select bank0
  1478     0F48  082B               	movf	?___xxtofl+3,w
  1479     0F49  00D9               	movwf	getDigits@num2+3
  1480     0F4A  082A               	movf	?___xxtofl+2,w
  1481     0F4B  00D8               	movwf	getDigits@num2+2
  1482     0F4C  0829               	movf	?___xxtofl+1,w
  1483     0F4D  00D7               	movwf	getDigits@num2+1
  1484     0F4E  0828               	movf	?___xxtofl,w
  1485     0F4F  00D6               	movwf	getDigits@num2
  1486     0F50                     i1l1993:
  1487                           
  1488                           ;main.c: 156:     *pTens = (int) (num2 / 10);
  1489     0F50  0859               	movf	getDigits@num2+3,w
  1490     0F51  00F7               	movwf	___fldiv@b+3
  1491     0F52  0858               	movf	getDigits@num2+2,w
  1492     0F53  00F6               	movwf	___fldiv@b+2
  1493     0F54  0857               	movf	getDigits@num2+1,w
  1494     0F55  00F5               	movwf	___fldiv@b+1
  1495     0F56  0856               	movf	getDigits@num2,w
  1496     0F57  00F4               	movwf	___fldiv@b
  1497     0F58  3041               	movlw	65
  1498     0F59  00F3               	movwf	___fldiv@a+3
  1499     0F5A  3020               	movlw	32
  1500     0F5B  00F2               	movwf	___fldiv@a+2
  1501     0F5C  3000               	movlw	0
  1502     0F5D  00F1               	movwf	___fldiv@a+1
  1503     0F5E  3000               	movlw	0
  1504     0F5F  00F0               	movwf	___fldiv@a
  1505     0F60  120A  118A  25E2  120A  158A  	fcall	___fldiv
  1506     0F65  0873               	movf	?___fldiv+3,w
  1507     0F66  1283               	bcf	3,5	;RP0=0, select bank0
  1508     0F67  1303               	bcf	3,6	;RP1=0, select bank0
  1509     0F68  00C1               	movwf	___fltol@f1+3
  1510     0F69  0872               	movf	?___fldiv+2,w
  1511     0F6A  00C0               	movwf	___fltol@f1+2
  1512     0F6B  0871               	movf	?___fldiv+1,w
  1513     0F6C  00BF               	movwf	___fltol@f1+1
  1514     0F6D  0870               	movf	?___fldiv,w
  1515     0F6E  00BE               	movwf	___fltol@f1
  1516     0F6F  120A  158A  24C1  120A  158A  	fcall	___fltol
  1517     0F74  1283               	bcf	3,5	;RP0=0, select bank0
  1518     0F75  1303               	bcf	3,6	;RP1=0, select bank0
  1519     0F76  086D               	movf	_pTens,w
  1520     0F77  0084               	movwf	4
  1521     0F78  083E               	movf	?___fltol,w
  1522     0F79  1383               	bcf	3,7	;select IRP bank0
  1523     0F7A  0080               	movwf	0
  1524     0F7B  0A84               	incf	4,f
  1525     0F7C  083F               	movf	?___fltol+1,w
  1526     0F7D  0080               	movwf	0
  1527     0F7E                     i1l1995:
  1528                           
  1529                           ;main.c: 157:     num2 = (int) (num2 - (*pTens)*10);
  1530     0F7E  0859               	movf	getDigits@num2+3,w
  1531     0F7F  00BD               	movwf	___flsub@b+3
  1532     0F80  0858               	movf	getDigits@num2+2,w
  1533     0F81  00BC               	movwf	___flsub@b+2
  1534     0F82  0857               	movf	getDigits@num2+1,w
  1535     0F83  00BB               	movwf	___flsub@b+1
  1536     0F84  0856               	movf	getDigits@num2,w
  1537     0F85  00BA               	movwf	___flsub@b
  1538     0F86  300A               	movlw	10
  1539     0F87  00F2               	movwf	___wmul@multiplicand
  1540     0F88  3000               	movlw	0
  1541     0F89  00F3               	movwf	___wmul@multiplicand+1
  1542     0F8A  086D               	movf	_pTens,w
  1543     0F8B  0084               	movwf	4
  1544     0F8C  0800               	movf	0,w
  1545     0F8D  00F0               	movwf	___wmul@multiplier
  1546     0F8E  0A84               	incf	4,f
  1547     0F8F  0800               	movf	0,w
  1548     0F90  00F1               	movwf	___wmul@multiplier+1
  1549     0F91  120A  158A  23FA  120A  158A  	fcall	___wmul
  1550     0F96  0870               	movf	?___wmul,w
  1551     0F97  1283               	bcf	3,5	;RP0=0, select bank0
  1552     0F98  1303               	bcf	3,6	;RP1=0, select bank0
  1553     0F99  00A8               	movwf	___xxtofl@val
  1554     0F9A  0871               	movf	?___wmul+1,w
  1555     0F9B  00A9               	movwf	___xxtofl@val+1
  1556     0F9C  3000               	movlw	0
  1557     0F9D  1BA9               	btfsc	___xxtofl@val+1,7
  1558     0F9E  30FF               	movlw	255
  1559     0F9F  00AA               	movwf	___xxtofl@val+2
  1560     0FA0  00AB               	movwf	___xxtofl@val+3
  1561     0FA1  3001               	movlw	1
  1562     0FA2  120A  158A  25BD  120A  158A  	fcall	___xxtofl
  1563     0FA7  1283               	bcf	3,5	;RP0=0, select bank0
  1564     0FA8  1303               	bcf	3,6	;RP1=0, select bank0
  1565     0FA9  082B               	movf	?___xxtofl+3,w
  1566     0FAA  00B9               	movwf	___flsub@a+3
  1567     0FAB  082A               	movf	?___xxtofl+2,w
  1568     0FAC  00B8               	movwf	___flsub@a+2
  1569     0FAD  0829               	movf	?___xxtofl+1,w
  1570     0FAE  00B7               	movwf	___flsub@a+1
  1571     0FAF  0828               	movf	?___xxtofl,w
  1572     0FB0  00B6               	movwf	___flsub@a
  1573     0FB1  120A  158A  23D6  120A  158A  	fcall	___flsub
  1574     0FB6  1283               	bcf	3,5	;RP0=0, select bank0
  1575     0FB7  1303               	bcf	3,6	;RP1=0, select bank0
  1576     0FB8  0839               	movf	?___flsub+3,w
  1577     0FB9  00C1               	movwf	___fltol@f1+3
  1578     0FBA  0838               	movf	?___flsub+2,w
  1579     0FBB  00C0               	movwf	___fltol@f1+2
  1580     0FBC  0837               	movf	?___flsub+1,w
  1581     0FBD  00BF               	movwf	___fltol@f1+1
  1582     0FBE  0836               	movf	?___flsub,w
  1583     0FBF  00BE               	movwf	___fltol@f1
  1584     0FC0  120A  158A  24C1  120A  158A  	fcall	___fltol
  1585     0FC5  1283               	bcf	3,5	;RP0=0, select bank0
  1586     0FC6  1303               	bcf	3,6	;RP1=0, select bank0
  1587     0FC7  083E               	movf	?___fltol,w
  1588     0FC8  00D2               	movwf	_getDigits$901
  1589     0FC9  083F               	movf	?___fltol+1,w
  1590     0FCA  00D3               	movwf	_getDigits$901+1
  1591     0FCB  3000               	movlw	0
  1592     0FCC  1BD3               	btfsc	_getDigits$901+1,7
  1593     0FCD  30FF               	movlw	255
  1594     0FCE  00D4               	movwf	_getDigits$901+2
  1595     0FCF  00D5               	movwf	_getDigits$901+3
  1596     0FD0                     i1l1997:
  1597                           
  1598                           ;main.c: 157:     num2 = (int) (num2 - (*pTens)*10);
  1599     0FD0  0855               	movf	_getDigits$901+3,w
  1600     0FD1  00AB               	movwf	___xxtofl@val+3
  1601     0FD2  0854               	movf	_getDigits$901+2,w
  1602     0FD3  00AA               	movwf	___xxtofl@val+2
  1603     0FD4  0853               	movf	_getDigits$901+1,w
  1604     0FD5  00A9               	movwf	___xxtofl@val+1
  1605     0FD6  0852               	movf	_getDigits$901,w
  1606     0FD7  00A8               	movwf	___xxtofl@val
  1607     0FD8  3001               	movlw	1
  1608     0FD9  120A  158A  25BD  120A  158A  	fcall	___xxtofl
  1609     0FDE  1283               	bcf	3,5	;RP0=0, select bank0
  1610     0FDF  1303               	bcf	3,6	;RP1=0, select bank0
  1611     0FE0  082B               	movf	?___xxtofl+3,w
  1612     0FE1  00D9               	movwf	getDigits@num2+3
  1613     0FE2  082A               	movf	?___xxtofl+2,w
  1614     0FE3  00D8               	movwf	getDigits@num2+2
  1615     0FE4  0829               	movf	?___xxtofl+1,w
  1616     0FE5  00D7               	movwf	getDigits@num2+1
  1617     0FE6  0828               	movf	?___xxtofl,w
  1618     0FE7  00D6               	movwf	getDigits@num2
  1619     0FE8                     i1l1999:
  1620                           
  1621                           ;main.c: 158:     *pUnit =(int) (num2);
  1622     0FE8  0859               	movf	getDigits@num2+3,w
  1623     0FE9  00C1               	movwf	___fltol@f1+3
  1624     0FEA  0858               	movf	getDigits@num2+2,w
  1625     0FEB  00C0               	movwf	___fltol@f1+2
  1626     0FEC  0857               	movf	getDigits@num2+1,w
  1627     0FED  00BF               	movwf	___fltol@f1+1
  1628     0FEE  0856               	movf	getDigits@num2,w
  1629     0FEF  00BE               	movwf	___fltol@f1
  1630     0FF0  120A  158A  24C1  120A  158A  	fcall	___fltol
  1631     0FF5  1283               	bcf	3,5	;RP0=0, select bank0
  1632     0FF6  1303               	bcf	3,6	;RP1=0, select bank0
  1633     0FF7  086E               	movf	_pUnit,w
  1634     0FF8  0084               	movwf	4
  1635     0FF9  083E               	movf	?___fltol,w
  1636     0FFA  1383               	bcf	3,7	;select IRP bank0
  1637     0FFB  0080               	movwf	0
  1638     0FFC  0A84               	incf	4,f
  1639     0FFD  083F               	movf	?___fltol+1,w
  1640     0FFE  0080               	movwf	0
  1641     0FFF                     i1l97:
  1642     0FFF  0008               	return
  1643     1000                     __end_of_getDigits:
  1644                           
  1645                           	psect	text5
  1646     0DBD                     __ptext5:	
  1647 ;; *************** function ___xxtofl *****************
  1648 ;; Defined at:
  1649 ;;		line 10 in file "C:\Program Files\Microchip\xc8\v2.40\pic\sources\c90\common\xxtofl.c"
  1650 ;; Parameters:    Size  Location     Type
  1651 ;;  sign            1    wreg     unsigned char 
  1652 ;;  val             4    8[BANK0 ] long 
  1653 ;; Auto vars:     Size  Location     Type
  1654 ;;  sign            1   16[BANK0 ] unsigned char 
  1655 ;;  arg             4   18[BANK0 ] unsigned long 
  1656 ;;  exp             1   17[BANK0 ] unsigned char 
  1657 ;; Return value:  Size  Location     Type
  1658 ;;                  4    8[BANK0 ] unsigned char 
  1659 ;; Registers used:
  1660 ;;		wreg, status,2, status,0
  1661 ;; Tracked objects:
  1662 ;;		On entry : 0/0
  1663 ;;		On exit  : 0/0
  1664 ;;		Unchanged: 0/0
  1665 ;; Data sizes:     COMMON   BANK0   BANK1   BANK3   BANK2
  1666 ;;      Params:         0       4       0       0       0
  1667 ;;      Locals:         0       6       0       0       0
  1668 ;;      Temps:          0       4       0       0       0
  1669 ;;      Totals:         0      14       0       0       0
  1670 ;;Total ram usage:       14 bytes
  1671 ;; Hardware stack levels used: 1
  1672 ;; This function calls:
  1673 ;;		Nothing
  1674 ;; This function is called by:
  1675 ;;		_getDigits
  1676 ;; This function uses a non-reentrant model
  1677 ;;
  1678                           
  1679     0DBD                     ___xxtofl:	
  1680                           ;psect for function ___xxtofl
  1681                           
  1682                           
  1683                           ;incstack = 0
  1684                           ; Regs used in ___xxtofl: [wreg+status,2+status,0]
  1685                           ;___xxtofl@sign stored from wreg
  1686     0DBD  1283               	bcf	3,5	;RP0=0, select bank0
  1687     0DBE  1303               	bcf	3,6	;RP1=0, select bank0
  1688     0DBF  00B0               	movwf	___xxtofl@sign
  1689     0DC0                     i1l1941:
  1690     0DC0  0830               	movf	___xxtofl@sign,w
  1691     0DC1  1903               	btfsc	3,2
  1692     0DC2  2DC4               	goto	u278_21
  1693     0DC3  2DC5               	goto	u278_20
  1694     0DC4                     u278_21:
  1695     0DC4  2DD9               	goto	i1l1947
  1696     0DC5                     u278_20:
  1697     0DC5                     i1l1943:
  1698     0DC5  1FAB               	btfss	___xxtofl@val+3,7
  1699     0DC6  2DC8               	goto	u279_21
  1700     0DC7  2DC9               	goto	u279_20
  1701     0DC8                     u279_21:
  1702     0DC8  2DD9               	goto	i1l1947
  1703     0DC9                     u279_20:
  1704     0DC9                     i1l1945:
  1705     0DC9  0928               	comf	___xxtofl@val,w
  1706     0DCA  00B2               	movwf	___xxtofl@arg
  1707     0DCB  0929               	comf	___xxtofl@val+1,w
  1708     0DCC  00B3               	movwf	___xxtofl@arg+1
  1709     0DCD  092A               	comf	___xxtofl@val+2,w
  1710     0DCE  00B4               	movwf	___xxtofl@arg+2
  1711     0DCF  092B               	comf	___xxtofl@val+3,w
  1712     0DD0  00B5               	movwf	___xxtofl@arg+3
  1713     0DD1  0AB2               	incf	___xxtofl@arg,f
  1714     0DD2  1903               	skipnz
  1715     0DD3  0AB3               	incf	___xxtofl@arg+1,f
  1716     0DD4  1903               	skipnz
  1717     0DD5  0AB4               	incf	___xxtofl@arg+2,f
  1718     0DD6  1903               	skipnz
  1719     0DD7  0AB5               	incf	___xxtofl@arg+3,f
  1720     0DD8  2DE1               	goto	i1l616
  1721     0DD9                     i1l1947:
  1722     0DD9  082B               	movf	___xxtofl@val+3,w
  1723     0DDA  00B5               	movwf	___xxtofl@arg+3
  1724     0DDB  082A               	movf	___xxtofl@val+2,w
  1725     0DDC  00B4               	movwf	___xxtofl@arg+2
  1726     0DDD  0829               	movf	___xxtofl@val+1,w
  1727     0DDE  00B3               	movwf	___xxtofl@arg+1
  1728     0DDF  0828               	movf	___xxtofl@val,w
  1729     0DE0  00B2               	movwf	___xxtofl@arg
  1730     0DE1                     i1l616:
  1731     0DE1  082B               	movf	___xxtofl@val+3,w
  1732     0DE2  042A               	iorwf	___xxtofl@val+2,w
  1733     0DE3  0429               	iorwf	___xxtofl@val+1,w
  1734     0DE4  0428               	iorwf	___xxtofl@val,w
  1735     0DE5  1D03               	skipz
  1736     0DE6  2DE8               	goto	u280_21
  1737     0DE7  2DE9               	goto	u280_20
  1738     0DE8                     u280_21:
  1739     0DE8  2DF2               	goto	i1l1953
  1740     0DE9                     u280_20:
  1741     0DE9                     i1l1949:
  1742     0DE9  3000               	movlw	0
  1743     0DEA  00AB               	movwf	?___xxtofl+3
  1744     0DEB  3000               	movlw	0
  1745     0DEC  00AA               	movwf	?___xxtofl+2
  1746     0DED  3000               	movlw	0
  1747     0DEE  00A9               	movwf	?___xxtofl+1
  1748     0DEF  3000               	movlw	0
  1749     0DF0  00A8               	movwf	?___xxtofl
  1750     0DF1  2E76               	goto	i1l618
  1751     0DF2                     i1l1953:
  1752     0DF2  3096               	movlw	150
  1753     0DF3  00B1               	movwf	___xxtofl@exp
  1754     0DF4  2E02               	goto	i1l1957
  1755     0DF5                     i1l1955:
  1756     0DF5  3001               	movlw	1
  1757     0DF6  00AC               	movwf	??___xxtofl
  1758     0DF7  082C               	movf	??___xxtofl,w
  1759     0DF8  07B1               	addwf	___xxtofl@exp,f
  1760     0DF9  3001               	movlw	1
  1761     0DFA                     u281_25:
  1762     0DFA  1003               	clrc
  1763     0DFB  0CB5               	rrf	___xxtofl@arg+3,f
  1764     0DFC  0CB4               	rrf	___xxtofl@arg+2,f
  1765     0DFD  0CB3               	rrf	___xxtofl@arg+1,f
  1766     0DFE  0CB2               	rrf	___xxtofl@arg,f
  1767     0DFF  3EFF               	addlw	-1
  1768     0E00  1D03               	skipz
  1769     0E01  2DFA               	goto	u281_25
  1770     0E02                     i1l1957:
  1771     0E02  30FE               	movlw	254
  1772     0E03  0535               	andwf	___xxtofl@arg+3,w
  1773     0E04  1D03               	btfss	3,2
  1774     0E05  2E07               	goto	u282_21
  1775     0E06  2E08               	goto	u282_20
  1776     0E07                     u282_21:
  1777     0E07  2DF5               	goto	i1l1955
  1778     0E08                     u282_20:
  1779     0E08  2E24               	goto	i1l622
  1780     0E09                     i1l1959:
  1781     0E09  3001               	movlw	1
  1782     0E0A  00AC               	movwf	??___xxtofl
  1783     0E0B  082C               	movf	??___xxtofl,w
  1784     0E0C  07B1               	addwf	___xxtofl@exp,f
  1785     0E0D                     i1l1961:
  1786     0E0D  3001               	movlw	1
  1787     0E0E  07B2               	addwf	___xxtofl@arg,f
  1788     0E0F  3000               	movlw	0
  1789     0E10  1803               	skipnc
  1790     0E11  3001               	movlw	1
  1791     0E12  07B3               	addwf	___xxtofl@arg+1,f
  1792     0E13  3000               	movlw	0
  1793     0E14  1803               	skipnc
  1794     0E15  3001               	movlw	1
  1795     0E16  07B4               	addwf	___xxtofl@arg+2,f
  1796     0E17  3000               	movlw	0
  1797     0E18  1803               	skipnc
  1798     0E19  3001               	movlw	1
  1799     0E1A  07B5               	addwf	___xxtofl@arg+3,f
  1800     0E1B                     i1l1963:
  1801     0E1B  3001               	movlw	1
  1802     0E1C                     u283_25:
  1803     0E1C  1003               	clrc
  1804     0E1D  0CB5               	rrf	___xxtofl@arg+3,f
  1805     0E1E  0CB4               	rrf	___xxtofl@arg+2,f
  1806     0E1F  0CB3               	rrf	___xxtofl@arg+1,f
  1807     0E20  0CB2               	rrf	___xxtofl@arg,f
  1808     0E21  3EFF               	addlw	-1
  1809     0E22  1D03               	skipz
  1810     0E23  2E1C               	goto	u283_25
  1811     0E24                     i1l622:
  1812     0E24  30FF               	movlw	255
  1813     0E25  0535               	andwf	___xxtofl@arg+3,w
  1814     0E26  1D03               	btfss	3,2
  1815     0E27  2E29               	goto	u284_21
  1816     0E28  2E2A               	goto	u284_20
  1817     0E29                     u284_21:
  1818     0E29  2E09               	goto	i1l1959
  1819     0E2A                     u284_20:
  1820     0E2A  2E36               	goto	i1l1967
  1821     0E2B                     i1l1965:
  1822     0E2B  3001               	movlw	1
  1823     0E2C  02B1               	subwf	___xxtofl@exp,f
  1824     0E2D  3001               	movlw	1
  1825     0E2E  00AC               	movwf	??___xxtofl
  1826     0E2F                     u285_25:
  1827     0E2F  1003               	clrc
  1828     0E30  0DB2               	rlf	___xxtofl@arg,f
  1829     0E31  0DB3               	rlf	___xxtofl@arg+1,f
  1830     0E32  0DB4               	rlf	___xxtofl@arg+2,f
  1831     0E33  0DB5               	rlf	___xxtofl@arg+3,f
  1832     0E34  0BAC               	decfsz	??___xxtofl,f
  1833     0E35  2E2F               	goto	u285_25
  1834     0E36                     i1l1967:
  1835     0E36  1BB4               	btfsc	___xxtofl@arg+2,7
  1836     0E37  2E39               	goto	u286_21
  1837     0E38  2E3A               	goto	u286_20
  1838     0E39                     u286_21:
  1839     0E39  2E40               	goto	i1l629
  1840     0E3A                     u286_20:
  1841     0E3A                     i1l1969:
  1842     0E3A  3002               	movlw	2
  1843     0E3B  0231               	subwf	___xxtofl@exp,w
  1844     0E3C  1803               	skipnc
  1845     0E3D  2E3F               	goto	u287_21
  1846     0E3E  2E40               	goto	u287_20
  1847     0E3F                     u287_21:
  1848     0E3F  2E2B               	goto	i1l1965
  1849     0E40                     u287_20:
  1850     0E40                     i1l629:
  1851     0E40  1831               	btfsc	___xxtofl@exp,0
  1852     0E41  2E43               	goto	u288_21
  1853     0E42  2E44               	goto	u288_20
  1854     0E43                     u288_21:
  1855     0E43  2E4C               	goto	i1l630
  1856     0E44                     u288_20:
  1857     0E44                     i1l1971:
  1858     0E44  30FF               	movlw	255
  1859     0E45  05B2               	andwf	___xxtofl@arg,f
  1860     0E46  30FF               	movlw	255
  1861     0E47  05B3               	andwf	___xxtofl@arg+1,f
  1862     0E48  307F               	movlw	127
  1863     0E49  05B4               	andwf	___xxtofl@arg+2,f
  1864     0E4A  30FF               	movlw	255
  1865     0E4B  05B5               	andwf	___xxtofl@arg+3,f
  1866     0E4C                     i1l630:
  1867     0E4C  1003               	clrc
  1868     0E4D  0CB1               	rrf	___xxtofl@exp,f
  1869     0E4E                     i1l1973:
  1870     0E4E  0831               	movf	___xxtofl@exp,w
  1871     0E4F  00AC               	movwf	??___xxtofl
  1872     0E50  01AD               	clrf	??___xxtofl+1
  1873     0E51  01AE               	clrf	??___xxtofl+2
  1874     0E52  01AF               	clrf	??___xxtofl+3
  1875     0E53  3018               	movlw	24
  1876     0E54                     u289_25:
  1877     0E54  1003               	clrc
  1878     0E55  0DAC               	rlf	??___xxtofl,f
  1879     0E56  0DAD               	rlf	??___xxtofl+1,f
  1880     0E57  0DAE               	rlf	??___xxtofl+2,f
  1881     0E58  0DAF               	rlf	??___xxtofl+3,f
  1882     0E59                     u289_20:
  1883     0E59  3EFF               	addlw	-1
  1884     0E5A  1D03               	skipz
  1885     0E5B  2E54               	goto	u289_25
  1886     0E5C  082C               	movf	??___xxtofl,w
  1887     0E5D  04B2               	iorwf	___xxtofl@arg,f
  1888     0E5E  082D               	movf	??___xxtofl+1,w
  1889     0E5F  04B3               	iorwf	___xxtofl@arg+1,f
  1890     0E60  082E               	movf	??___xxtofl+2,w
  1891     0E61  04B4               	iorwf	___xxtofl@arg+2,f
  1892     0E62  082F               	movf	??___xxtofl+3,w
  1893     0E63  04B5               	iorwf	___xxtofl@arg+3,f
  1894     0E64                     i1l1975:
  1895     0E64  0830               	movf	___xxtofl@sign,w
  1896     0E65  1903               	btfsc	3,2
  1897     0E66  2E68               	goto	u290_21
  1898     0E67  2E69               	goto	u290_20
  1899     0E68                     u290_21:
  1900     0E68  2E6E               	goto	i1l1981
  1901     0E69                     u290_20:
  1902     0E69                     i1l1977:
  1903     0E69  1FAB               	btfss	___xxtofl@val+3,7
  1904     0E6A  2E6C               	goto	u291_21
  1905     0E6B  2E6D               	goto	u291_20
  1906     0E6C                     u291_21:
  1907     0E6C  2E6E               	goto	i1l1981
  1908     0E6D                     u291_20:
  1909     0E6D                     i1l1979:
  1910     0E6D  17B5               	bsf	___xxtofl@arg+3,7
  1911     0E6E                     i1l1981:
  1912     0E6E  0835               	movf	___xxtofl@arg+3,w
  1913     0E6F  00AB               	movwf	?___xxtofl+3
  1914     0E70  0834               	movf	___xxtofl@arg+2,w
  1915     0E71  00AA               	movwf	?___xxtofl+2
  1916     0E72  0833               	movf	___xxtofl@arg+1,w
  1917     0E73  00A9               	movwf	?___xxtofl+1
  1918     0E74  0832               	movf	___xxtofl@arg,w
  1919     0E75  00A8               	movwf	?___xxtofl
  1920     0E76                     i1l618:
  1921     0E76  0008               	return
  1922     0E77                     __end_of___xxtofl:
  1923                           
  1924                           	psect	text6
  1925     0BFA                     __ptext6:	
  1926 ;; *************** function ___wmul *****************
  1927 ;; Defined at:
  1928 ;;		line 15 in file "C:\Program Files\Microchip\xc8\v2.40\pic\sources\c90\common\Umul16.c"
  1929 ;; Parameters:    Size  Location     Type
  1930 ;;  multiplier      2    0[COMMON] unsigned int 
  1931 ;;  multiplicand    2    2[COMMON] unsigned int 
  1932 ;; Auto vars:     Size  Location     Type
  1933 ;;  product         2    4[COMMON] unsigned int 
  1934 ;; Return value:  Size  Location     Type
  1935 ;;                  2    0[COMMON] unsigned int 
  1936 ;; Registers used:
  1937 ;;		wreg, status,2, status,0
  1938 ;; Tracked objects:
  1939 ;;		On entry : 0/0
  1940 ;;		On exit  : 0/0
  1941 ;;		Unchanged: 0/0
  1942 ;; Data sizes:     COMMON   BANK0   BANK1   BANK3   BANK2
  1943 ;;      Params:         4       0       0       0       0
  1944 ;;      Locals:         2       0       0       0       0
  1945 ;;      Temps:          0       0       0       0       0
  1946 ;;      Totals:         6       0       0       0       0
  1947 ;;Total ram usage:        6 bytes
  1948 ;; Hardware stack levels used: 1
  1949 ;; This function calls:
  1950 ;;		Nothing
  1951 ;; This function is called by:
  1952 ;;		_getDigits
  1953 ;; This function uses a non-reentrant model
  1954 ;;
  1955                           
  1956     0BFA                     ___wmul:	
  1957                           ;psect for function ___wmul
  1958                           
  1959     0BFA                     i1l1603:	
  1960                           ;incstack = 0
  1961                           ; Regs used in ___wmul: [wreg+status,2+status,0]
  1962                           
  1963     0BFA  01F4               	clrf	___wmul@product
  1964     0BFB  01F5               	clrf	___wmul@product+1
  1965     0BFC                     i1l1605:
  1966     0BFC  1C70               	btfss	___wmul@multiplier,0
  1967     0BFD  2BFF               	goto	u197_21
  1968     0BFE  2C00               	goto	u197_20
  1969     0BFF                     u197_21:
  1970     0BFF  2C06               	goto	i1l183
  1971     0C00                     u197_20:
  1972     0C00                     i1l1607:
  1973     0C00  0872               	movf	___wmul@multiplicand,w
  1974     0C01  07F4               	addwf	___wmul@product,f
  1975     0C02  1803               	skipnc
  1976     0C03  0AF5               	incf	___wmul@product+1,f
  1977     0C04  0873               	movf	___wmul@multiplicand+1,w
  1978     0C05  07F5               	addwf	___wmul@product+1,f
  1979     0C06                     i1l183:
  1980     0C06  3001               	movlw	1
  1981     0C07                     u198_25:
  1982     0C07  1003               	clrc
  1983     0C08  0DF2               	rlf	___wmul@multiplicand,f
  1984     0C09  0DF3               	rlf	___wmul@multiplicand+1,f
  1985     0C0A  3EFF               	addlw	-1
  1986     0C0B  1D03               	skipz
  1987     0C0C  2C07               	goto	u198_25
  1988     0C0D                     i1l1609:
  1989     0C0D  3001               	movlw	1
  1990     0C0E                     u199_25:
  1991     0C0E  1003               	clrc
  1992     0C0F  0CF1               	rrf	___wmul@multiplier+1,f
  1993     0C10  0CF0               	rrf	___wmul@multiplier,f
  1994     0C11  3EFF               	addlw	-1
  1995     0C12  1D03               	skipz
  1996     0C13  2C0E               	goto	u199_25
  1997     0C14                     i1l1611:
  1998     0C14  0870               	movf	___wmul@multiplier,w
  1999     0C15  0471               	iorwf	___wmul@multiplier+1,w
  2000     0C16  1D03               	btfss	3,2
  2001     0C17  2C19               	goto	u200_21
  2002     0C18  2C1A               	goto	u200_20
  2003     0C19                     u200_21:
  2004     0C19  2BFC               	goto	i1l1605
  2005     0C1A                     u200_20:
  2006     0C1A                     i1l1613:
  2007     0C1A  0875               	movf	___wmul@product+1,w
  2008     0C1B  00F1               	movwf	?___wmul+1
  2009     0C1C  0874               	movf	___wmul@product,w
  2010     0C1D  00F0               	movwf	?___wmul
  2011     0C1E                     i1l185:
  2012     0C1E  0008               	return
  2013     0C1F                     __end_of___wmul:
  2014                           
  2015                           	psect	text7
  2016     0CC1                     __ptext7:	
  2017 ;; *************** function ___fltol *****************
  2018 ;; Defined at:
  2019 ;;		line 43 in file "C:\Program Files\Microchip\xc8\v2.40\pic\sources\c90\common\fltol.c"
  2020 ;; Parameters:    Size  Location     Type
  2021 ;;  f1              4   30[BANK0 ] unsigned int 
  2022 ;; Auto vars:     Size  Location     Type
  2023 ;;  exp1            1   39[BANK0 ] unsigned char 
  2024 ;;  sign1           1   38[BANK0 ] unsigned char 
  2025 ;; Return value:  Size  Location     Type
  2026 ;;                  4   30[BANK0 ] long 
  2027 ;; Registers used:
  2028 ;;		wreg, status,2, status,0
  2029 ;; Tracked objects:
  2030 ;;		On entry : 0/0
  2031 ;;		On exit  : 0/0
  2032 ;;		Unchanged: 0/0
  2033 ;; Data sizes:     COMMON   BANK0   BANK1   BANK3   BANK2
  2034 ;;      Params:         0       4       0       0       0
  2035 ;;      Locals:         0       2       0       0       0
  2036 ;;      Temps:          0       4       0       0       0
  2037 ;;      Totals:         0      10       0       0       0
  2038 ;;Total ram usage:       10 bytes
  2039 ;; Hardware stack levels used: 1
  2040 ;; This function calls:
  2041 ;;		Nothing
  2042 ;; This function is called by:
  2043 ;;		_getDigits
  2044 ;; This function uses a non-reentrant model
  2045 ;;
  2046                           
  2047     0CC1                     ___fltol:	
  2048                           ;psect for function ___fltol
  2049                           
  2050     0CC1                     i1l1617:	
  2051                           ;incstack = 0
  2052                           ; Regs used in ___fltol: [wreg+status,2+status,0]
  2053                           
  2054     0CC1  1003               	clrc
  2055     0CC2  1283               	bcf	3,5	;RP0=0, select bank0
  2056     0CC3  1303               	bcf	3,6	;RP1=0, select bank0
  2057     0CC4  0D40               	rlf	___fltol@f1+2,w
  2058     0CC5  0D41               	rlf	___fltol@f1+3,w
  2059     0CC6  00C7               	movwf	___fltol@exp1
  2060     0CC7  0847               	movf	___fltol@exp1,w
  2061     0CC8  1D03               	btfss	3,2
  2062     0CC9  2CCB               	goto	u201_21
  2063     0CCA  2CCC               	goto	u201_20
  2064     0CCB                     u201_21:
  2065     0CCB  2CD5               	goto	i1l1623
  2066     0CCC                     u201_20:
  2067     0CCC                     i1l1619:
  2068     0CCC  3000               	movlw	0
  2069     0CCD  00C1               	movwf	?___fltol+3
  2070     0CCE  3000               	movlw	0
  2071     0CCF  00C0               	movwf	?___fltol+2
  2072     0CD0  3000               	movlw	0
  2073     0CD1  00BF               	movwf	?___fltol+1
  2074     0CD2  3000               	movlw	0
  2075     0CD3  00BE               	movwf	?___fltol
  2076     0CD4  2D38               	goto	i1l369
  2077     0CD5                     i1l1623:
  2078     0CD5  083E               	movf	___fltol@f1,w
  2079     0CD6  00C2               	movwf	??___fltol
  2080     0CD7  083F               	movf	___fltol@f1+1,w
  2081     0CD8  00C3               	movwf	??___fltol+1
  2082     0CD9  0840               	movf	___fltol@f1+2,w
  2083     0CDA  00C4               	movwf	??___fltol+2
  2084     0CDB  0841               	movf	___fltol@f1+3,w
  2085     0CDC  00C5               	movwf	??___fltol+3
  2086     0CDD  301F               	movlw	31
  2087     0CDE                     u202_25:
  2088     0CDE  1003               	clrc
  2089     0CDF  0CC5               	rrf	??___fltol+3,f
  2090     0CE0  0CC4               	rrf	??___fltol+2,f
  2091     0CE1  0CC3               	rrf	??___fltol+1,f
  2092     0CE2  0CC2               	rrf	??___fltol,f
  2093     0CE3                     u202_20:
  2094     0CE3  3EFF               	addlw	-1
  2095     0CE4  1D03               	skipz
  2096     0CE5  2CDE               	goto	u202_25
  2097     0CE6  0842               	movf	??___fltol,w
  2098     0CE7  00C6               	movwf	___fltol@sign1
  2099     0CE8                     i1l1625:
  2100     0CE8  17C0               	bsf	___fltol@f1+2,7
  2101     0CE9                     i1l1627:
  2102     0CE9  30FF               	movlw	255
  2103     0CEA  05BE               	andwf	___fltol@f1,f
  2104     0CEB  30FF               	movlw	255
  2105     0CEC  05BF               	andwf	___fltol@f1+1,f
  2106     0CED  30FF               	movlw	255
  2107     0CEE  05C0               	andwf	___fltol@f1+2,f
  2108     0CEF  3000               	movlw	0
  2109     0CF0  05C1               	andwf	___fltol@f1+3,f
  2110     0CF1                     i1l1629:
  2111     0CF1  3096               	movlw	150
  2112     0CF2  02C7               	subwf	___fltol@exp1,f
  2113     0CF3                     i1l1631:
  2114     0CF3  1FC7               	btfss	___fltol@exp1,7
  2115     0CF4  2CF6               	goto	u203_21
  2116     0CF5  2CF7               	goto	u203_20
  2117     0CF6                     u203_21:
  2118     0CF6  2D11               	goto	i1l1641
  2119     0CF7                     u203_20:
  2120     0CF7                     i1l1633:
  2121     0CF7  0847               	movf	___fltol@exp1,w
  2122     0CF8  3A80               	xorlw	128
  2123     0CF9  3E97               	addlw	151
  2124     0CFA  1803               	skipnc
  2125     0CFB  2CFD               	goto	u204_21
  2126     0CFC  2CFE               	goto	u204_20
  2127     0CFD                     u204_21:
  2128     0CFD  2CFF               	goto	i1l1639
  2129     0CFE                     u204_20:
  2130     0CFE  2CCC               	goto	i1l1619
  2131     0CFF                     i1l1639:
  2132     0CFF  3001               	movlw	1
  2133     0D00                     u205_25:
  2134     0D00  1003               	clrc
  2135     0D01  0CC1               	rrf	___fltol@f1+3,f
  2136     0D02  0CC0               	rrf	___fltol@f1+2,f
  2137     0D03  0CBF               	rrf	___fltol@f1+1,f
  2138     0D04  0CBE               	rrf	___fltol@f1,f
  2139     0D05  3EFF               	addlw	-1
  2140     0D06  1D03               	skipz
  2141     0D07  2D00               	goto	u205_25
  2142     0D08  3001               	movlw	1
  2143     0D09  00C2               	movwf	??___fltol
  2144     0D0A  0842               	movf	??___fltol,w
  2145     0D0B  07C7               	addwf	___fltol@exp1,f
  2146     0D0C  1D03               	btfss	3,2
  2147     0D0D  2D0F               	goto	u206_21
  2148     0D0E  2D10               	goto	u206_20
  2149     0D0F                     u206_21:
  2150     0D0F  2CFF               	goto	i1l1639
  2151     0D10                     u206_20:
  2152     0D10  2D28               	goto	i1l1649
  2153     0D11                     i1l1641:
  2154     0D11  3020               	movlw	32
  2155     0D12  0247               	subwf	___fltol@exp1,w
  2156     0D13  1C03               	skipc
  2157     0D14  2D16               	goto	u207_21
  2158     0D15  2D17               	goto	u207_20
  2159     0D16                     u207_21:
  2160     0D16  2D23               	goto	i1l376
  2161     0D17                     u207_20:
  2162     0D17  2CCC               	goto	i1l1619
  2163     0D18                     i1l1647:
  2164     0D18  3001               	movlw	1
  2165     0D19  00C2               	movwf	??___fltol
  2166     0D1A                     u208_25:
  2167     0D1A  1003               	clrc
  2168     0D1B  0DBE               	rlf	___fltol@f1,f
  2169     0D1C  0DBF               	rlf	___fltol@f1+1,f
  2170     0D1D  0DC0               	rlf	___fltol@f1+2,f
  2171     0D1E  0DC1               	rlf	___fltol@f1+3,f
  2172     0D1F  0BC2               	decfsz	??___fltol,f
  2173     0D20  2D1A               	goto	u208_25
  2174     0D21  3001               	movlw	1
  2175     0D22  02C7               	subwf	___fltol@exp1,f
  2176     0D23                     i1l376:
  2177     0D23  0847               	movf	___fltol@exp1,w
  2178     0D24  1D03               	btfss	3,2
  2179     0D25  2D27               	goto	u209_21
  2180     0D26  2D28               	goto	u209_20
  2181     0D27                     u209_21:
  2182     0D27  2D18               	goto	i1l1647
  2183     0D28                     u209_20:
  2184     0D28                     i1l1649:
  2185     0D28  0846               	movf	___fltol@sign1,w
  2186     0D29  1903               	btfsc	3,2
  2187     0D2A  2D2C               	goto	u210_21
  2188     0D2B  2D2D               	goto	u210_20
  2189     0D2C                     u210_21:
  2190     0D2C  2D38               	goto	i1l379
  2191     0D2D                     u210_20:
  2192     0D2D                     i1l1651:
  2193     0D2D  09BE               	comf	___fltol@f1,f
  2194     0D2E  09BF               	comf	___fltol@f1+1,f
  2195     0D2F  09C0               	comf	___fltol@f1+2,f
  2196     0D30  09C1               	comf	___fltol@f1+3,f
  2197     0D31  0ABE               	incf	___fltol@f1,f
  2198     0D32  1903               	skipnz
  2199     0D33  0ABF               	incf	___fltol@f1+1,f
  2200     0D34  1903               	skipnz
  2201     0D35  0AC0               	incf	___fltol@f1+2,f
  2202     0D36  1903               	skipnz
  2203     0D37  0AC1               	incf	___fltol@f1+3,f
  2204     0D38                     i1l379:
  2205     0D38                     i1l369:
  2206     0D38  0008               	return
  2207     0D39                     __end_of___fltol:
  2208                           
  2209                           	psect	text8
  2210     0BD6                     __ptext8:	
  2211 ;; *************** function ___flsub *****************
  2212 ;; Defined at:
  2213 ;;		line 242 in file "C:\Program Files\Microchip\xc8\v2.40\pic\sources\c90\common\sprcadd.c"
  2214 ;; Parameters:    Size  Location     Type
  2215 ;;  a               4   22[BANK0 ] long 
  2216 ;;  b               4   26[BANK0 ] long 
  2217 ;; Auto vars:     Size  Location     Type
  2218 ;;		None
  2219 ;; Return value:  Size  Location     Type
  2220 ;;                  4   22[BANK0 ] long 
  2221 ;; Registers used:
  2222 ;;		wreg, status,2, status,0, btemp+1, pclath, cstack
  2223 ;; Tracked objects:
  2224 ;;		On entry : 0/0
  2225 ;;		On exit  : 0/0
  2226 ;;		Unchanged: 0/0
  2227 ;; Data sizes:     COMMON   BANK0   BANK1   BANK3   BANK2
  2228 ;;      Params:         0       8       0       0       0
  2229 ;;      Locals:         0       0       0       0       0
  2230 ;;      Temps:          0       0       0       0       0
  2231 ;;      Totals:         0       8       0       0       0
  2232 ;;Total ram usage:        8 bytes
  2233 ;; Hardware stack levels used: 1
  2234 ;; Hardware stack levels required when called: 1
  2235 ;; This function calls:
  2236 ;;		___fladd
  2237 ;; This function is called by:
  2238 ;;		_getDigits
  2239 ;; This function uses a non-reentrant model
  2240 ;;
  2241                           
  2242     0BD6                     ___flsub:	
  2243                           ;psect for function ___flsub
  2244                           
  2245     0BD6                     i1l1653:	
  2246                           ;incstack = 0
  2247                           ; Regs used in ___flsub: [wreg+status,2+status,0+btemp+1+pclath+cstack]
  2248                           
  2249     0BD6  3080               	movlw	128
  2250     0BD7  1283               	bcf	3,5	;RP0=0, select bank0
  2251     0BD8  1303               	bcf	3,6	;RP1=0, select bank0
  2252     0BD9  06B9               	xorwf	___flsub@a+3,f
  2253     0BDA                     i1l1655:
  2254     0BDA  083D               	movf	___flsub@b+3,w
  2255     0BDB  00F3               	movwf	___fladd@b+3
  2256     0BDC  083C               	movf	___flsub@b+2,w
  2257     0BDD  00F2               	movwf	___fladd@b+2
  2258     0BDE  083B               	movf	___flsub@b+1,w
  2259     0BDF  00F1               	movwf	___fladd@b+1
  2260     0BE0  083A               	movf	___flsub@b,w
  2261     0BE1  00F0               	movwf	___fladd@b
  2262     0BE2  0839               	movf	___flsub@a+3,w
  2263     0BE3  00F7               	movwf	___fladd@a+3
  2264     0BE4  0838               	movf	___flsub@a+2,w
  2265     0BE5  00F6               	movwf	___fladd@a+2
  2266     0BE6  0837               	movf	___flsub@a+1,w
  2267     0BE7  00F5               	movwf	___fladd@a+1
  2268     0BE8  0836               	movf	___flsub@a,w
  2269     0BE9  00F4               	movwf	___fladd@a
  2270     0BEA  120A  118A  237C  120A  158A  	fcall	___fladd
  2271     0BEF  0873               	movf	?___fladd+3,w
  2272     0BF0  1283               	bcf	3,5	;RP0=0, select bank0
  2273     0BF1  1303               	bcf	3,6	;RP1=0, select bank0
  2274     0BF2  00B9               	movwf	?___flsub+3
  2275     0BF3  0872               	movf	?___fladd+2,w
  2276     0BF4  00B8               	movwf	?___flsub+2
  2277     0BF5  0871               	movf	?___fladd+1,w
  2278     0BF6  00B7               	movwf	?___flsub+1
  2279     0BF7  0870               	movf	?___fladd,w
  2280     0BF8  00B6               	movwf	?___flsub
  2281     0BF9                     i1l522:
  2282     0BF9  0008               	return
  2283     0BFA                     __end_of___flsub:
  2284                           
  2285                           	psect	text9
  2286     037C                     __ptext9:	
  2287 ;; *************** function ___fladd *****************
  2288 ;; Defined at:
  2289 ;;		line 10 in file "C:\Program Files\Microchip\xc8\v2.40\pic\sources\c90\common\sprcadd.c"
  2290 ;; Parameters:    Size  Location     Type
  2291 ;;  b               4    0[COMMON] long 
  2292 ;;  a               4    4[COMMON] long 
  2293 ;; Auto vars:     Size  Location     Type
  2294 ;;  grs             1   11[COMMON] unsigned char 
  2295 ;;  bexp            1   10[COMMON] unsigned char 
  2296 ;;  aexp            1    9[COMMON] unsigned char 
  2297 ;;  signs           1    8[COMMON] unsigned char 
  2298 ;; Return value:  Size  Location     Type
  2299 ;;                  4    0[COMMON] unsigned char 
  2300 ;; Registers used:
  2301 ;;		wreg, status,2, status,0, btemp+1
  2302 ;; Tracked objects:
  2303 ;;		On entry : 0/0
  2304 ;;		On exit  : 0/0
  2305 ;;		Unchanged: 0/0
  2306 ;; Data sizes:     COMMON   BANK0   BANK1   BANK3   BANK2
  2307 ;;      Params:         8       0       0       0       0
  2308 ;;      Locals:         4       0       0       0       0
  2309 ;;      Temps:          0       8       0       0       0
  2310 ;;      Totals:        12       8       0       0       0
  2311 ;;Total ram usage:       20 bytes
  2312 ;; Hardware stack levels used: 1
  2313 ;; This function calls:
  2314 ;;		Nothing
  2315 ;; This function is called by:
  2316 ;;		___flsub
  2317 ;; This function uses a non-reentrant model
  2318 ;;
  2319                           
  2320     037C                     ___fladd:	
  2321                           ;psect for function ___fladd
  2322                           
  2323     037C                     i1l1395:	
  2324                           ;incstack = 0
  2325                           ; Regs used in ___fladd: [wreg+status,2+status,0+btemp+1]
  2326                           
  2327     037C  0873               	movf	___fladd@b+3,w
  2328     037D  3980               	andlw	128
  2329     037E  00F8               	movwf	___fladd@signs
  2330     037F                     i1l1397:
  2331     037F  0873               	movf	___fladd@b+3,w
  2332     0380  1283               	bcf	3,5	;RP0=0, select bank0
  2333     0381  1303               	bcf	3,6	;RP1=0, select bank0
  2334     0382  00A0               	movwf	??___fladd
  2335     0383  0720               	addwf	??___fladd,w
  2336     0384  00FA               	movwf	___fladd@bexp
  2337     0385                     i1l1399:
  2338     0385  1FF2               	btfss	___fladd@b+2,7
  2339     0386  2B88               	goto	u148_21
  2340     0387  2B89               	goto	u148_20
  2341     0388                     u148_21:
  2342     0388  2B8A               	goto	i1l1403
  2343     0389                     u148_20:
  2344     0389                     i1l1401:
  2345     0389  147A               	bsf	___fladd@bexp,0
  2346     038A                     i1l1403:
  2347     038A  087A               	movf	___fladd@bexp,w
  2348     038B  1903               	btfsc	3,2
  2349     038C  2B8E               	goto	u149_21
  2350     038D  2B8F               	goto	u149_20
  2351     038E                     u149_21:
  2352     038E  2B9F               	goto	i1l1413
  2353     038F                     u149_20:
  2354     038F                     i1l1405:
  2355     038F  0A7A               	incf	___fladd@bexp,w
  2356     0390  1D03               	btfss	3,2
  2357     0391  2B93               	goto	u150_21
  2358     0392  2B94               	goto	u150_20
  2359     0393                     u150_21:
  2360     0393  2B9C               	goto	i1l1409
  2361     0394                     u150_20:
  2362     0394                     i1l1407:
  2363     0394  3000               	movlw	0
  2364     0395  00F3               	movwf	___fladd@b+3
  2365     0396  3000               	movlw	0
  2366     0397  00F2               	movwf	___fladd@b+2
  2367     0398  3000               	movlw	0
  2368     0399  00F1               	movwf	___fladd@b+1
  2369     039A  3000               	movlw	0
  2370     039B  00F0               	movwf	___fladd@b
  2371     039C                     i1l1409:
  2372     039C  17F2               	bsf	___fladd@b+2,7
  2373     039D                     i1l1411:
  2374     039D  01F3               	clrf	___fladd@b+3
  2375     039E  2BA7               	goto	i1l1415
  2376     039F                     i1l1413:
  2377     039F  3000               	movlw	0
  2378     03A0  00F3               	movwf	___fladd@b+3
  2379     03A1  3000               	movlw	0
  2380     03A2  00F2               	movwf	___fladd@b+2
  2381     03A3  3000               	movlw	0
  2382     03A4  00F1               	movwf	___fladd@b+1
  2383     03A5  3000               	movlw	0
  2384     03A6  00F0               	movwf	___fladd@b
  2385     03A7                     i1l1415:
  2386     03A7  0877               	movf	___fladd@a+3,w
  2387     03A8  3980               	andlw	128
  2388     03A9  00F9               	movwf	___fladd@aexp
  2389     03AA                     i1l1417:
  2390     03AA  0879               	movf	___fladd@aexp,w
  2391     03AB  0678               	xorwf	___fladd@signs,w
  2392     03AC  1903               	skipnz
  2393     03AD  2BAF               	goto	u151_21
  2394     03AE  2BB0               	goto	u151_20
  2395     03AF                     u151_21:
  2396     03AF  2BB1               	goto	i1l1421
  2397     03B0                     u151_20:
  2398     03B0                     i1l1419:
  2399     03B0  1778               	bsf	___fladd@signs,6
  2400     03B1                     i1l1421:
  2401     03B1  0877               	movf	___fladd@a+3,w
  2402     03B2  00A0               	movwf	??___fladd
  2403     03B3  0720               	addwf	??___fladd,w
  2404     03B4  00F9               	movwf	___fladd@aexp
  2405     03B5                     i1l1423:
  2406     03B5  1FF6               	btfss	___fladd@a+2,7
  2407     03B6  2BB8               	goto	u152_21
  2408     03B7  2BB9               	goto	u152_20
  2409     03B8                     u152_21:
  2410     03B8  2BBA               	goto	i1l1427
  2411     03B9                     u152_20:
  2412     03B9                     i1l1425:
  2413     03B9  1479               	bsf	___fladd@aexp,0
  2414     03BA                     i1l1427:
  2415     03BA  0879               	movf	___fladd@aexp,w
  2416     03BB  1903               	btfsc	3,2
  2417     03BC  2BBE               	goto	u153_21
  2418     03BD  2BBF               	goto	u153_20
  2419     03BE                     u153_21:
  2420     03BE  2BCF               	goto	i1l1437
  2421     03BF                     u153_20:
  2422     03BF                     i1l1429:
  2423     03BF  0A79               	incf	___fladd@aexp,w
  2424     03C0  1D03               	btfss	3,2
  2425     03C1  2BC3               	goto	u154_21
  2426     03C2  2BC4               	goto	u154_20
  2427     03C3                     u154_21:
  2428     03C3  2BCC               	goto	i1l1433
  2429     03C4                     u154_20:
  2430     03C4                     i1l1431:
  2431     03C4  3000               	movlw	0
  2432     03C5  00F7               	movwf	___fladd@a+3
  2433     03C6  3000               	movlw	0
  2434     03C7  00F6               	movwf	___fladd@a+2
  2435     03C8  3000               	movlw	0
  2436     03C9  00F5               	movwf	___fladd@a+1
  2437     03CA  3000               	movlw	0
  2438     03CB  00F4               	movwf	___fladd@a
  2439     03CC                     i1l1433:
  2440     03CC  17F6               	bsf	___fladd@a+2,7
  2441     03CD                     i1l1435:
  2442     03CD  01F7               	clrf	___fladd@a+3
  2443     03CE  2BD7               	goto	i1l476
  2444     03CF                     i1l1437:
  2445     03CF  3000               	movlw	0
  2446     03D0  00F7               	movwf	___fladd@a+3
  2447     03D1  3000               	movlw	0
  2448     03D2  00F6               	movwf	___fladd@a+2
  2449     03D3  3000               	movlw	0
  2450     03D4  00F5               	movwf	___fladd@a+1
  2451     03D5  3000               	movlw	0
  2452     03D6  00F4               	movwf	___fladd@a
  2453     03D7                     i1l476:
  2454     03D7  087A               	movf	___fladd@bexp,w
  2455     03D8  0279               	subwf	___fladd@aexp,w
  2456     03D9  1803               	skipnc
  2457     03DA  2BDC               	goto	u155_21
  2458     03DB  2BDD               	goto	u155_20
  2459     03DC                     u155_21:
  2460     03DC  2C03               	goto	i1l1473
  2461     03DD                     u155_20:
  2462     03DD                     i1l1439:
  2463     03DD  1F78               	btfss	___fladd@signs,6
  2464     03DE  2BE0               	goto	u156_21
  2465     03DF  2BE1               	goto	u156_20
  2466     03E0                     u156_21:
  2467     03E0  2BE5               	goto	i1l1443
  2468     03E1                     u156_20:
  2469     03E1                     i1l1441:
  2470     03E1  3080               	movlw	128
  2471     03E2  00A0               	movwf	??___fladd
  2472     03E3  0820               	movf	??___fladd,w
  2473     03E4  06F8               	xorwf	___fladd@signs,f
  2474     03E5                     i1l1443:
  2475     03E5  087A               	movf	___fladd@bexp,w
  2476     03E6  00FB               	movwf	___fladd@grs
  2477     03E7                     i1l1445:
  2478     03E7  0879               	movf	___fladd@aexp,w
  2479     03E8  00FA               	movwf	___fladd@bexp
  2480     03E9                     i1l1447:
  2481     03E9  087B               	movf	___fladd@grs,w
  2482     03EA  00F9               	movwf	___fladd@aexp
  2483     03EB                     i1l1449:
  2484     03EB  0870               	movf	___fladd@b,w
  2485     03EC  00FB               	movwf	___fladd@grs
  2486     03ED                     i1l1451:
  2487     03ED  0874               	movf	___fladd@a,w
  2488     03EE  00F0               	movwf	___fladd@b
  2489     03EF                     i1l1453:
  2490     03EF  087B               	movf	___fladd@grs,w
  2491     03F0  00F4               	movwf	___fladd@a
  2492     03F1                     i1l1455:
  2493     03F1  0871               	movf	___fladd@b+1,w
  2494     03F2  00FB               	movwf	___fladd@grs
  2495     03F3                     i1l1457:
  2496     03F3  0875               	movf	___fladd@a+1,w
  2497     03F4  00F1               	movwf	___fladd@b+1
  2498     03F5                     i1l1459:
  2499     03F5  087B               	movf	___fladd@grs,w
  2500     03F6  00F5               	movwf	___fladd@a+1
  2501     03F7                     i1l1461:
  2502     03F7  0872               	movf	___fladd@b+2,w
  2503     03F8  00FB               	movwf	___fladd@grs
  2504     03F9                     i1l1463:
  2505     03F9  0876               	movf	___fladd@a+2,w
  2506     03FA  00F2               	movwf	___fladd@b+2
  2507     03FB                     i1l1465:
  2508     03FB  087B               	movf	___fladd@grs,w
  2509     03FC  00F6               	movwf	___fladd@a+2
  2510     03FD                     i1l1467:
  2511     03FD  0873               	movf	___fladd@b+3,w
  2512     03FE  00FB               	movwf	___fladd@grs
  2513     03FF                     i1l1469:
  2514     03FF  0877               	movf	___fladd@a+3,w
  2515     0400  00F3               	movwf	___fladd@b+3
  2516     0401                     i1l1471:
  2517     0401  087B               	movf	___fladd@grs,w
  2518     0402  00F7               	movwf	___fladd@a+3
  2519     0403                     i1l1473:
  2520     0403  01FB               	clrf	___fladd@grs
  2521     0404                     i1l1475:
  2522     0404  0879               	movf	___fladd@aexp,w
  2523     0405  00A0               	movwf	??___fladd
  2524     0406  01A1               	clrf	??___fladd+1
  2525     0407  0821               	movf	??___fladd+1,w
  2526     0408  00A3               	movwf	??___fladd+3
  2527     0409  087A               	movf	___fladd@bexp,w
  2528     040A  0220               	subwf	??___fladd,w
  2529     040B  00A2               	movwf	??___fladd+2
  2530     040C  1C03               	skipc
  2531     040D  03A3               	decf	??___fladd+3,f
  2532     040E  0823               	movf	??___fladd+3,w
  2533     040F  3A80               	xorlw	128
  2534     0410  00FF               	movwf	btemp+1
  2535     0411  3080               	movlw	128
  2536     0412  027F               	subwf	btemp+1,w
  2537     0413  1D03               	skipz
  2538     0414  2C17               	goto	u157_25
  2539     0415  301A               	movlw	26
  2540     0416  0222               	subwf	??___fladd+2,w
  2541     0417                     u157_25:
  2542     0417  1C03               	skipc
  2543     0418  2C1A               	goto	u157_21
  2544     0419  2C1B               	goto	u157_20
  2545     041A                     u157_21:
  2546     041A  2C54               	goto	i1l1491
  2547     041B                     u157_20:
  2548     041B                     i1l1477:
  2549     041B  0873               	movf	___fladd@b+3,w
  2550     041C  0472               	iorwf	___fladd@b+2,w
  2551     041D  0471               	iorwf	___fladd@b+1,w
  2552     041E  0470               	iorwf	___fladd@b,w
  2553     041F  1D03               	skipz
  2554     0420  2C22               	goto	u158_21
  2555     0421  2C24               	goto	u158_20
  2556     0422                     u158_21:
  2557     0422  3001               	movlw	1
  2558     0423  2C25               	goto	u159_20
  2559     0424                     u158_20:
  2560     0424  3000               	movlw	0
  2561     0425                     u159_20:
  2562     0425  00FB               	movwf	___fladd@grs
  2563     0426  3000               	movlw	0
  2564     0427  00F3               	movwf	___fladd@b+3
  2565     0428  3000               	movlw	0
  2566     0429  00F2               	movwf	___fladd@b+2
  2567     042A  3000               	movlw	0
  2568     042B  00F1               	movwf	___fladd@b+1
  2569     042C  3000               	movlw	0
  2570     042D  00F0               	movwf	___fladd@b
  2571     042E  0879               	movf	___fladd@aexp,w
  2572     042F  00FA               	movwf	___fladd@bexp
  2573     0430  2C5A               	goto	i1l480
  2574     0431                     i1l482:
  2575     0431  1C7B               	btfss	___fladd@grs,0
  2576     0432  2C34               	goto	u160_21
  2577     0433  2C35               	goto	u160_20
  2578     0434                     u160_21:
  2579     0434  2C3E               	goto	i1l1481
  2580     0435                     u160_20:
  2581     0435                     i1l1479:
  2582     0435  087B               	movf	___fladd@grs,w
  2583     0436  1283               	bcf	3,5	;RP0=0, select bank0
  2584     0437  1303               	bcf	3,6	;RP1=0, select bank0
  2585     0438  00A0               	movwf	??___fladd
  2586     0439  1003               	clrc
  2587     043A  0C20               	rrf	??___fladd,w
  2588     043B  3801               	iorlw	1
  2589     043C  00FB               	movwf	___fladd@grs
  2590     043D  2C40               	goto	i1l1483
  2591     043E                     i1l1481:
  2592     043E  1003               	clrc
  2593     043F  0CFB               	rrf	___fladd@grs,f
  2594     0440                     i1l1483:
  2595     0440  1C70               	btfss	___fladd@b,0
  2596     0441  2C43               	goto	u161_21
  2597     0442  2C44               	goto	u161_20
  2598     0443                     u161_21:
  2599     0443  2C45               	goto	i1l1487
  2600     0444                     u161_20:
  2601     0444                     i1l1485:
  2602     0444  17FB               	bsf	___fladd@grs,7
  2603     0445                     i1l1487:
  2604     0445  3001               	movlw	1
  2605     0446  1283               	bcf	3,5	;RP0=0, select bank0
  2606     0447  1303               	bcf	3,6	;RP1=0, select bank0
  2607     0448  00A0               	movwf	??___fladd
  2608     0449                     u162_25:
  2609     0449  0D73               	rlf	___fladd@b+3,w
  2610     044A  0CF3               	rrf	___fladd@b+3,f
  2611     044B  0CF2               	rrf	___fladd@b+2,f
  2612     044C  0CF1               	rrf	___fladd@b+1,f
  2613     044D  0CF0               	rrf	___fladd@b,f
  2614     044E  0BA0               	decfsz	??___fladd& (0+127),f
  2615     044F  2C49               	goto	u162_25
  2616     0450                     i1l1489:
  2617     0450  3001               	movlw	1
  2618     0451  00A0               	movwf	??___fladd
  2619     0452  0820               	movf	??___fladd,w
  2620     0453  07FA               	addwf	___fladd@bexp,f
  2621     0454                     i1l1491:
  2622     0454  0879               	movf	___fladd@aexp,w
  2623     0455  027A               	subwf	___fladd@bexp,w
  2624     0456  1C03               	skipc
  2625     0457  2C59               	goto	u163_21
  2626     0458  2C5A               	goto	u163_20
  2627     0459                     u163_21:
  2628     0459  2C31               	goto	i1l482
  2629     045A                     u163_20:
  2630     045A                     i1l480:
  2631     045A  1B78               	btfsc	___fladd@signs,6
  2632     045B  2C5D               	goto	u164_21
  2633     045C  2C5E               	goto	u164_20
  2634     045D                     u164_21:
  2635     045D  2CAB               	goto	i1l1517
  2636     045E                     u164_20:
  2637     045E                     i1l1493:
  2638     045E  087A               	movf	___fladd@bexp,w
  2639     045F  1D03               	btfss	3,2
  2640     0460  2C62               	goto	u165_21
  2641     0461  2C63               	goto	u165_20
  2642     0462                     u165_21:
  2643     0462  2C6C               	goto	i1l1499
  2644     0463                     u165_20:
  2645     0463                     i1l1495:
  2646     0463  3000               	movlw	0
  2647     0464  00F3               	movwf	?___fladd+3
  2648     0465  3000               	movlw	0
  2649     0466  00F2               	movwf	?___fladd+2
  2650     0467  3000               	movlw	0
  2651     0468  00F1               	movwf	?___fladd+1
  2652     0469  3000               	movlw	0
  2653     046A  00F0               	movwf	?___fladd
  2654     046B  2DE1               	goto	i1l489
  2655     046C                     i1l1499:
  2656     046C  0874               	movf	___fladd@a,w
  2657     046D  07F0               	addwf	___fladd@b,f
  2658     046E  0875               	movf	___fladd@a+1,w
  2659     046F  1103               	clrz
  2660     0470  1803               	skipnc
  2661     0471  3E01               	addlw	1
  2662     0472  1903               	skipnz
  2663     0473  2C75               	goto	u166_21
  2664     0474  07F1               	addwf	___fladd@b+1,f
  2665     0475                     u166_21:
  2666     0475  0876               	movf	___fladd@a+2,w
  2667     0476  1103               	clrz
  2668     0477  1803               	skipnc
  2669     0478  3E01               	addlw	1
  2670     0479  1903               	skipnz
  2671     047A  2C7C               	goto	u166_22
  2672     047B  07F2               	addwf	___fladd@b+2,f
  2673     047C                     u166_22:
  2674     047C  0877               	movf	___fladd@a+3,w
  2675     047D  1103               	clrz
  2676     047E  1803               	skipnc
  2677     047F  3E01               	addlw	1
  2678     0480  1903               	skipnz
  2679     0481  2C83               	goto	u166_23
  2680     0482  07F3               	addwf	___fladd@b+3,f
  2681     0483                     u166_23:
  2682     0483                     i1l1501:
  2683     0483  1C73               	btfss	___fladd@b+3,0
  2684     0484  2C86               	goto	u167_21
  2685     0485  2C87               	goto	u167_20
  2686     0486                     u167_21:
  2687     0486  2D63               	goto	i1l1551
  2688     0487                     u167_20:
  2689     0487                     i1l1503:
  2690     0487  1C7B               	btfss	___fladd@grs,0
  2691     0488  2C8A               	goto	u168_21
  2692     0489  2C8B               	goto	u168_20
  2693     048A                     u168_21:
  2694     048A  2C94               	goto	i1l1507
  2695     048B                     u168_20:
  2696     048B                     i1l1505:
  2697     048B  087B               	movf	___fladd@grs,w
  2698     048C  1283               	bcf	3,5	;RP0=0, select bank0
  2699     048D  1303               	bcf	3,6	;RP1=0, select bank0
  2700     048E  00A0               	movwf	??___fladd
  2701     048F  1003               	clrc
  2702     0490  0C20               	rrf	??___fladd,w
  2703     0491  3801               	iorlw	1
  2704     0492  00FB               	movwf	___fladd@grs
  2705     0493  2C96               	goto	i1l1509
  2706     0494                     i1l1507:
  2707     0494  1003               	clrc
  2708     0495  0CFB               	rrf	___fladd@grs,f
  2709     0496                     i1l1509:
  2710     0496  1C70               	btfss	___fladd@b,0
  2711     0497  2C99               	goto	u169_21
  2712     0498  2C9A               	goto	u169_20
  2713     0499                     u169_21:
  2714     0499  2C9B               	goto	i1l1513
  2715     049A                     u169_20:
  2716     049A                     i1l1511:
  2717     049A  17FB               	bsf	___fladd@grs,7
  2718     049B                     i1l1513:
  2719     049B  3001               	movlw	1
  2720     049C  1283               	bcf	3,5	;RP0=0, select bank0
  2721     049D  1303               	bcf	3,6	;RP1=0, select bank0
  2722     049E  00A0               	movwf	??___fladd
  2723     049F                     u170_25:
  2724     049F  0D73               	rlf	___fladd@b+3,w
  2725     04A0  0CF3               	rrf	___fladd@b+3,f
  2726     04A1  0CF2               	rrf	___fladd@b+2,f
  2727     04A2  0CF1               	rrf	___fladd@b+1,f
  2728     04A3  0CF0               	rrf	___fladd@b,f
  2729     04A4  0BA0               	decfsz	??___fladd& (0+127),f
  2730     04A5  2C9F               	goto	u170_25
  2731     04A6                     i1l1515:
  2732     04A6  3001               	movlw	1
  2733     04A7  00A0               	movwf	??___fladd
  2734     04A8  0820               	movf	??___fladd,w
  2735     04A9  07FA               	addwf	___fladd@bexp,f
  2736     04AA  2D63               	goto	i1l1551
  2737     04AB                     i1l1517:
  2738     04AB  0873               	movf	___fladd@b+3,w
  2739     04AC  3A80               	xorlw	128
  2740     04AD  00FF               	movwf	btemp+1
  2741     04AE  0877               	movf	___fladd@a+3,w
  2742     04AF  3A80               	xorlw	128
  2743     04B0  027F               	subwf	btemp+1,w
  2744     04B1  1D03               	skipz
  2745     04B2  2CBD               	goto	u171_23
  2746     04B3  0876               	movf	___fladd@a+2,w
  2747     04B4  0272               	subwf	___fladd@b+2,w
  2748     04B5  1D03               	skipz
  2749     04B6  2CBD               	goto	u171_23
  2750     04B7  0875               	movf	___fladd@a+1,w
  2751     04B8  0271               	subwf	___fladd@b+1,w
  2752     04B9  1D03               	skipz
  2753     04BA  2CBD               	goto	u171_23
  2754     04BB  0874               	movf	___fladd@a,w
  2755     04BC  0270               	subwf	___fladd@b,w
  2756     04BD                     u171_23:
  2757     04BD  1803               	skipnc
  2758     04BE  2CC0               	goto	u171_21
  2759     04BF  2CC1               	goto	u171_20
  2760     04C0                     u171_21:
  2761     04C0  2D1B               	goto	i1l1527
  2762     04C1                     u171_20:
  2763     04C1                     i1l1519:
  2764     04C1  30FF               	movlw	255
  2765     04C2  1283               	bcf	3,5	;RP0=0, select bank0
  2766     04C3  1303               	bcf	3,6	;RP1=0, select bank0
  2767     04C4  00A0               	movwf	??___fladd
  2768     04C5  30FF               	movlw	255
  2769     04C6  00A1               	movwf	??___fladd+1
  2770     04C7  30FF               	movlw	255
  2771     04C8  00A2               	movwf	??___fladd+2
  2772     04C9  30FF               	movlw	255
  2773     04CA  00A3               	movwf	??___fladd+3
  2774     04CB  0874               	movf	___fladd@a,w
  2775     04CC  00A4               	movwf	??___fladd+4
  2776     04CD  0875               	movf	___fladd@a+1,w
  2777     04CE  00A5               	movwf	??___fladd+5
  2778     04CF  0876               	movf	___fladd@a+2,w
  2779     04D0  00A6               	movwf	??___fladd+6
  2780     04D1  0877               	movf	___fladd@a+3,w
  2781     04D2  00A7               	movwf	??___fladd+7
  2782     04D3  0870               	movf	___fladd@b,w
  2783     04D4  02A4               	subwf	??___fladd+4,f
  2784     04D5  0871               	movf	___fladd@b+1,w
  2785     04D6  1C03               	skipc
  2786     04D7  0F71               	incfsz	___fladd@b+1,w
  2787     04D8  2CDA               	goto	u172_21
  2788     04D9  2CDB               	goto	u172_22
  2789     04DA                     u172_21:
  2790     04DA  02A5               	subwf	??___fladd+5,f
  2791     04DB                     u172_22:
  2792     04DB  0872               	movf	___fladd@b+2,w
  2793     04DC  1C03               	skipc
  2794     04DD  0F72               	incfsz	___fladd@b+2,w
  2795     04DE  2CE0               	goto	u172_23
  2796     04DF  2CE1               	goto	u172_24
  2797     04E0                     u172_23:
  2798     04E0  02A6               	subwf	??___fladd+6,f
  2799     04E1                     u172_24:
  2800     04E1  0873               	movf	___fladd@b+3,w
  2801     04E2  1C03               	skipc
  2802     04E3  0F73               	incfsz	___fladd@b+3,w
  2803     04E4  2CE6               	goto	u172_25
  2804     04E5  2CE7               	goto	u172_26
  2805     04E6                     u172_25:
  2806     04E6  02A7               	subwf	??___fladd+7,f
  2807     04E7                     u172_26:
  2808     04E7  0824               	movf	??___fladd+4,w
  2809     04E8  07A0               	addwf	??___fladd,f
  2810     04E9  0825               	movf	??___fladd+5,w
  2811     04EA  1803               	skipnc
  2812     04EB  0F25               	incfsz	??___fladd+5,w
  2813     04EC  2CEE               	goto	u173_20
  2814     04ED  2CEF               	goto	u173_21
  2815     04EE                     u173_20:
  2816     04EE  07A1               	addwf	??___fladd+1,f
  2817     04EF                     u173_21:
  2818     04EF  0826               	movf	??___fladd+6,w
  2819     04F0  1803               	skipnc
  2820     04F1  0F26               	incfsz	??___fladd+6,w
  2821     04F2  2CF4               	goto	u173_22
  2822     04F3  2CF5               	goto	u173_23
  2823     04F4                     u173_22:
  2824     04F4  07A2               	addwf	??___fladd+2,f
  2825     04F5                     u173_23:
  2826     04F5  0827               	movf	??___fladd+7,w
  2827     04F6  1803               	skipnc
  2828     04F7  0A27               	incf	??___fladd+7,w
  2829     04F8  07A3               	addwf	??___fladd+3,f
  2830     04F9  0823               	movf	??___fladd+3,w
  2831     04FA  00F3               	movwf	___fladd@b+3
  2832     04FB  0822               	movf	??___fladd+2,w
  2833     04FC  00F2               	movwf	___fladd@b+2
  2834     04FD  0821               	movf	??___fladd+1,w
  2835     04FE  00F1               	movwf	___fladd@b+1
  2836     04FF  0820               	movf	??___fladd,w
  2837     0500  00F0               	movwf	___fladd@b
  2838     0501                     i1l1521:
  2839     0501  3080               	movlw	128
  2840     0502  00A0               	movwf	??___fladd
  2841     0503  0820               	movf	??___fladd,w
  2842     0504  06F8               	xorwf	___fladd@signs,f
  2843     0505  09FB               	comf	___fladd@grs,f
  2844     0506  0AFB               	incf	___fladd@grs,f
  2845     0507                     i1l1523:
  2846     0507  087B               	movf	___fladd@grs,w
  2847     0508  1D03               	btfss	3,2
  2848     0509  2D0B               	goto	u174_21
  2849     050A  2D0C               	goto	u174_20
  2850     050B                     u174_21:
  2851     050B  2D29               	goto	i1l497
  2852     050C                     u174_20:
  2853     050C                     i1l1525:
  2854     050C  3001               	movlw	1
  2855     050D  07F0               	addwf	___fladd@b,f
  2856     050E  3000               	movlw	0
  2857     050F  1803               	skipnc
  2858     0510  3001               	movlw	1
  2859     0511  07F1               	addwf	___fladd@b+1,f
  2860     0512  3000               	movlw	0
  2861     0513  1803               	skipnc
  2862     0514  3001               	movlw	1
  2863     0515  07F2               	addwf	___fladd@b+2,f
  2864     0516  3000               	movlw	0
  2865     0517  1803               	skipnc
  2866     0518  3001               	movlw	1
  2867     0519  07F3               	addwf	___fladd@b+3,f
  2868     051A  2D29               	goto	i1l497
  2869     051B                     i1l1527:
  2870     051B  0874               	movf	___fladd@a,w
  2871     051C  02F0               	subwf	___fladd@b,f
  2872     051D  0875               	movf	___fladd@a+1,w
  2873     051E  1C03               	skipc
  2874     051F  0F75               	incfsz	___fladd@a+1,w
  2875     0520  02F1               	subwf	___fladd@b+1,f
  2876     0521  0876               	movf	___fladd@a+2,w
  2877     0522  1C03               	skipc
  2878     0523  0F76               	incfsz	___fladd@a+2,w
  2879     0524  02F2               	subwf	___fladd@b+2,f
  2880     0525  0877               	movf	___fladd@a+3,w
  2881     0526  1C03               	skipc
  2882     0527  0F77               	incfsz	___fladd@a+3,w
  2883     0528  02F3               	subwf	___fladd@b+3,f
  2884     0529                     i1l497:
  2885     0529  0873               	movf	___fladd@b+3,w
  2886     052A  0472               	iorwf	___fladd@b+2,w
  2887     052B  0471               	iorwf	___fladd@b+1,w
  2888     052C  0470               	iorwf	___fladd@b,w
  2889     052D  1D03               	skipz
  2890     052E  2D30               	goto	u175_21
  2891     052F  2D31               	goto	u175_20
  2892     0530                     u175_21:
  2893     0530  2D5F               	goto	i1l1549
  2894     0531                     u175_20:
  2895     0531                     i1l1529:
  2896     0531  087B               	movf	___fladd@grs,w
  2897     0532  1D03               	btfss	3,2
  2898     0533  2D35               	goto	u176_21
  2899     0534  2D36               	goto	u176_20
  2900     0535                     u176_21:
  2901     0535  2D5F               	goto	i1l1549
  2902     0536                     u176_20:
  2903     0536                     i1l1531:
  2904     0536  3000               	movlw	0
  2905     0537  00F3               	movwf	?___fladd+3
  2906     0538  3000               	movlw	0
  2907     0539  00F2               	movwf	?___fladd+2
  2908     053A  3000               	movlw	0
  2909     053B  00F1               	movwf	?___fladd+1
  2910     053C  3000               	movlw	0
  2911     053D  00F0               	movwf	?___fladd
  2912     053E  2DE1               	goto	i1l489
  2913     053F                     i1l1535:
  2914     053F  3001               	movlw	1
  2915     0540  1283               	bcf	3,5	;RP0=0, select bank0
  2916     0541  1303               	bcf	3,6	;RP1=0, select bank0
  2917     0542  00A0               	movwf	??___fladd
  2918     0543                     u177_25:
  2919     0543  1003               	clrc
  2920     0544  0DF0               	rlf	___fladd@b,f
  2921     0545  0DF1               	rlf	___fladd@b+1,f
  2922     0546  0DF2               	rlf	___fladd@b+2,f
  2923     0547  0DF3               	rlf	___fladd@b+3,f
  2924     0548  0BA0               	decfsz	??___fladd,f
  2925     0549  2D43               	goto	u177_25
  2926     054A                     i1l1537:
  2927     054A  1FFB               	btfss	___fladd@grs,7
  2928     054B  2D4D               	goto	u178_21
  2929     054C  2D4E               	goto	u178_20
  2930     054D                     u178_21:
  2931     054D  2D4F               	goto	i1l501
  2932     054E                     u178_20:
  2933     054E                     i1l1539:
  2934     054E  1470               	bsf	___fladd@b,0
  2935     054F                     i1l501:
  2936     054F  1C7B               	btfss	___fladd@grs,0
  2937     0550  2D52               	goto	u179_21
  2938     0551  2D53               	goto	u179_20
  2939     0552                     u179_21:
  2940     0552  2D56               	goto	i1l1543
  2941     0553                     u179_20:
  2942     0553                     i1l1541:
  2943     0553  1403               	setc
  2944     0554  0DFB               	rlf	___fladd@grs,f
  2945     0555  2D58               	goto	i1l1545
  2946     0556                     i1l1543:
  2947     0556  1003               	clrc
  2948     0557  0DFB               	rlf	___fladd@grs,f
  2949     0558                     i1l1545:
  2950     0558  087A               	movf	___fladd@bexp,w
  2951     0559  1903               	btfsc	3,2
  2952     055A  2D5C               	goto	u180_21
  2953     055B  2D5D               	goto	u180_20
  2954     055C                     u180_21:
  2955     055C  2D5F               	goto	i1l1549
  2956     055D                     u180_20:
  2957     055D                     i1l1547:
  2958     055D  3001               	movlw	1
  2959     055E  02FA               	subwf	___fladd@bexp,f
  2960     055F                     i1l1549:
  2961     055F  1FF2               	btfss	___fladd@b+2,7
  2962     0560  2D62               	goto	u181_21
  2963     0561  2D63               	goto	u181_20
  2964     0562                     u181_21:
  2965     0562  2D3F               	goto	i1l1535
  2966     0563                     u181_20:
  2967     0563                     i1l1551:
  2968     0563  01F9               	clrf	___fladd@aexp
  2969     0564                     i1l1553:
  2970     0564  1FFB               	btfss	___fladd@grs,7
  2971     0565  2D67               	goto	u182_21
  2972     0566  2D68               	goto	u182_20
  2973     0567                     u182_21:
  2974     0567  2D76               	goto	i1l1561
  2975     0568                     u182_20:
  2976     0568                     i1l1555:
  2977     0568  087B               	movf	___fladd@grs,w
  2978     0569  397F               	andlw	127
  2979     056A  1903               	btfsc	3,2
  2980     056B  2D6D               	goto	u183_21
  2981     056C  2D6E               	goto	u183_20
  2982     056D                     u183_21:
  2983     056D  2D71               	goto	i1l507
  2984     056E                     u183_20:
  2985     056E                     i1l1557:
  2986     056E  01F9               	clrf	___fladd@aexp
  2987     056F  0AF9               	incf	___fladd@aexp,f
  2988     0570  2D76               	goto	i1l1561
  2989     0571                     i1l507:
  2990     0571  1C70               	btfss	___fladd@b,0
  2991     0572  2D74               	goto	u184_21
  2992     0573  2D75               	goto	u184_20
  2993     0574                     u184_21:
  2994     0574  2D76               	goto	i1l1561
  2995     0575                     u184_20:
  2996     0575  2D6E               	goto	i1l1557
  2997     0576                     i1l1561:
  2998     0576  0879               	movf	___fladd@aexp,w
  2999     0577  1903               	btfsc	3,2
  3000     0578  2D7A               	goto	u185_21
  3001     0579  2D7B               	goto	u185_20
  3002     057A                     u185_21:
  3003     057A  2DB1               	goto	i1l510
  3004     057B                     u185_20:
  3005     057B                     i1l1563:
  3006     057B  3001               	movlw	1
  3007     057C  07F0               	addwf	___fladd@b,f
  3008     057D  3000               	movlw	0
  3009     057E  1803               	skipnc
  3010     057F  3001               	movlw	1
  3011     0580  07F1               	addwf	___fladd@b+1,f
  3012     0581  3000               	movlw	0
  3013     0582  1803               	skipnc
  3014     0583  3001               	movlw	1
  3015     0584  07F2               	addwf	___fladd@b+2,f
  3016     0585  3000               	movlw	0
  3017     0586  1803               	skipnc
  3018     0587  3001               	movlw	1
  3019     0588  07F3               	addwf	___fladd@b+3,f
  3020     0589                     i1l1565:
  3021     0589  1C73               	btfss	___fladd@b+3,0
  3022     058A  2D8C               	goto	u186_21
  3023     058B  2D8D               	goto	u186_20
  3024     058C                     u186_21:
  3025     058C  2DB1               	goto	i1l510
  3026     058D                     u186_20:
  3027     058D                     i1l1567:
  3028     058D  0870               	movf	___fladd@b,w
  3029     058E  1283               	bcf	3,5	;RP0=0, select bank0
  3030     058F  1303               	bcf	3,6	;RP1=0, select bank0
  3031     0590  00A0               	movwf	??___fladd
  3032     0591  0871               	movf	___fladd@b+1,w
  3033     0592  00A1               	movwf	??___fladd+1
  3034     0593  0872               	movf	___fladd@b+2,w
  3035     0594  00A2               	movwf	??___fladd+2
  3036     0595  0873               	movf	___fladd@b+3,w
  3037     0596  00A3               	movwf	??___fladd+3
  3038     0597  3001               	movlw	1
  3039     0598  00A4               	movwf	??___fladd+4
  3040     0599                     u187_25:
  3041     0599  0D23               	rlf	??___fladd+3,w
  3042     059A  0CA3               	rrf	??___fladd+3,f
  3043     059B  0CA2               	rrf	??___fladd+2,f
  3044     059C  0CA1               	rrf	??___fladd+1,f
  3045     059D  0CA0               	rrf	??___fladd,f
  3046     059E                     u187_20:
  3047     059E  0BA4               	decfsz	??___fladd+4,f
  3048     059F  2D99               	goto	u187_25
  3049     05A0  0823               	movf	??___fladd+3,w
  3050     05A1  00F3               	movwf	___fladd@b+3
  3051     05A2  0822               	movf	??___fladd+2,w
  3052     05A3  00F2               	movwf	___fladd@b+2
  3053     05A4  0821               	movf	??___fladd+1,w
  3054     05A5  00F1               	movwf	___fladd@b+1
  3055     05A6  0820               	movf	??___fladd,w
  3056     05A7  00F0               	movwf	___fladd@b
  3057     05A8  0A7A               	incf	___fladd@bexp,w
  3058     05A9  1903               	btfsc	3,2
  3059     05AA  2DAC               	goto	u188_21
  3060     05AB  2DAD               	goto	u188_20
  3061     05AC                     u188_21:
  3062     05AC  2DB1               	goto	i1l510
  3063     05AD                     u188_20:
  3064     05AD                     i1l1569:
  3065     05AD  3001               	movlw	1
  3066     05AE  00A0               	movwf	??___fladd
  3067     05AF  0820               	movf	??___fladd,w
  3068     05B0  07FA               	addwf	___fladd@bexp,f
  3069     05B1                     i1l510:
  3070     05B1  0A7A               	incf	___fladd@bexp,w
  3071     05B2  1903               	btfsc	3,2
  3072     05B3  2DB5               	goto	u189_21
  3073     05B4  2DB6               	goto	u189_20
  3074     05B5                     u189_21:
  3075     05B5  2DBB               	goto	i1l1573
  3076     05B6                     u189_20:
  3077     05B6                     i1l1571:
  3078     05B6  087A               	movf	___fladd@bexp,w
  3079     05B7  1D03               	btfss	3,2
  3080     05B8  2DBA               	goto	u190_21
  3081     05B9  2DBB               	goto	u190_20
  3082     05BA                     u190_21:
  3083     05BA  2DC9               	goto	i1l1579
  3084     05BB                     u190_20:
  3085     05BB                     i1l1573:
  3086     05BB  3000               	movlw	0
  3087     05BC  00F3               	movwf	___fladd@b+3
  3088     05BD  3000               	movlw	0
  3089     05BE  00F2               	movwf	___fladd@b+2
  3090     05BF  3000               	movlw	0
  3091     05C0  00F1               	movwf	___fladd@b+1
  3092     05C1  3000               	movlw	0
  3093     05C2  00F0               	movwf	___fladd@b
  3094     05C3                     i1l1575:
  3095     05C3  087A               	movf	___fladd@bexp,w
  3096     05C4  1D03               	btfss	3,2
  3097     05C5  2DC7               	goto	u191_21
  3098     05C6  2DC8               	goto	u191_20
  3099     05C7                     u191_21:
  3100     05C7  2DC9               	goto	i1l1579
  3101     05C8                     u191_20:
  3102     05C8                     i1l1577:
  3103     05C8  01F8               	clrf	___fladd@signs
  3104     05C9                     i1l1579:
  3105     05C9  1C7A               	btfss	___fladd@bexp,0
  3106     05CA  2DCC               	goto	u192_21
  3107     05CB  2DCD               	goto	u192_20
  3108     05CC                     u192_21:
  3109     05CC  2DCF               	goto	i1l1583
  3110     05CD                     u192_20:
  3111     05CD                     i1l1581:
  3112     05CD  17F2               	bsf	___fladd@b+2,7
  3113     05CE  2DD5               	goto	i1l518
  3114     05CF                     i1l1583:
  3115     05CF  307F               	movlw	127
  3116     05D0  1283               	bcf	3,5	;RP0=0, select bank0
  3117     05D1  1303               	bcf	3,6	;RP1=0, select bank0
  3118     05D2  00A0               	movwf	??___fladd
  3119     05D3  0820               	movf	??___fladd,w
  3120     05D4  05F2               	andwf	___fladd@b+2,f
  3121     05D5                     i1l518:
  3122     05D5  087A               	movf	___fladd@bexp,w
  3123     05D6  1283               	bcf	3,5	;RP0=0, select bank0
  3124     05D7  1303               	bcf	3,6	;RP1=0, select bank0
  3125     05D8  00A0               	movwf	??___fladd
  3126     05D9  1003               	clrc
  3127     05DA  0C20               	rrf	??___fladd,w
  3128     05DB  00F3               	movwf	___fladd@b+3
  3129     05DC                     i1l1585:
  3130     05DC  1FF8               	btfss	___fladd@signs,7
  3131     05DD  2DDF               	goto	u193_21
  3132     05DE  2DE0               	goto	u193_20
  3133     05DF                     u193_21:
  3134     05DF  2DE1               	goto	i1l519
  3135     05E0                     u193_20:
  3136     05E0                     i1l1587:
  3137     05E0  17F3               	bsf	___fladd@b+3,7
  3138     05E1                     i1l519:
  3139     05E1                     i1l489:
  3140     05E1  0008               	return
  3141     05E2                     __end_of___fladd:
  3142                           
  3143                           	psect	text10
  3144     0037                     __ptext10:	
  3145 ;; *************** function ___flmul *****************
  3146 ;; Defined at:
  3147 ;;		line 8 in file "C:\Program Files\Microchip\xc8\v2.40\pic\sources\c90\common\sprcmul.c"
  3148 ;; Parameters:    Size  Location     Type
  3149 ;;  b               4   22[BANK0 ] unsigned char 
  3150 ;;  a               4   26[BANK0 ] unsigned char 
  3151 ;; Auto vars:     Size  Location     Type
  3152 ;;  prod            4   42[BANK0 ] struct .
  3153 ;;  grs             4   36[BANK0 ] unsigned long 
  3154 ;;  temp            2   46[BANK0 ] struct .
  3155 ;;  bexp            1   41[BANK0 ] unsigned char 
  3156 ;;  aexp            1   40[BANK0 ] unsigned char 
  3157 ;;  sign            1   35[BANK0 ] unsigned char 
  3158 ;; Return value:  Size  Location     Type
  3159 ;;                  4   22[BANK0 ] unsigned char 
  3160 ;; Registers used:
  3161 ;;		wreg, status,2, status,0, btemp+1, pclath, cstack
  3162 ;; Tracked objects:
  3163 ;;		On entry : 0/0
  3164 ;;		On exit  : 0/0
  3165 ;;		Unchanged: 0/0
  3166 ;; Data sizes:     COMMON   BANK0   BANK1   BANK3   BANK2
  3167 ;;      Params:         0       8       0       0       0
  3168 ;;      Locals:         0      13       0       0       0
  3169 ;;      Temps:          0       5       0       0       0
  3170 ;;      Totals:         0      26       0       0       0
  3171 ;;Total ram usage:       26 bytes
  3172 ;; Hardware stack levels used: 1
  3173 ;; Hardware stack levels required when called: 1
  3174 ;; This function calls:
  3175 ;;		__Umul8_16
  3176 ;; This function is called by:
  3177 ;;		_getDigits
  3178 ;; This function uses a non-reentrant model
  3179 ;;
  3180                           
  3181     0037                     ___flmul:	
  3182                           ;psect for function ___flmul
  3183                           
  3184     0037                     i1l1801:	
  3185                           ;incstack = 0
  3186                           ; Regs used in ___flmul: [wreg+status,2+status,0+btemp+1+pclath+cstack]
  3187                           
  3188     0037  1283               	bcf	3,5	;RP0=0, select bank0
  3189     0038  1303               	bcf	3,6	;RP1=0, select bank0
  3190     0039  0839               	movf	___flmul@b+3,w
  3191     003A  3980               	andlw	128
  3192     003B  00C3               	movwf	___flmul@sign
  3193     003C                     i1l1803:
  3194     003C  0839               	movf	___flmul@b+3,w
  3195     003D  00BE               	movwf	??___flmul
  3196     003E  073E               	addwf	??___flmul,w
  3197     003F  00C9               	movwf	___flmul@bexp
  3198     0040                     i1l1805:
  3199     0040  1FB8               	btfss	___flmul@b+2,7
  3200     0041  2843               	goto	u241_21
  3201     0042  2844               	goto	u241_20
  3202     0043                     u241_21:
  3203     0043  2845               	goto	i1l1809
  3204     0044                     u241_20:
  3205     0044                     i1l1807:
  3206     0044  1449               	bsf	___flmul@bexp,0
  3207     0045                     i1l1809:
  3208     0045  0849               	movf	___flmul@bexp,w
  3209     0046  1903               	btfsc	3,2
  3210     0047  2849               	goto	u242_21
  3211     0048  284A               	goto	u242_20
  3212     0049                     u242_21:
  3213     0049  2859               	goto	i1l1817
  3214     004A                     u242_20:
  3215     004A                     i1l1811:
  3216     004A  0A49               	incf	___flmul@bexp,w
  3217     004B  1D03               	btfss	3,2
  3218     004C  284E               	goto	u243_21
  3219     004D  284F               	goto	u243_20
  3220     004E                     u243_21:
  3221     004E  2857               	goto	i1l1815
  3222     004F                     u243_20:
  3223     004F                     i1l1813:
  3224     004F  3000               	movlw	0
  3225     0050  00B9               	movwf	___flmul@b+3
  3226     0051  3000               	movlw	0
  3227     0052  00B8               	movwf	___flmul@b+2
  3228     0053  3000               	movlw	0
  3229     0054  00B7               	movwf	___flmul@b+1
  3230     0055  3000               	movlw	0
  3231     0056  00B6               	movwf	___flmul@b
  3232     0057                     i1l1815:
  3233     0057  17B8               	bsf	___flmul@b+2,7
  3234     0058  2861               	goto	i1l1819
  3235     0059                     i1l1817:
  3236     0059  3000               	movlw	0
  3237     005A  00B9               	movwf	___flmul@b+3
  3238     005B  3000               	movlw	0
  3239     005C  00B8               	movwf	___flmul@b+2
  3240     005D  3000               	movlw	0
  3241     005E  00B7               	movwf	___flmul@b+1
  3242     005F  3000               	movlw	0
  3243     0060  00B6               	movwf	___flmul@b
  3244     0061                     i1l1819:
  3245     0061  083D               	movf	___flmul@a+3,w
  3246     0062  3980               	andlw	128
  3247     0063  00BE               	movwf	??___flmul
  3248     0064  083E               	movf	??___flmul,w
  3249     0065  06C3               	xorwf	___flmul@sign,f
  3250     0066                     i1l1821:
  3251     0066  083D               	movf	___flmul@a+3,w
  3252     0067  00BE               	movwf	??___flmul
  3253     0068  073E               	addwf	??___flmul,w
  3254     0069  00C8               	movwf	___flmul@aexp
  3255     006A                     i1l1823:
  3256     006A  1FBC               	btfss	___flmul@a+2,7
  3257     006B  286D               	goto	u244_21
  3258     006C  286E               	goto	u244_20
  3259     006D                     u244_21:
  3260     006D  286F               	goto	i1l1827
  3261     006E                     u244_20:
  3262     006E                     i1l1825:
  3263     006E  1448               	bsf	___flmul@aexp,0
  3264     006F                     i1l1827:
  3265     006F  0848               	movf	___flmul@aexp,w
  3266     0070  1903               	btfsc	3,2
  3267     0071  2873               	goto	u245_21
  3268     0072  2874               	goto	u245_20
  3269     0073                     u245_21:
  3270     0073  2883               	goto	i1l1835
  3271     0074                     u245_20:
  3272     0074                     i1l1829:
  3273     0074  0A48               	incf	___flmul@aexp,w
  3274     0075  1D03               	btfss	3,2
  3275     0076  2878               	goto	u246_21
  3276     0077  2879               	goto	u246_20
  3277     0078                     u246_21:
  3278     0078  2881               	goto	i1l1833
  3279     0079                     u246_20:
  3280     0079                     i1l1831:
  3281     0079  3000               	movlw	0
  3282     007A  00BD               	movwf	___flmul@a+3
  3283     007B  3000               	movlw	0
  3284     007C  00BC               	movwf	___flmul@a+2
  3285     007D  3000               	movlw	0
  3286     007E  00BB               	movwf	___flmul@a+1
  3287     007F  3000               	movlw	0
  3288     0080  00BA               	movwf	___flmul@a
  3289     0081                     i1l1833:
  3290     0081  17BC               	bsf	___flmul@a+2,7
  3291     0082  288B               	goto	i1l1837
  3292     0083                     i1l1835:
  3293     0083  3000               	movlw	0
  3294     0084  00BD               	movwf	___flmul@a+3
  3295     0085  3000               	movlw	0
  3296     0086  00BC               	movwf	___flmul@a+2
  3297     0087  3000               	movlw	0
  3298     0088  00BB               	movwf	___flmul@a+1
  3299     0089  3000               	movlw	0
  3300     008A  00BA               	movwf	___flmul@a
  3301     008B                     i1l1837:
  3302     008B  0848               	movf	___flmul@aexp,w
  3303     008C  1903               	btfsc	3,2
  3304     008D  288F               	goto	u247_21
  3305     008E  2890               	goto	u247_20
  3306     008F                     u247_21:
  3307     008F  2895               	goto	i1l1841
  3308     0090                     u247_20:
  3309     0090                     i1l1839:
  3310     0090  0849               	movf	___flmul@bexp,w
  3311     0091  1D03               	btfss	3,2
  3312     0092  2894               	goto	u248_21
  3313     0093  2895               	goto	u248_20
  3314     0094                     u248_21:
  3315     0094  289E               	goto	i1l1845
  3316     0095                     u248_20:
  3317     0095                     i1l1841:
  3318     0095  3000               	movlw	0
  3319     0096  00B9               	movwf	?___flmul+3
  3320     0097  3000               	movlw	0
  3321     0098  00B8               	movwf	?___flmul+2
  3322     0099  3000               	movlw	0
  3323     009A  00B7               	movwf	?___flmul+1
  3324     009B  3000               	movlw	0
  3325     009C  00B6               	movwf	?___flmul
  3326     009D  2B7B               	goto	i1l572
  3327     009E                     i1l1845:
  3328     009E  0836               	movf	___flmul@b,w
  3329     009F  00F0               	movwf	__Umul8_16@multiplicand
  3330     00A0  083C               	movf	___flmul@a+2,w
  3331     00A1  120A  118A  27BB  120A  118A  	fcall	__Umul8_16
  3332     00A6  0871               	movf	?__Umul8_16+1,w
  3333     00A7  1283               	bcf	3,5	;RP0=0, select bank0
  3334     00A8  1303               	bcf	3,6	;RP1=0, select bank0
  3335     00A9  00CF               	movwf	___flmul@temp+1
  3336     00AA  0870               	movf	?__Umul8_16,w
  3337     00AB  00CE               	movwf	___flmul@temp
  3338     00AC                     i1l1847:
  3339     00AC  084E               	movf	___flmul@temp,w
  3340     00AD  00BE               	movwf	??___flmul
  3341     00AE  01BF               	clrf	??___flmul+1
  3342     00AF  01C0               	clrf	??___flmul+2
  3343     00B0  01C1               	clrf	??___flmul+3
  3344     00B1  0841               	movf	??___flmul+3,w
  3345     00B2  00C7               	movwf	___flmul@grs+3
  3346     00B3  0840               	movf	??___flmul+2,w
  3347     00B4  00C6               	movwf	___flmul@grs+2
  3348     00B5  083F               	movf	??___flmul+1,w
  3349     00B6  00C5               	movwf	___flmul@grs+1
  3350     00B7  083E               	movf	??___flmul,w
  3351     00B8  00C4               	movwf	___flmul@grs
  3352     00B9                     i1l1849:
  3353     00B9  084F               	movf	___flmul@temp+1,w
  3354     00BA  00BE               	movwf	??___flmul
  3355     00BB  01BF               	clrf	??___flmul+1
  3356     00BC  01C0               	clrf	??___flmul+2
  3357     00BD  01C1               	clrf	??___flmul+3
  3358     00BE  0841               	movf	??___flmul+3,w
  3359     00BF  00CD               	movwf	___flmul@prod+3
  3360     00C0  0840               	movf	??___flmul+2,w
  3361     00C1  00CC               	movwf	___flmul@prod+2
  3362     00C2  083F               	movf	??___flmul+1,w
  3363     00C3  00CB               	movwf	___flmul@prod+1
  3364     00C4  083E               	movf	??___flmul,w
  3365     00C5  00CA               	movwf	___flmul@prod
  3366     00C6  0837               	movf	___flmul@b+1,w
  3367     00C7  00F0               	movwf	__Umul8_16@multiplicand
  3368     00C8  083B               	movf	___flmul@a+1,w
  3369     00C9  120A  118A  27BB  120A  118A  	fcall	__Umul8_16
  3370     00CE  0871               	movf	?__Umul8_16+1,w
  3371     00CF  1283               	bcf	3,5	;RP0=0, select bank0
  3372     00D0  1303               	bcf	3,6	;RP1=0, select bank0
  3373     00D1  00CF               	movwf	___flmul@temp+1
  3374     00D2  0870               	movf	?__Umul8_16,w
  3375     00D3  00CE               	movwf	___flmul@temp
  3376     00D4                     i1l1851:
  3377     00D4  084E               	movf	___flmul@temp,w
  3378     00D5  00BE               	movwf	??___flmul
  3379     00D6  01BF               	clrf	??___flmul+1
  3380     00D7  01C0               	clrf	??___flmul+2
  3381     00D8  01C1               	clrf	??___flmul+3
  3382     00D9  083E               	movf	??___flmul,w
  3383     00DA  07C4               	addwf	___flmul@grs,f
  3384     00DB  083F               	movf	??___flmul+1,w
  3385     00DC  1103               	clrz
  3386     00DD  1803               	skipnc
  3387     00DE  3E01               	addlw	1
  3388     00DF  1903               	skipnz
  3389     00E0  28E2               	goto	u249_21
  3390     00E1  07C5               	addwf	___flmul@grs+1,f
  3391     00E2                     u249_21:
  3392     00E2  0840               	movf	??___flmul+2,w
  3393     00E3  1103               	clrz
  3394     00E4  1803               	skipnc
  3395     00E5  3E01               	addlw	1
  3396     00E6  1903               	skipnz
  3397     00E7  28E9               	goto	u249_22
  3398     00E8  07C6               	addwf	___flmul@grs+2,f
  3399     00E9                     u249_22:
  3400     00E9  0841               	movf	??___flmul+3,w
  3401     00EA  1103               	clrz
  3402     00EB  1803               	skipnc
  3403     00EC  3E01               	addlw	1
  3404     00ED  1903               	skipnz
  3405     00EE  28F0               	goto	u249_23
  3406     00EF  07C7               	addwf	___flmul@grs+3,f
  3407     00F0                     u249_23:
  3408     00F0                     i1l1853:
  3409     00F0  084F               	movf	___flmul@temp+1,w
  3410     00F1  00BE               	movwf	??___flmul
  3411     00F2  01BF               	clrf	??___flmul+1
  3412     00F3  01C0               	clrf	??___flmul+2
  3413     00F4  01C1               	clrf	??___flmul+3
  3414     00F5  083E               	movf	??___flmul,w
  3415     00F6  07CA               	addwf	___flmul@prod,f
  3416     00F7  083F               	movf	??___flmul+1,w
  3417     00F8  1103               	clrz
  3418     00F9  1803               	skipnc
  3419     00FA  3E01               	addlw	1
  3420     00FB  1903               	skipnz
  3421     00FC  28FE               	goto	u250_21
  3422     00FD  07CB               	addwf	___flmul@prod+1,f
  3423     00FE                     u250_21:
  3424     00FE  0840               	movf	??___flmul+2,w
  3425     00FF  1103               	clrz
  3426     0100  1803               	skipnc
  3427     0101  3E01               	addlw	1
  3428     0102  1903               	skipnz
  3429     0103  2905               	goto	u250_22
  3430     0104  07CC               	addwf	___flmul@prod+2,f
  3431     0105                     u250_22:
  3432     0105  0841               	movf	??___flmul+3,w
  3433     0106  1103               	clrz
  3434     0107  1803               	skipnc
  3435     0108  3E01               	addlw	1
  3436     0109  1903               	skipnz
  3437     010A  290C               	goto	u250_23
  3438     010B  07CD               	addwf	___flmul@prod+3,f
  3439     010C                     u250_23:
  3440     010C  0838               	movf	___flmul@b+2,w
  3441     010D  00F0               	movwf	__Umul8_16@multiplicand
  3442     010E  083A               	movf	___flmul@a,w
  3443     010F  120A  118A  27BB  120A  118A  	fcall	__Umul8_16
  3444     0114  0871               	movf	?__Umul8_16+1,w
  3445     0115  1283               	bcf	3,5	;RP0=0, select bank0
  3446     0116  1303               	bcf	3,6	;RP1=0, select bank0
  3447     0117  00CF               	movwf	___flmul@temp+1
  3448     0118  0870               	movf	?__Umul8_16,w
  3449     0119  00CE               	movwf	___flmul@temp
  3450     011A                     i1l1855:
  3451     011A  084E               	movf	___flmul@temp,w
  3452     011B  00BE               	movwf	??___flmul
  3453     011C  01BF               	clrf	??___flmul+1
  3454     011D  01C0               	clrf	??___flmul+2
  3455     011E  01C1               	clrf	??___flmul+3
  3456     011F  083E               	movf	??___flmul,w
  3457     0120  07C4               	addwf	___flmul@grs,f
  3458     0121  083F               	movf	??___flmul+1,w
  3459     0122  1103               	clrz
  3460     0123  1803               	skipnc
  3461     0124  3E01               	addlw	1
  3462     0125  1903               	skipnz
  3463     0126  2928               	goto	u251_21
  3464     0127  07C5               	addwf	___flmul@grs+1,f
  3465     0128                     u251_21:
  3466     0128  0840               	movf	??___flmul+2,w
  3467     0129  1103               	clrz
  3468     012A  1803               	skipnc
  3469     012B  3E01               	addlw	1
  3470     012C  1903               	skipnz
  3471     012D  292F               	goto	u251_22
  3472     012E  07C6               	addwf	___flmul@grs+2,f
  3473     012F                     u251_22:
  3474     012F  0841               	movf	??___flmul+3,w
  3475     0130  1103               	clrz
  3476     0131  1803               	skipnc
  3477     0132  3E01               	addlw	1
  3478     0133  1903               	skipnz
  3479     0134  2936               	goto	u251_23
  3480     0135  07C7               	addwf	___flmul@grs+3,f
  3481     0136                     u251_23:
  3482     0136                     i1l1857:
  3483     0136  084F               	movf	___flmul@temp+1,w
  3484     0137  00BE               	movwf	??___flmul
  3485     0138  01BF               	clrf	??___flmul+1
  3486     0139  01C0               	clrf	??___flmul+2
  3487     013A  01C1               	clrf	??___flmul+3
  3488     013B  083E               	movf	??___flmul,w
  3489     013C  07CA               	addwf	___flmul@prod,f
  3490     013D  083F               	movf	??___flmul+1,w
  3491     013E  1103               	clrz
  3492     013F  1803               	skipnc
  3493     0140  3E01               	addlw	1
  3494     0141  1903               	skipnz
  3495     0142  2944               	goto	u252_21
  3496     0143  07CB               	addwf	___flmul@prod+1,f
  3497     0144                     u252_21:
  3498     0144  0840               	movf	??___flmul+2,w
  3499     0145  1103               	clrz
  3500     0146  1803               	skipnc
  3501     0147  3E01               	addlw	1
  3502     0148  1903               	skipnz
  3503     0149  294B               	goto	u252_22
  3504     014A  07CC               	addwf	___flmul@prod+2,f
  3505     014B                     u252_22:
  3506     014B  0841               	movf	??___flmul+3,w
  3507     014C  1103               	clrz
  3508     014D  1803               	skipnc
  3509     014E  3E01               	addlw	1
  3510     014F  1903               	skipnz
  3511     0150  2952               	goto	u252_23
  3512     0151  07CD               	addwf	___flmul@prod+3,f
  3513     0152                     u252_23:
  3514     0152                     i1l1859:
  3515     0152  3008               	movlw	8
  3516     0153  00BE               	movwf	??___flmul
  3517     0154                     u253_25:
  3518     0154  1003               	clrc
  3519     0155  0DC4               	rlf	___flmul@grs,f
  3520     0156  0DC5               	rlf	___flmul@grs+1,f
  3521     0157  0DC6               	rlf	___flmul@grs+2,f
  3522     0158  0DC7               	rlf	___flmul@grs+3,f
  3523     0159  0BBE               	decfsz	??___flmul,f
  3524     015A  2954               	goto	u253_25
  3525     015B                     i1l1861:
  3526     015B  0837               	movf	___flmul@b+1,w
  3527     015C  00F0               	movwf	__Umul8_16@multiplicand
  3528     015D  083A               	movf	___flmul@a,w
  3529     015E  120A  118A  27BB  120A  118A  	fcall	__Umul8_16
  3530     0163  0871               	movf	?__Umul8_16+1,w
  3531     0164  1283               	bcf	3,5	;RP0=0, select bank0
  3532     0165  1303               	bcf	3,6	;RP1=0, select bank0
  3533     0166  00CF               	movwf	___flmul@temp+1
  3534     0167  0870               	movf	?__Umul8_16,w
  3535     0168  00CE               	movwf	___flmul@temp
  3536     0169                     i1l1863:
  3537     0169  084E               	movf	___flmul@temp,w
  3538     016A  00BE               	movwf	??___flmul
  3539     016B  084F               	movf	___flmul@temp+1,w
  3540     016C  00BF               	movwf	??___flmul+1
  3541     016D  01C0               	clrf	??___flmul+2
  3542     016E  01C1               	clrf	??___flmul+3
  3543     016F  083E               	movf	??___flmul,w
  3544     0170  07C4               	addwf	___flmul@grs,f
  3545     0171  083F               	movf	??___flmul+1,w
  3546     0172  1103               	clrz
  3547     0173  1803               	skipnc
  3548     0174  3E01               	addlw	1
  3549     0175  1903               	skipnz
  3550     0176  2978               	goto	u254_21
  3551     0177  07C5               	addwf	___flmul@grs+1,f
  3552     0178                     u254_21:
  3553     0178  0840               	movf	??___flmul+2,w
  3554     0179  1103               	clrz
  3555     017A  1803               	skipnc
  3556     017B  3E01               	addlw	1
  3557     017C  1903               	skipnz
  3558     017D  297F               	goto	u254_22
  3559     017E  07C6               	addwf	___flmul@grs+2,f
  3560     017F                     u254_22:
  3561     017F  0841               	movf	??___flmul+3,w
  3562     0180  1103               	clrz
  3563     0181  1803               	skipnc
  3564     0182  3E01               	addlw	1
  3565     0183  1903               	skipnz
  3566     0184  2986               	goto	u254_23
  3567     0185  07C7               	addwf	___flmul@grs+3,f
  3568     0186                     u254_23:
  3569     0186                     i1l1865:
  3570     0186  0836               	movf	___flmul@b,w
  3571     0187  00F0               	movwf	__Umul8_16@multiplicand
  3572     0188  083B               	movf	___flmul@a+1,w
  3573     0189  120A  118A  27BB  120A  118A  	fcall	__Umul8_16
  3574     018E  0871               	movf	?__Umul8_16+1,w
  3575     018F  1283               	bcf	3,5	;RP0=0, select bank0
  3576     0190  1303               	bcf	3,6	;RP1=0, select bank0
  3577     0191  00CF               	movwf	___flmul@temp+1
  3578     0192  0870               	movf	?__Umul8_16,w
  3579     0193  00CE               	movwf	___flmul@temp
  3580     0194                     i1l1867:
  3581     0194  084E               	movf	___flmul@temp,w
  3582     0195  00BE               	movwf	??___flmul
  3583     0196  084F               	movf	___flmul@temp+1,w
  3584     0197  00BF               	movwf	??___flmul+1
  3585     0198  01C0               	clrf	??___flmul+2
  3586     0199  01C1               	clrf	??___flmul+3
  3587     019A  083E               	movf	??___flmul,w
  3588     019B  07C4               	addwf	___flmul@grs,f
  3589     019C  083F               	movf	??___flmul+1,w
  3590     019D  1103               	clrz
  3591     019E  1803               	skipnc
  3592     019F  3E01               	addlw	1
  3593     01A0  1903               	skipnz
  3594     01A1  29A3               	goto	u255_21
  3595     01A2  07C5               	addwf	___flmul@grs+1,f
  3596     01A3                     u255_21:
  3597     01A3  0840               	movf	??___flmul+2,w
  3598     01A4  1103               	clrz
  3599     01A5  1803               	skipnc
  3600     01A6  3E01               	addlw	1
  3601     01A7  1903               	skipnz
  3602     01A8  29AA               	goto	u255_22
  3603     01A9  07C6               	addwf	___flmul@grs+2,f
  3604     01AA                     u255_22:
  3605     01AA  0841               	movf	??___flmul+3,w
  3606     01AB  1103               	clrz
  3607     01AC  1803               	skipnc
  3608     01AD  3E01               	addlw	1
  3609     01AE  1903               	skipnz
  3610     01AF  29B1               	goto	u255_23
  3611     01B0  07C7               	addwf	___flmul@grs+3,f
  3612     01B1                     u255_23:
  3613     01B1                     i1l1869:
  3614     01B1  3008               	movlw	8
  3615     01B2  00BE               	movwf	??___flmul
  3616     01B3                     u256_25:
  3617     01B3  1003               	clrc
  3618     01B4  0DC4               	rlf	___flmul@grs,f
  3619     01B5  0DC5               	rlf	___flmul@grs+1,f
  3620     01B6  0DC6               	rlf	___flmul@grs+2,f
  3621     01B7  0DC7               	rlf	___flmul@grs+3,f
  3622     01B8  0BBE               	decfsz	??___flmul,f
  3623     01B9  29B3               	goto	u256_25
  3624     01BA  0836               	movf	___flmul@b,w
  3625     01BB  00F0               	movwf	__Umul8_16@multiplicand
  3626     01BC  083A               	movf	___flmul@a,w
  3627     01BD  120A  118A  27BB  120A  118A  	fcall	__Umul8_16
  3628     01C2  0871               	movf	?__Umul8_16+1,w
  3629     01C3  1283               	bcf	3,5	;RP0=0, select bank0
  3630     01C4  1303               	bcf	3,6	;RP1=0, select bank0
  3631     01C5  00CF               	movwf	___flmul@temp+1
  3632     01C6  0870               	movf	?__Umul8_16,w
  3633     01C7  00CE               	movwf	___flmul@temp
  3634     01C8                     i1l1871:
  3635     01C8  084E               	movf	___flmul@temp,w
  3636     01C9  00BE               	movwf	??___flmul
  3637     01CA  084F               	movf	___flmul@temp+1,w
  3638     01CB  00BF               	movwf	??___flmul+1
  3639     01CC  01C0               	clrf	??___flmul+2
  3640     01CD  01C1               	clrf	??___flmul+3
  3641     01CE  083E               	movf	??___flmul,w
  3642     01CF  07C4               	addwf	___flmul@grs,f
  3643     01D0  083F               	movf	??___flmul+1,w
  3644     01D1  1103               	clrz
  3645     01D2  1803               	skipnc
  3646     01D3  3E01               	addlw	1
  3647     01D4  1903               	skipnz
  3648     01D5  29D7               	goto	u257_21
  3649     01D6  07C5               	addwf	___flmul@grs+1,f
  3650     01D7                     u257_21:
  3651     01D7  0840               	movf	??___flmul+2,w
  3652     01D8  1103               	clrz
  3653     01D9  1803               	skipnc
  3654     01DA  3E01               	addlw	1
  3655     01DB  1903               	skipnz
  3656     01DC  29DE               	goto	u257_22
  3657     01DD  07C6               	addwf	___flmul@grs+2,f
  3658     01DE                     u257_22:
  3659     01DE  0841               	movf	??___flmul+3,w
  3660     01DF  1103               	clrz
  3661     01E0  1803               	skipnc
  3662     01E1  3E01               	addlw	1
  3663     01E2  1903               	skipnz
  3664     01E3  29E5               	goto	u257_23
  3665     01E4  07C7               	addwf	___flmul@grs+3,f
  3666     01E5                     u257_23:
  3667     01E5                     i1l1873:
  3668     01E5  0837               	movf	___flmul@b+1,w
  3669     01E6  00F0               	movwf	__Umul8_16@multiplicand
  3670     01E7  083C               	movf	___flmul@a+2,w
  3671     01E8  120A  118A  27BB  120A  118A  	fcall	__Umul8_16
  3672     01ED  0871               	movf	?__Umul8_16+1,w
  3673     01EE  1283               	bcf	3,5	;RP0=0, select bank0
  3674     01EF  1303               	bcf	3,6	;RP1=0, select bank0
  3675     01F0  00CF               	movwf	___flmul@temp+1
  3676     01F1  0870               	movf	?__Umul8_16,w
  3677     01F2  00CE               	movwf	___flmul@temp
  3678     01F3  084E               	movf	___flmul@temp,w
  3679     01F4  00BE               	movwf	??___flmul
  3680     01F5  084F               	movf	___flmul@temp+1,w
  3681     01F6  00BF               	movwf	??___flmul+1
  3682     01F7  01C0               	clrf	??___flmul+2
  3683     01F8  01C1               	clrf	??___flmul+3
  3684     01F9  083E               	movf	??___flmul,w
  3685     01FA  07CA               	addwf	___flmul@prod,f
  3686     01FB  083F               	movf	??___flmul+1,w
  3687     01FC  1103               	clrz
  3688     01FD  1803               	skipnc
  3689     01FE  3E01               	addlw	1
  3690     01FF  1903               	skipnz
  3691     0200  2A02               	goto	u258_21
  3692     0201  07CB               	addwf	___flmul@prod+1,f
  3693     0202                     u258_21:
  3694     0202  0840               	movf	??___flmul+2,w
  3695     0203  1103               	clrz
  3696     0204  1803               	skipnc
  3697     0205  3E01               	addlw	1
  3698     0206  1903               	skipnz
  3699     0207  2A09               	goto	u258_22
  3700     0208  07CC               	addwf	___flmul@prod+2,f
  3701     0209                     u258_22:
  3702     0209  0841               	movf	??___flmul+3,w
  3703     020A  1103               	clrz
  3704     020B  1803               	skipnc
  3705     020C  3E01               	addlw	1
  3706     020D  1903               	skipnz
  3707     020E  2A10               	goto	u258_23
  3708     020F  07CD               	addwf	___flmul@prod+3,f
  3709     0210                     u258_23:
  3710     0210                     i1l1875:
  3711     0210  0838               	movf	___flmul@b+2,w
  3712     0211  00F0               	movwf	__Umul8_16@multiplicand
  3713     0212  083B               	movf	___flmul@a+1,w
  3714     0213  120A  118A  27BB  120A  118A  	fcall	__Umul8_16
  3715     0218  0871               	movf	?__Umul8_16+1,w
  3716     0219  1283               	bcf	3,5	;RP0=0, select bank0
  3717     021A  1303               	bcf	3,6	;RP1=0, select bank0
  3718     021B  00CF               	movwf	___flmul@temp+1
  3719     021C  0870               	movf	?__Umul8_16,w
  3720     021D  00CE               	movwf	___flmul@temp
  3721     021E                     i1l1877:
  3722     021E  084E               	movf	___flmul@temp,w
  3723     021F  00BE               	movwf	??___flmul
  3724     0220  084F               	movf	___flmul@temp+1,w
  3725     0221  00BF               	movwf	??___flmul+1
  3726     0222  01C0               	clrf	??___flmul+2
  3727     0223  01C1               	clrf	??___flmul+3
  3728     0224  083E               	movf	??___flmul,w
  3729     0225  07CA               	addwf	___flmul@prod,f
  3730     0226  083F               	movf	??___flmul+1,w
  3731     0227  1103               	clrz
  3732     0228  1803               	skipnc
  3733     0229  3E01               	addlw	1
  3734     022A  1903               	skipnz
  3735     022B  2A2D               	goto	u259_21
  3736     022C  07CB               	addwf	___flmul@prod+1,f
  3737     022D                     u259_21:
  3738     022D  0840               	movf	??___flmul+2,w
  3739     022E  1103               	clrz
  3740     022F  1803               	skipnc
  3741     0230  3E01               	addlw	1
  3742     0231  1903               	skipnz
  3743     0232  2A34               	goto	u259_22
  3744     0233  07CC               	addwf	___flmul@prod+2,f
  3745     0234                     u259_22:
  3746     0234  0841               	movf	??___flmul+3,w
  3747     0235  1103               	clrz
  3748     0236  1803               	skipnc
  3749     0237  3E01               	addlw	1
  3750     0238  1903               	skipnz
  3751     0239  2A3B               	goto	u259_23
  3752     023A  07CD               	addwf	___flmul@prod+3,f
  3753     023B                     u259_23:
  3754     023B  0838               	movf	___flmul@b+2,w
  3755     023C  00F0               	movwf	__Umul8_16@multiplicand
  3756     023D  083C               	movf	___flmul@a+2,w
  3757     023E  120A  118A  27BB  120A  118A  	fcall	__Umul8_16
  3758     0243  0871               	movf	?__Umul8_16+1,w
  3759     0244  1283               	bcf	3,5	;RP0=0, select bank0
  3760     0245  1303               	bcf	3,6	;RP1=0, select bank0
  3761     0246  00CF               	movwf	___flmul@temp+1
  3762     0247  0870               	movf	?__Umul8_16,w
  3763     0248  00CE               	movwf	___flmul@temp
  3764     0249                     i1l1879:
  3765     0249  084E               	movf	___flmul@temp,w
  3766     024A  00BE               	movwf	??___flmul
  3767     024B  084F               	movf	___flmul@temp+1,w
  3768     024C  00BF               	movwf	??___flmul+1
  3769     024D  01C0               	clrf	??___flmul+2
  3770     024E  01C1               	clrf	??___flmul+3
  3771     024F  3008               	movlw	8
  3772     0250                     u260_25:
  3773     0250  1003               	clrc
  3774     0251  0DBE               	rlf	??___flmul,f
  3775     0252  0DBF               	rlf	??___flmul+1,f
  3776     0253  0DC0               	rlf	??___flmul+2,f
  3777     0254  0DC1               	rlf	??___flmul+3,f
  3778     0255                     u260_20:
  3779     0255  3EFF               	addlw	-1
  3780     0256  1D03               	skipz
  3781     0257  2A50               	goto	u260_25
  3782     0258  083E               	movf	??___flmul,w
  3783     0259  07CA               	addwf	___flmul@prod,f
  3784     025A  083F               	movf	??___flmul+1,w
  3785     025B  1103               	clrz
  3786     025C  1803               	skipnc
  3787     025D  3E01               	addlw	1
  3788     025E  1903               	skipnz
  3789     025F  2A61               	goto	u261_21
  3790     0260  07CB               	addwf	___flmul@prod+1,f
  3791     0261                     u261_21:
  3792     0261  0840               	movf	??___flmul+2,w
  3793     0262  1103               	clrz
  3794     0263  1803               	skipnc
  3795     0264  3E01               	addlw	1
  3796     0265  1903               	skipnz
  3797     0266  2A68               	goto	u261_22
  3798     0267  07CC               	addwf	___flmul@prod+2,f
  3799     0268                     u261_22:
  3800     0268  0841               	movf	??___flmul+3,w
  3801     0269  1103               	clrz
  3802     026A  1803               	skipnc
  3803     026B  3E01               	addlw	1
  3804     026C  1903               	skipnz
  3805     026D  2A6F               	goto	u261_23
  3806     026E  07CD               	addwf	___flmul@prod+3,f
  3807     026F                     u261_23:
  3808     026F                     i1l1881:
  3809     026F  0844               	movf	___flmul@grs,w
  3810     0270  00BE               	movwf	??___flmul
  3811     0271  0845               	movf	___flmul@grs+1,w
  3812     0272  00BF               	movwf	??___flmul+1
  3813     0273  0846               	movf	___flmul@grs+2,w
  3814     0274  00C0               	movwf	??___flmul+2
  3815     0275  0847               	movf	___flmul@grs+3,w
  3816     0276  00C1               	movwf	??___flmul+3
  3817     0277  3018               	movlw	24
  3818     0278                     u262_25:
  3819     0278  1003               	clrc
  3820     0279  0CC1               	rrf	??___flmul+3,f
  3821     027A  0CC0               	rrf	??___flmul+2,f
  3822     027B  0CBF               	rrf	??___flmul+1,f
  3823     027C  0CBE               	rrf	??___flmul,f
  3824     027D                     u262_20:
  3825     027D  3EFF               	addlw	-1
  3826     027E  1D03               	skipz
  3827     027F  2A78               	goto	u262_25
  3828     0280  083E               	movf	??___flmul,w
  3829     0281  07CA               	addwf	___flmul@prod,f
  3830     0282  083F               	movf	??___flmul+1,w
  3831     0283  1103               	clrz
  3832     0284  1803               	skipnc
  3833     0285  3E01               	addlw	1
  3834     0286  1903               	skipnz
  3835     0287  2A89               	goto	u263_21
  3836     0288  07CB               	addwf	___flmul@prod+1,f
  3837     0289                     u263_21:
  3838     0289  0840               	movf	??___flmul+2,w
  3839     028A  1103               	clrz
  3840     028B  1803               	skipnc
  3841     028C  3E01               	addlw	1
  3842     028D  1903               	skipnz
  3843     028E  2A90               	goto	u263_22
  3844     028F  07CC               	addwf	___flmul@prod+2,f
  3845     0290                     u263_22:
  3846     0290  0841               	movf	??___flmul+3,w
  3847     0291  1103               	clrz
  3848     0292  1803               	skipnc
  3849     0293  3E01               	addlw	1
  3850     0294  1903               	skipnz
  3851     0295  2A97               	goto	u263_23
  3852     0296  07CD               	addwf	___flmul@prod+3,f
  3853     0297                     u263_23:
  3854     0297                     i1l1883:
  3855     0297  3008               	movlw	8
  3856     0298  00BE               	movwf	??___flmul
  3857     0299                     u264_25:
  3858     0299  1003               	clrc
  3859     029A  0DC4               	rlf	___flmul@grs,f
  3860     029B  0DC5               	rlf	___flmul@grs+1,f
  3861     029C  0DC6               	rlf	___flmul@grs+2,f
  3862     029D  0DC7               	rlf	___flmul@grs+3,f
  3863     029E  0BBE               	decfsz	??___flmul,f
  3864     029F  2A99               	goto	u264_25
  3865     02A0                     i1l1885:
  3866     02A0  0849               	movf	___flmul@bexp,w
  3867     02A1  0748               	addwf	___flmul@aexp,w
  3868     02A2  00BE               	movwf	??___flmul
  3869     02A3  01BF               	clrf	??___flmul+1
  3870     02A4  0DBF               	rlf	??___flmul+1,f
  3871     02A5  083E               	movf	??___flmul,w
  3872     02A6  3E82               	addlw	130
  3873     02A7  00CE               	movwf	___flmul@temp
  3874     02A8  083F               	movf	??___flmul+1,w
  3875     02A9  1803               	skipnc
  3876     02AA  3E01               	addlw	1
  3877     02AB  3EFF               	addlw	255
  3878     02AC  00CF               	movwf	___flmul@temp+1
  3879     02AD  2ACB               	goto	i1l1897
  3880     02AE                     i1l1887:
  3881     02AE  3001               	movlw	1
  3882     02AF  00BE               	movwf	??___flmul
  3883     02B0                     u265_25:
  3884     02B0  1003               	clrc
  3885     02B1  0DCA               	rlf	___flmul@prod,f
  3886     02B2  0DCB               	rlf	___flmul@prod+1,f
  3887     02B3  0DCC               	rlf	___flmul@prod+2,f
  3888     02B4  0DCD               	rlf	___flmul@prod+3,f
  3889     02B5  0BBE               	decfsz	??___flmul,f
  3890     02B6  2AB0               	goto	u265_25
  3891     02B7                     i1l1889:
  3892     02B7  1FC7               	btfss	___flmul@grs+3,7
  3893     02B8  2ABA               	goto	u266_21
  3894     02B9  2ABB               	goto	u266_20
  3895     02BA                     u266_21:
  3896     02BA  2ABC               	goto	i1l1893
  3897     02BB                     u266_20:
  3898     02BB                     i1l1891:
  3899     02BB  144A               	bsf	___flmul@prod,0
  3900     02BC                     i1l1893:
  3901     02BC  3001               	movlw	1
  3902     02BD  00BE               	movwf	??___flmul
  3903     02BE                     u267_25:
  3904     02BE  1003               	clrc
  3905     02BF  0DC4               	rlf	___flmul@grs,f
  3906     02C0  0DC5               	rlf	___flmul@grs+1,f
  3907     02C1  0DC6               	rlf	___flmul@grs+2,f
  3908     02C2  0DC7               	rlf	___flmul@grs+3,f
  3909     02C3  0BBE               	decfsz	??___flmul,f
  3910     02C4  2ABE               	goto	u267_25
  3911     02C5                     i1l1895:
  3912     02C5  30FF               	movlw	255
  3913     02C6  07CE               	addwf	___flmul@temp,f
  3914     02C7  1803               	skipnc
  3915     02C8  0ACF               	incf	___flmul@temp+1,f
  3916     02C9  30FF               	movlw	255
  3917     02CA  07CF               	addwf	___flmul@temp+1,f
  3918     02CB                     i1l1897:
  3919     02CB  1FCC               	btfss	___flmul@prod+2,7
  3920     02CC  2ACE               	goto	u268_21
  3921     02CD  2ACF               	goto	u268_20
  3922     02CE                     u268_21:
  3923     02CE  2AAE               	goto	i1l1887
  3924     02CF                     u268_20:
  3925     02CF                     i1l1899:
  3926     02CF  01C8               	clrf	___flmul@aexp
  3927     02D0                     i1l1901:
  3928     02D0  1FC7               	btfss	___flmul@grs+3,7
  3929     02D1  2AD3               	goto	u269_21
  3930     02D2  2AD4               	goto	u269_20
  3931     02D3                     u269_21:
  3932     02D3  2AF0               	goto	i1l1909
  3933     02D4                     u269_20:
  3934     02D4                     i1l1903:
  3935     02D4  30FF               	movlw	255
  3936     02D5  0544               	andwf	___flmul@grs,w
  3937     02D6  00BE               	movwf	??___flmul
  3938     02D7  30FF               	movlw	255
  3939     02D8  0545               	andwf	___flmul@grs+1,w
  3940     02D9  00BF               	movwf	??___flmul+1
  3941     02DA  30FF               	movlw	255
  3942     02DB  0546               	andwf	___flmul@grs+2,w
  3943     02DC  00C0               	movwf	??___flmul+2
  3944     02DD  307F               	movlw	127
  3945     02DE  0547               	andwf	___flmul@grs+3,w
  3946     02DF  00C1               	movwf	??___flmul+3
  3947     02E0  0841               	movf	??___flmul+3,w
  3948     02E1  0440               	iorwf	??___flmul+2,w
  3949     02E2  043F               	iorwf	??___flmul+1,w
  3950     02E3  043E               	iorwf	??___flmul,w
  3951     02E4  1903               	skipnz
  3952     02E5  2AE7               	goto	u270_21
  3953     02E6  2AE8               	goto	u270_20
  3954     02E7                     u270_21:
  3955     02E7  2AEB               	goto	i1l578
  3956     02E8                     u270_20:
  3957     02E8                     i1l1905:
  3958     02E8  01C8               	clrf	___flmul@aexp
  3959     02E9  0AC8               	incf	___flmul@aexp,f
  3960     02EA  2AF0               	goto	i1l1909
  3961     02EB                     i1l578:
  3962     02EB  1C4A               	btfss	___flmul@prod,0
  3963     02EC  2AEE               	goto	u271_21
  3964     02ED  2AEF               	goto	u271_20
  3965     02EE                     u271_21:
  3966     02EE  2AF0               	goto	i1l1909
  3967     02EF                     u271_20:
  3968     02EF  2AE8               	goto	i1l1905
  3969     02F0                     i1l1909:
  3970     02F0  0848               	movf	___flmul@aexp,w
  3971     02F1  1903               	btfsc	3,2
  3972     02F2  2AF4               	goto	u272_21
  3973     02F3  2AF5               	goto	u272_20
  3974     02F4                     u272_21:
  3975     02F4  2B26               	goto	i1l1919
  3976     02F5                     u272_20:
  3977     02F5                     i1l1911:
  3978     02F5  3001               	movlw	1
  3979     02F6  07CA               	addwf	___flmul@prod,f
  3980     02F7  3000               	movlw	0
  3981     02F8  1803               	skipnc
  3982     02F9  3001               	movlw	1
  3983     02FA  07CB               	addwf	___flmul@prod+1,f
  3984     02FB  3000               	movlw	0
  3985     02FC  1803               	skipnc
  3986     02FD  3001               	movlw	1
  3987     02FE  07CC               	addwf	___flmul@prod+2,f
  3988     02FF  3000               	movlw	0
  3989     0300  1803               	skipnc
  3990     0301  3001               	movlw	1
  3991     0302  07CD               	addwf	___flmul@prod+3,f
  3992     0303                     i1l1913:
  3993     0303  1C4D               	btfss	___flmul@prod+3,0
  3994     0304  2B06               	goto	u273_21
  3995     0305  2B07               	goto	u273_20
  3996     0306                     u273_21:
  3997     0306  2B26               	goto	i1l1919
  3998     0307                     u273_20:
  3999     0307                     i1l1915:
  4000     0307  084A               	movf	___flmul@prod,w
  4001     0308  00BE               	movwf	??___flmul
  4002     0309  084B               	movf	___flmul@prod+1,w
  4003     030A  00BF               	movwf	??___flmul+1
  4004     030B  084C               	movf	___flmul@prod+2,w
  4005     030C  00C0               	movwf	??___flmul+2
  4006     030D  084D               	movf	___flmul@prod+3,w
  4007     030E  00C1               	movwf	??___flmul+3
  4008     030F  3001               	movlw	1
  4009     0310  00C2               	movwf	??___flmul+4
  4010     0311                     u274_25:
  4011     0311  0D41               	rlf	??___flmul+3,w
  4012     0312  0CC1               	rrf	??___flmul+3,f
  4013     0313  0CC0               	rrf	??___flmul+2,f
  4014     0314  0CBF               	rrf	??___flmul+1,f
  4015     0315  0CBE               	rrf	??___flmul,f
  4016     0316                     u274_20:
  4017     0316  0BC2               	decfsz	??___flmul+4,f
  4018     0317  2B11               	goto	u274_25
  4019     0318  0841               	movf	??___flmul+3,w
  4020     0319  00CD               	movwf	___flmul@prod+3
  4021     031A  0840               	movf	??___flmul+2,w
  4022     031B  00CC               	movwf	___flmul@prod+2
  4023     031C  083F               	movf	??___flmul+1,w
  4024     031D  00CB               	movwf	___flmul@prod+1
  4025     031E  083E               	movf	??___flmul,w
  4026     031F  00CA               	movwf	___flmul@prod
  4027     0320                     i1l1917:
  4028     0320  3001               	movlw	1
  4029     0321  07CE               	addwf	___flmul@temp,f
  4030     0322  1803               	skipnc
  4031     0323  0ACF               	incf	___flmul@temp+1,f
  4032     0324  3000               	movlw	0
  4033     0325  07CF               	addwf	___flmul@temp+1,f
  4034     0326                     i1l1919:
  4035     0326  084F               	movf	___flmul@temp+1,w
  4036     0327  3A80               	xorlw	128
  4037     0328  00FF               	movwf	btemp+1
  4038     0329  3080               	movlw	128
  4039     032A  027F               	subwf	btemp+1,w
  4040     032B  1D03               	skipz
  4041     032C  2B2F               	goto	u275_25
  4042     032D  30FF               	movlw	255
  4043     032E  024E               	subwf	___flmul@temp,w
  4044     032F                     u275_25:
  4045     032F  1C03               	skipc
  4046     0330  2B32               	goto	u275_21
  4047     0331  2B33               	goto	u275_20
  4048     0332                     u275_21:
  4049     0332  2B3E               	goto	i1l1923
  4050     0333                     u275_20:
  4051     0333                     i1l1921:
  4052     0333  307F               	movlw	127
  4053     0334  1283               	bcf	3,5	;RP0=0, select bank0
  4054     0335  1303               	bcf	3,6	;RP1=0, select bank0
  4055     0336  00CD               	movwf	___flmul@prod+3
  4056     0337  3080               	movlw	128
  4057     0338  00CC               	movwf	___flmul@prod+2
  4058     0339  3000               	movlw	0
  4059     033A  00CB               	movwf	___flmul@prod+1
  4060     033B  3000               	movlw	0
  4061     033C  00CA               	movwf	___flmul@prod
  4062     033D  2B6F               	goto	i1l584
  4063     033E                     i1l1923:
  4064     033E  1283               	bcf	3,5	;RP0=0, select bank0
  4065     033F  1303               	bcf	3,6	;RP1=0, select bank0
  4066     0340  084F               	movf	___flmul@temp+1,w
  4067     0341  3A80               	xorlw	128
  4068     0342  00FF               	movwf	btemp+1
  4069     0343  3080               	movlw	128
  4070     0344  027F               	subwf	btemp+1,w
  4071     0345  1D03               	skipz
  4072     0346  2B49               	goto	u276_25
  4073     0347  3001               	movlw	1
  4074     0348  024E               	subwf	___flmul@temp,w
  4075     0349                     u276_25:
  4076     0349  1803               	skipnc
  4077     034A  2B4C               	goto	u276_21
  4078     034B  2B4D               	goto	u276_20
  4079     034C                     u276_21:
  4080     034C  2B59               	goto	i1l1929
  4081     034D                     u276_20:
  4082     034D                     i1l1925:
  4083     034D  3000               	movlw	0
  4084     034E  1283               	bcf	3,5	;RP0=0, select bank0
  4085     034F  1303               	bcf	3,6	;RP1=0, select bank0
  4086     0350  00CD               	movwf	___flmul@prod+3
  4087     0351  3000               	movlw	0
  4088     0352  00CC               	movwf	___flmul@prod+2
  4089     0353  3000               	movlw	0
  4090     0354  00CB               	movwf	___flmul@prod+1
  4091     0355  3000               	movlw	0
  4092     0356  00CA               	movwf	___flmul@prod
  4093     0357                     i1l1927:
  4094     0357  01C3               	clrf	___flmul@sign
  4095     0358  2B6F               	goto	i1l584
  4096     0359                     i1l1929:
  4097     0359  1283               	bcf	3,5	;RP0=0, select bank0
  4098     035A  1303               	bcf	3,6	;RP1=0, select bank0
  4099     035B  084E               	movf	___flmul@temp,w
  4100     035C  00C9               	movwf	___flmul@bexp
  4101     035D  30FF               	movlw	255
  4102     035E  05CA               	andwf	___flmul@prod,f
  4103     035F  30FF               	movlw	255
  4104     0360  05CB               	andwf	___flmul@prod+1,f
  4105     0361  307F               	movlw	127
  4106     0362  05CC               	andwf	___flmul@prod+2,f
  4107     0363  3000               	movlw	0
  4108     0364  05CD               	andwf	___flmul@prod+3,f
  4109     0365                     i1l1931:
  4110     0365  1C49               	btfss	___flmul@bexp,0
  4111     0366  2B68               	goto	u277_21
  4112     0367  2B69               	goto	u277_20
  4113     0368                     u277_21:
  4114     0368  2B6A               	goto	i1l1935
  4115     0369                     u277_20:
  4116     0369                     i1l1933:
  4117     0369  17CC               	bsf	___flmul@prod+2,7
  4118     036A                     i1l1935:
  4119     036A  0849               	movf	___flmul@bexp,w
  4120     036B  00BE               	movwf	??___flmul
  4121     036C  1003               	clrc
  4122     036D  0C3E               	rrf	??___flmul,w
  4123     036E  00CD               	movwf	___flmul@prod+3
  4124     036F                     i1l584:
  4125     036F  0843               	movf	___flmul@sign,w
  4126     0370  00BE               	movwf	??___flmul
  4127     0371  083E               	movf	??___flmul,w
  4128     0372  04CD               	iorwf	___flmul@prod+3,f
  4129     0373                     i1l1937:
  4130     0373  084D               	movf	___flmul@prod+3,w
  4131     0374  00B9               	movwf	?___flmul+3
  4132     0375  084C               	movf	___flmul@prod+2,w
  4133     0376  00B8               	movwf	?___flmul+2
  4134     0377  084B               	movf	___flmul@prod+1,w
  4135     0378  00B7               	movwf	?___flmul+1
  4136     0379  084A               	movf	___flmul@prod,w
  4137     037A  00B6               	movwf	?___flmul
  4138     037B                     i1l572:
  4139     037B  0008               	return
  4140     037C                     __end_of___flmul:
  4141                           
  4142                           	psect	text11
  4143     07BB                     __ptext11:	
  4144 ;; *************** function __Umul8_16 *****************
  4145 ;; Defined at:
  4146 ;;		line 4 in file "C:\Program Files\Microchip\xc8\v2.40\pic\sources\c90\common\Umul8_16.c"
  4147 ;; Parameters:    Size  Location     Type
  4148 ;;  multiplier      1    wreg     unsigned char 
  4149 ;;  multiplicand    1    0[COMMON] unsigned char 
  4150 ;; Auto vars:     Size  Location     Type
  4151 ;;  multiplier      1    8[COMMON] unsigned char 
  4152 ;;  word_mpld       2    6[COMMON] unsigned int 
  4153 ;;  product         2    4[COMMON] unsigned int 
  4154 ;; Return value:  Size  Location     Type
  4155 ;;                  2    0[COMMON] unsigned int 
  4156 ;; Registers used:
  4157 ;;		wreg, status,2, status,0
  4158 ;; Tracked objects:
  4159 ;;		On entry : 0/0
  4160 ;;		On exit  : 0/0
  4161 ;;		Unchanged: 0/0
  4162 ;; Data sizes:     COMMON   BANK0   BANK1   BANK3   BANK2
  4163 ;;      Params:         2       0       0       0       0
  4164 ;;      Locals:         5       0       0       0       0
  4165 ;;      Temps:          2       0       0       0       0
  4166 ;;      Totals:         9       0       0       0       0
  4167 ;;Total ram usage:        9 bytes
  4168 ;; Hardware stack levels used: 1
  4169 ;; This function calls:
  4170 ;;		Nothing
  4171 ;; This function is called by:
  4172 ;;		___flmul
  4173 ;; This function uses a non-reentrant model
  4174 ;;
  4175                           
  4176     07BB                     __Umul8_16:	
  4177                           ;psect for function __Umul8_16
  4178                           
  4179                           
  4180                           ;incstack = 0
  4181                           ; Regs used in __Umul8_16: [wreg+status,2+status,0]
  4182                           ;__Umul8_16@multiplier stored from wreg
  4183     07BB  00F8               	movwf	__Umul8_16@multiplier
  4184     07BC                     i1l1589:
  4185     07BC  01F4               	clrf	__Umul8_16@product
  4186     07BD  01F5               	clrf	__Umul8_16@product+1
  4187     07BE                     i1l1591:
  4188     07BE  0870               	movf	__Umul8_16@multiplicand,w
  4189     07BF  00F2               	movwf	??__Umul8_16
  4190     07C0  01F3               	clrf	??__Umul8_16+1
  4191     07C1  0872               	movf	??__Umul8_16,w
  4192     07C2  00F6               	movwf	__Umul8_16@word_mpld
  4193     07C3  0873               	movf	??__Umul8_16+1,w
  4194     07C4  00F7               	movwf	__Umul8_16@word_mpld+1
  4195     07C5                     i1l1593:
  4196     07C5  1C78               	btfss	__Umul8_16@multiplier,0
  4197     07C6  2FC8               	goto	u194_21
  4198     07C7  2FC9               	goto	u194_20
  4199     07C8                     u194_21:
  4200     07C8  2FCF               	goto	i1l591
  4201     07C9                     u194_20:
  4202     07C9                     i1l1595:
  4203     07C9  0876               	movf	__Umul8_16@word_mpld,w
  4204     07CA  07F4               	addwf	__Umul8_16@product,f
  4205     07CB  1803               	skipnc
  4206     07CC  0AF5               	incf	__Umul8_16@product+1,f
  4207     07CD  0877               	movf	__Umul8_16@word_mpld+1,w
  4208     07CE  07F5               	addwf	__Umul8_16@product+1,f
  4209     07CF                     i1l591:
  4210     07CF  3001               	movlw	1
  4211     07D0                     u195_25:
  4212     07D0  1003               	clrc
  4213     07D1  0DF6               	rlf	__Umul8_16@word_mpld,f
  4214     07D2  0DF7               	rlf	__Umul8_16@word_mpld+1,f
  4215     07D3  3EFF               	addlw	-1
  4216     07D4  1D03               	skipz
  4217     07D5  2FD0               	goto	u195_25
  4218     07D6  1003               	clrc
  4219     07D7  0CF8               	rrf	__Umul8_16@multiplier,f
  4220     07D8                     i1l1597:
  4221     07D8  0878               	movf	__Umul8_16@multiplier,w
  4222     07D9  1D03               	btfss	3,2
  4223     07DA  2FDC               	goto	u196_21
  4224     07DB  2FDD               	goto	u196_20
  4225     07DC                     u196_21:
  4226     07DC  2FC5               	goto	i1l1593
  4227     07DD                     u196_20:
  4228     07DD                     i1l1599:
  4229     07DD  0875               	movf	__Umul8_16@product+1,w
  4230     07DE  00F1               	movwf	?__Umul8_16+1
  4231     07DF  0874               	movf	__Umul8_16@product,w
  4232     07E0  00F0               	movwf	?__Umul8_16
  4233     07E1                     i1l593:
  4234     07E1  0008               	return
  4235     07E2                     __end_of__Umul8_16:
  4236                           
  4237                           	psect	text12
  4238     05E2                     __ptext12:	
  4239 ;; *************** function ___fldiv *****************
  4240 ;; Defined at:
  4241 ;;		line 8 in file "C:\Program Files\Microchip\xc8\v2.40\pic\sources\c90\common\sprcdiv.c"
  4242 ;; Parameters:    Size  Location     Type
  4243 ;;  a               4    0[COMMON] unsigned int 
  4244 ;;  b               4    4[COMMON] unsigned int 
  4245 ;; Auto vars:     Size  Location     Type
  4246 ;;  grs             4    7[BANK0 ] unsigned long 
  4247 ;;  rem             4    0[BANK0 ] unsigned long 
  4248 ;;  new_exp         2    5[BANK0 ] int 
  4249 ;;  aexp            1   12[BANK0 ] unsigned char 
  4250 ;;  bexp            1   11[BANK0 ] unsigned char 
  4251 ;;  sign            1    4[BANK0 ] unsigned char 
  4252 ;; Return value:  Size  Location     Type
  4253 ;;                  4    0[COMMON] unsigned char 
  4254 ;; Registers used:
  4255 ;;		wreg, status,2, status,0, btemp+1
  4256 ;; Tracked objects:
  4257 ;;		On entry : 0/0
  4258 ;;		On exit  : 0/0
  4259 ;;		Unchanged: 0/0
  4260 ;; Data sizes:     COMMON   BANK0   BANK1   BANK3   BANK2
  4261 ;;      Params:         8       0       0       0       0
  4262 ;;      Locals:         0      13       0       0       0
  4263 ;;      Temps:          5       0       0       0       0
  4264 ;;      Totals:        13      13       0       0       0
  4265 ;;Total ram usage:       26 bytes
  4266 ;; Hardware stack levels used: 1
  4267 ;; This function calls:
  4268 ;;		Nothing
  4269 ;; This function is called by:
  4270 ;;		_getDigits
  4271 ;; This function uses a non-reentrant model
  4272 ;;
  4273                           
  4274     05E2                     ___fldiv:	
  4275                           ;psect for function ___fldiv
  4276                           
  4277     05E2                     i1l1659:	
  4278                           ;incstack = 0
  4279                           ; Regs used in ___fldiv: [wreg+status,2+status,0+btemp+1]
  4280                           
  4281     05E2  0877               	movf	___fldiv@b+3,w
  4282     05E3  3980               	andlw	128
  4283     05E4  1283               	bcf	3,5	;RP0=0, select bank0
  4284     05E5  1303               	bcf	3,6	;RP1=0, select bank0
  4285     05E6  00A4               	movwf	___fldiv@sign
  4286     05E7                     i1l1661:
  4287     05E7  0877               	movf	___fldiv@b+3,w
  4288     05E8  00F8               	movwf	??___fldiv
  4289     05E9  0778               	addwf	??___fldiv,w
  4290     05EA  00AB               	movwf	___fldiv@bexp
  4291     05EB                     i1l1663:
  4292     05EB  1FF6               	btfss	___fldiv@b+2,7
  4293     05EC  2DEE               	goto	u211_21
  4294     05ED  2DEF               	goto	u211_20
  4295     05EE                     u211_21:
  4296     05EE  2DF0               	goto	i1l1667
  4297     05EF                     u211_20:
  4298     05EF                     i1l1665:
  4299     05EF  142B               	bsf	___fldiv@bexp,0
  4300     05F0                     i1l1667:
  4301     05F0  082B               	movf	___fldiv@bexp,w
  4302     05F1  1903               	btfsc	3,2
  4303     05F2  2DF4               	goto	u212_21
  4304     05F3  2DF5               	goto	u212_20
  4305     05F4                     u212_21:
  4306     05F4  2E05               	goto	i1l1677
  4307     05F5                     u212_20:
  4308     05F5                     i1l1669:
  4309     05F5  0A2B               	incf	___fldiv@bexp,w
  4310     05F6  1D03               	btfss	3,2
  4311     05F7  2DF9               	goto	u213_21
  4312     05F8  2DFA               	goto	u213_20
  4313     05F9                     u213_21:
  4314     05F9  2E02               	goto	i1l1673
  4315     05FA                     u213_20:
  4316     05FA                     i1l1671:
  4317     05FA  3000               	movlw	0
  4318     05FB  00F7               	movwf	___fldiv@b+3
  4319     05FC  3000               	movlw	0
  4320     05FD  00F6               	movwf	___fldiv@b+2
  4321     05FE  3000               	movlw	0
  4322     05FF  00F5               	movwf	___fldiv@b+1
  4323     0600  3000               	movlw	0
  4324     0601  00F4               	movwf	___fldiv@b
  4325     0602                     i1l1673:
  4326     0602  17F6               	bsf	___fldiv@b+2,7
  4327     0603                     i1l1675:
  4328     0603  01F7               	clrf	___fldiv@b+3
  4329     0604  2E0D               	goto	i1l1679
  4330     0605                     i1l1677:
  4331     0605  3000               	movlw	0
  4332     0606  00F7               	movwf	___fldiv@b+3
  4333     0607  3000               	movlw	0
  4334     0608  00F6               	movwf	___fldiv@b+2
  4335     0609  3000               	movlw	0
  4336     060A  00F5               	movwf	___fldiv@b+1
  4337     060B  3000               	movlw	0
  4338     060C  00F4               	movwf	___fldiv@b
  4339     060D                     i1l1679:
  4340     060D  0873               	movf	___fldiv@a+3,w
  4341     060E  3980               	andlw	128
  4342     060F  00F8               	movwf	??___fldiv
  4343     0610  0878               	movf	??___fldiv,w
  4344     0611  06A4               	xorwf	___fldiv@sign,f
  4345     0612                     i1l1681:
  4346     0612  0873               	movf	___fldiv@a+3,w
  4347     0613  00F8               	movwf	??___fldiv
  4348     0614  0778               	addwf	??___fldiv,w
  4349     0615  00AC               	movwf	___fldiv@aexp
  4350     0616                     i1l1683:
  4351     0616  1FF2               	btfss	___fldiv@a+2,7
  4352     0617  2E19               	goto	u214_21
  4353     0618  2E1A               	goto	u214_20
  4354     0619                     u214_21:
  4355     0619  2E1B               	goto	i1l1687
  4356     061A                     u214_20:
  4357     061A                     i1l1685:
  4358     061A  142C               	bsf	___fldiv@aexp,0
  4359     061B                     i1l1687:
  4360     061B  082C               	movf	___fldiv@aexp,w
  4361     061C  1903               	btfsc	3,2
  4362     061D  2E1F               	goto	u215_21
  4363     061E  2E20               	goto	u215_20
  4364     061F                     u215_21:
  4365     061F  2E30               	goto	i1l1697
  4366     0620                     u215_20:
  4367     0620                     i1l1689:
  4368     0620  0A2C               	incf	___fldiv@aexp,w
  4369     0621  1D03               	btfss	3,2
  4370     0622  2E24               	goto	u216_21
  4371     0623  2E25               	goto	u216_20
  4372     0624                     u216_21:
  4373     0624  2E2D               	goto	i1l1693
  4374     0625                     u216_20:
  4375     0625                     i1l1691:
  4376     0625  3000               	movlw	0
  4377     0626  00F3               	movwf	___fldiv@a+3
  4378     0627  3000               	movlw	0
  4379     0628  00F2               	movwf	___fldiv@a+2
  4380     0629  3000               	movlw	0
  4381     062A  00F1               	movwf	___fldiv@a+1
  4382     062B  3000               	movlw	0
  4383     062C  00F0               	movwf	___fldiv@a
  4384     062D                     i1l1693:
  4385     062D  17F2               	bsf	___fldiv@a+2,7
  4386     062E                     i1l1695:
  4387     062E  01F3               	clrf	___fldiv@a+3
  4388     062F  2E38               	goto	i1l532
  4389     0630                     i1l1697:
  4390     0630  3000               	movlw	0
  4391     0631  00F3               	movwf	___fldiv@a+3
  4392     0632  3000               	movlw	0
  4393     0633  00F2               	movwf	___fldiv@a+2
  4394     0634  3000               	movlw	0
  4395     0635  00F1               	movwf	___fldiv@a+1
  4396     0636  3000               	movlw	0
  4397     0637  00F0               	movwf	___fldiv@a
  4398     0638                     i1l532:
  4399     0638  0873               	movf	___fldiv@a+3,w
  4400     0639  0472               	iorwf	___fldiv@a+2,w
  4401     063A  0471               	iorwf	___fldiv@a+1,w
  4402     063B  0470               	iorwf	___fldiv@a,w
  4403     063C  1D03               	skipz
  4404     063D  2E3F               	goto	u217_21
  4405     063E  2E40               	goto	u217_20
  4406     063F                     u217_21:
  4407     063F  2E59               	goto	i1l1707
  4408     0640                     u217_20:
  4409     0640                     i1l1699:
  4410     0640  3000               	movlw	0
  4411     0641  00F7               	movwf	___fldiv@b+3
  4412     0642  3000               	movlw	0
  4413     0643  00F6               	movwf	___fldiv@b+2
  4414     0644  3000               	movlw	0
  4415     0645  00F5               	movwf	___fldiv@b+1
  4416     0646  3000               	movlw	0
  4417     0647  00F4               	movwf	___fldiv@b
  4418     0648  3080               	movlw	128
  4419     0649  04F6               	iorwf	___fldiv@b+2,f
  4420     064A  307F               	movlw	127
  4421     064B  04F7               	iorwf	___fldiv@b+3,f
  4422     064C                     i1l1701:
  4423     064C  0824               	movf	___fldiv@sign,w
  4424     064D  00F8               	movwf	??___fldiv
  4425     064E  0878               	movf	??___fldiv,w
  4426     064F  04F7               	iorwf	___fldiv@b+3,f
  4427     0650                     i1l1703:
  4428     0650  0877               	movf	___fldiv@b+3,w
  4429     0651  00F3               	movwf	?___fldiv+3
  4430     0652  0876               	movf	___fldiv@b+2,w
  4431     0653  00F2               	movwf	?___fldiv+2
  4432     0654  0875               	movf	___fldiv@b+1,w
  4433     0655  00F1               	movwf	?___fldiv+1
  4434     0656  0874               	movf	___fldiv@b,w
  4435     0657  00F0               	movwf	?___fldiv
  4436     0658  2FBA               	goto	i1l534
  4437     0659                     i1l1707:
  4438     0659  082B               	movf	___fldiv@bexp,w
  4439     065A  1D03               	btfss	3,2
  4440     065B  2E5D               	goto	u218_21
  4441     065C  2E5E               	goto	u218_20
  4442     065D                     u218_21:
  4443     065D  2E67               	goto	i1l1713
  4444     065E                     u218_20:
  4445     065E                     i1l1709:
  4446     065E  3000               	movlw	0
  4447     065F  00F3               	movwf	?___fldiv+3
  4448     0660  3000               	movlw	0
  4449     0661  00F2               	movwf	?___fldiv+2
  4450     0662  3000               	movlw	0
  4451     0663  00F1               	movwf	?___fldiv+1
  4452     0664  3000               	movlw	0
  4453     0665  00F0               	movwf	?___fldiv
  4454     0666  2FBA               	goto	i1l534
  4455     0667                     i1l1713:
  4456     0667  082B               	movf	___fldiv@bexp,w
  4457     0668  00F8               	movwf	??___fldiv
  4458     0669  01F9               	clrf	??___fldiv+1
  4459     066A  0879               	movf	??___fldiv+1,w
  4460     066B  00FB               	movwf	??___fldiv+3
  4461     066C  082C               	movf	___fldiv@aexp,w
  4462     066D  0278               	subwf	??___fldiv,w
  4463     066E  00FA               	movwf	??___fldiv+2
  4464     066F  1C03               	skipc
  4465     0670  03FB               	decf	??___fldiv+3,f
  4466     0671  087A               	movf	??___fldiv+2,w
  4467     0672  3E7F               	addlw	127
  4468     0673  00A5               	movwf	___fldiv@new_exp
  4469     0674  087B               	movf	??___fldiv+3,w
  4470     0675  1803               	skipnc
  4471     0676  3E01               	addlw	1
  4472     0677  3E00               	addlw	0
  4473     0678  00A6               	movwf	___fldiv@new_exp+1
  4474     0679                     i1l1715:
  4475     0679  0877               	movf	___fldiv@b+3,w
  4476     067A  00A3               	movwf	___fldiv@rem+3
  4477     067B  0876               	movf	___fldiv@b+2,w
  4478     067C  00A2               	movwf	___fldiv@rem+2
  4479     067D  0875               	movf	___fldiv@b+1,w
  4480     067E  00A1               	movwf	___fldiv@rem+1
  4481     067F  0874               	movf	___fldiv@b,w
  4482     0680  00A0               	movwf	___fldiv@rem
  4483     0681                     i1l1717:
  4484     0681  3000               	movlw	0
  4485     0682  00F7               	movwf	___fldiv@b+3
  4486     0683  3000               	movlw	0
  4487     0684  00F6               	movwf	___fldiv@b+2
  4488     0685  3000               	movlw	0
  4489     0686  00F5               	movwf	___fldiv@b+1
  4490     0687  3000               	movlw	0
  4491     0688  00F4               	movwf	___fldiv@b
  4492     0689                     i1l1719:
  4493     0689  3000               	movlw	0
  4494     068A  00AA               	movwf	___fldiv@grs+3
  4495     068B  3000               	movlw	0
  4496     068C  00A9               	movwf	___fldiv@grs+2
  4497     068D  3000               	movlw	0
  4498     068E  00A8               	movwf	___fldiv@grs+1
  4499     068F  3000               	movlw	0
  4500     0690  00A7               	movwf	___fldiv@grs
  4501     0691                     i1l1721:
  4502     0691  01AC               	clrf	___fldiv@aexp
  4503     0692  2EE3               	goto	i1l1741
  4504     0693                     i1l1723:
  4505     0693  082C               	movf	___fldiv@aexp,w
  4506     0694  1903               	btfsc	3,2
  4507     0695  2E97               	goto	u219_21
  4508     0696  2E98               	goto	u219_20
  4509     0697                     u219_21:
  4510     0697  2EB8               	goto	i1l1733
  4511     0698                     u219_20:
  4512     0698                     i1l1725:
  4513     0698  3001               	movlw	1
  4514     0699  00F8               	movwf	??___fldiv
  4515     069A                     u220_25:
  4516     069A  1003               	clrc
  4517     069B  0DA0               	rlf	___fldiv@rem,f
  4518     069C  0DA1               	rlf	___fldiv@rem+1,f
  4519     069D  0DA2               	rlf	___fldiv@rem+2,f
  4520     069E  0DA3               	rlf	___fldiv@rem+3,f
  4521     069F  0BF8               	decfsz	??___fldiv,f
  4522     06A0  2E9A               	goto	u220_25
  4523     06A1  3001               	movlw	1
  4524     06A2  00F8               	movwf	??___fldiv
  4525     06A3                     u221_25:
  4526     06A3  1003               	clrc
  4527     06A4  0DF4               	rlf	___fldiv@b,f
  4528     06A5  0DF5               	rlf	___fldiv@b+1,f
  4529     06A6  0DF6               	rlf	___fldiv@b+2,f
  4530     06A7  0DF7               	rlf	___fldiv@b+3,f
  4531     06A8  0BF8               	decfsz	??___fldiv,f
  4532     06A9  2EA3               	goto	u221_25
  4533     06AA                     i1l1727:
  4534     06AA  1FAA               	btfss	___fldiv@grs+3,7
  4535     06AB  2EAD               	goto	u222_21
  4536     06AC  2EAE               	goto	u222_20
  4537     06AD                     u222_21:
  4538     06AD  2EAF               	goto	i1l1731
  4539     06AE                     u222_20:
  4540     06AE                     i1l1729:
  4541     06AE  1474               	bsf	___fldiv@b,0
  4542     06AF                     i1l1731:
  4543     06AF  3001               	movlw	1
  4544     06B0  00F8               	movwf	??___fldiv
  4545     06B1                     u223_25:
  4546     06B1  1003               	clrc
  4547     06B2  0DA7               	rlf	___fldiv@grs,f
  4548     06B3  0DA8               	rlf	___fldiv@grs+1,f
  4549     06B4  0DA9               	rlf	___fldiv@grs+2,f
  4550     06B5  0DAA               	rlf	___fldiv@grs+3,f
  4551     06B6  0BF8               	decfsz	??___fldiv,f
  4552     06B7  2EB1               	goto	u223_25
  4553     06B8                     i1l1733:
  4554     06B8  0873               	movf	___fldiv@a+3,w
  4555     06B9  0223               	subwf	___fldiv@rem+3,w
  4556     06BA  1D03               	skipz
  4557     06BB  2EC6               	goto	u224_25
  4558     06BC  0872               	movf	___fldiv@a+2,w
  4559     06BD  0222               	subwf	___fldiv@rem+2,w
  4560     06BE  1D03               	skipz
  4561     06BF  2EC6               	goto	u224_25
  4562     06C0  0871               	movf	___fldiv@a+1,w
  4563     06C1  0221               	subwf	___fldiv@rem+1,w
  4564     06C2  1D03               	skipz
  4565     06C3  2EC6               	goto	u224_25
  4566     06C4  0870               	movf	___fldiv@a,w
  4567     06C5  0220               	subwf	___fldiv@rem,w
  4568     06C6                     u224_25:
  4569     06C6  1C03               	skipc
  4570     06C7  2EC9               	goto	u224_21
  4571     06C8  2ECA               	goto	u224_20
  4572     06C9                     u224_21:
  4573     06C9  2EDF               	goto	i1l1739
  4574     06CA                     u224_20:
  4575     06CA                     i1l1735:
  4576     06CA  172A               	bsf	___fldiv@grs+3,6
  4577     06CB                     i1l1737:
  4578     06CB  0870               	movf	___fldiv@a,w
  4579     06CC  02A0               	subwf	___fldiv@rem,f
  4580     06CD  0871               	movf	___fldiv@a+1,w
  4581     06CE  1C03               	skipc
  4582     06CF  0F71               	incfsz	___fldiv@a+1,w
  4583     06D0  2ED2               	goto	u225_25
  4584     06D1  2ED3               	goto	u225_26
  4585     06D2                     u225_25:
  4586     06D2  02A1               	subwf	___fldiv@rem+1,f
  4587     06D3                     u225_26:
  4588     06D3  0872               	movf	___fldiv@a+2,w
  4589     06D4  1C03               	skipc
  4590     06D5  0F72               	incfsz	___fldiv@a+2,w
  4591     06D6  2ED8               	goto	u225_27
  4592     06D7  2ED9               	goto	u225_28
  4593     06D8                     u225_27:
  4594     06D8  02A2               	subwf	___fldiv@rem+2,f
  4595     06D9                     u225_28:
  4596     06D9  0873               	movf	___fldiv@a+3,w
  4597     06DA  1C03               	skipc
  4598     06DB  0F73               	incfsz	___fldiv@a+3,w
  4599     06DC  2EDE               	goto	u225_29
  4600     06DD  2EDF               	goto	u225_20
  4601     06DE                     u225_29:
  4602     06DE  02A3               	subwf	___fldiv@rem+3,f
  4603     06DF                     u225_20:
  4604     06DF                     i1l1739:
  4605     06DF  3001               	movlw	1
  4606     06E0  00F8               	movwf	??___fldiv
  4607     06E1  0878               	movf	??___fldiv,w
  4608     06E2  07AC               	addwf	___fldiv@aexp,f
  4609     06E3                     i1l1741:
  4610     06E3  301A               	movlw	26
  4611     06E4  022C               	subwf	___fldiv@aexp,w
  4612     06E5  1C03               	skipc
  4613     06E6  2EE8               	goto	u226_21
  4614     06E7  2EE9               	goto	u226_20
  4615     06E8                     u226_21:
  4616     06E8  2E93               	goto	i1l1723
  4617     06E9                     u226_20:
  4618     06E9                     i1l1743:
  4619     06E9  0823               	movf	___fldiv@rem+3,w
  4620     06EA  0422               	iorwf	___fldiv@rem+2,w
  4621     06EB  0421               	iorwf	___fldiv@rem+1,w
  4622     06EC  0420               	iorwf	___fldiv@rem,w
  4623     06ED  1903               	skipnz
  4624     06EE  2EF0               	goto	u227_21
  4625     06EF  2EF1               	goto	u227_20
  4626     06F0                     u227_21:
  4627     06F0  2F10               	goto	i1l1757
  4628     06F1                     u227_20:
  4629     06F1                     i1l1745:
  4630     06F1  1427               	bsf	___fldiv@grs,0
  4631     06F2  2F10               	goto	i1l1757
  4632     06F3                     i1l1747:
  4633     06F3  3001               	movlw	1
  4634     06F4  00F8               	movwf	??___fldiv
  4635     06F5                     u228_25:
  4636     06F5  1003               	clrc
  4637     06F6  0DF4               	rlf	___fldiv@b,f
  4638     06F7  0DF5               	rlf	___fldiv@b+1,f
  4639     06F8  0DF6               	rlf	___fldiv@b+2,f
  4640     06F9  0DF7               	rlf	___fldiv@b+3,f
  4641     06FA  0BF8               	decfsz	??___fldiv,f
  4642     06FB  2EF5               	goto	u228_25
  4643     06FC                     i1l1749:
  4644     06FC  1FAA               	btfss	___fldiv@grs+3,7
  4645     06FD  2EFF               	goto	u229_21
  4646     06FE  2F00               	goto	u229_20
  4647     06FF                     u229_21:
  4648     06FF  2F01               	goto	i1l1753
  4649     0700                     u229_20:
  4650     0700                     i1l1751:
  4651     0700  1474               	bsf	___fldiv@b,0
  4652     0701                     i1l1753:
  4653     0701  3001               	movlw	1
  4654     0702  00F8               	movwf	??___fldiv
  4655     0703                     u230_25:
  4656     0703  1003               	clrc
  4657     0704  0DA7               	rlf	___fldiv@grs,f
  4658     0705  0DA8               	rlf	___fldiv@grs+1,f
  4659     0706  0DA9               	rlf	___fldiv@grs+2,f
  4660     0707  0DAA               	rlf	___fldiv@grs+3,f
  4661     0708  0BF8               	decfsz	??___fldiv,f
  4662     0709  2F03               	goto	u230_25
  4663     070A                     i1l1755:
  4664     070A  30FF               	movlw	255
  4665     070B  07A5               	addwf	___fldiv@new_exp,f
  4666     070C  1803               	skipnc
  4667     070D  0AA6               	incf	___fldiv@new_exp+1,f
  4668     070E  30FF               	movlw	255
  4669     070F  07A6               	addwf	___fldiv@new_exp+1,f
  4670     0710                     i1l1757:
  4671     0710  1FF6               	btfss	___fldiv@b+2,7
  4672     0711  2F13               	goto	u231_21
  4673     0712  2F14               	goto	u231_20
  4674     0713                     u231_21:
  4675     0713  2EF3               	goto	i1l1747
  4676     0714                     u231_20:
  4677     0714                     i1l1759:
  4678     0714  01AC               	clrf	___fldiv@aexp
  4679     0715                     i1l1761:
  4680     0715  1FAA               	btfss	___fldiv@grs+3,7
  4681     0716  2F18               	goto	u232_21
  4682     0717  2F19               	goto	u232_20
  4683     0718                     u232_21:
  4684     0718  2F35               	goto	i1l1769
  4685     0719                     u232_20:
  4686     0719                     i1l1763:
  4687     0719  30FF               	movlw	255
  4688     071A  0527               	andwf	___fldiv@grs,w
  4689     071B  00F8               	movwf	??___fldiv
  4690     071C  30FF               	movlw	255
  4691     071D  0528               	andwf	___fldiv@grs+1,w
  4692     071E  00F9               	movwf	??___fldiv+1
  4693     071F  30FF               	movlw	255
  4694     0720  0529               	andwf	___fldiv@grs+2,w
  4695     0721  00FA               	movwf	??___fldiv+2
  4696     0722  307F               	movlw	127
  4697     0723  052A               	andwf	___fldiv@grs+3,w
  4698     0724  00FB               	movwf	??___fldiv+3
  4699     0725  087B               	movf	??___fldiv+3,w
  4700     0726  047A               	iorwf	??___fldiv+2,w
  4701     0727  0479               	iorwf	??___fldiv+1,w
  4702     0728  0478               	iorwf	??___fldiv,w
  4703     0729  1903               	skipnz
  4704     072A  2F2C               	goto	u233_21
  4705     072B  2F2D               	goto	u233_20
  4706     072C                     u233_21:
  4707     072C  2F30               	goto	i1l548
  4708     072D                     u233_20:
  4709     072D                     i1l1765:
  4710     072D  01AC               	clrf	___fldiv@aexp
  4711     072E  0AAC               	incf	___fldiv@aexp,f
  4712     072F  2F35               	goto	i1l1769
  4713     0730                     i1l548:
  4714     0730  1C74               	btfss	___fldiv@b,0
  4715     0731  2F33               	goto	u234_21
  4716     0732  2F34               	goto	u234_20
  4717     0733                     u234_21:
  4718     0733  2F35               	goto	i1l1769
  4719     0734                     u234_20:
  4720     0734  2F2D               	goto	i1l1765
  4721     0735                     i1l1769:
  4722     0735  082C               	movf	___fldiv@aexp,w
  4723     0736  1903               	btfsc	3,2
  4724     0737  2F39               	goto	u235_21
  4725     0738  2F3A               	goto	u235_20
  4726     0739                     u235_21:
  4727     0739  2F6B               	goto	i1l1779
  4728     073A                     u235_20:
  4729     073A                     i1l1771:
  4730     073A  3001               	movlw	1
  4731     073B  07F4               	addwf	___fldiv@b,f
  4732     073C  3000               	movlw	0
  4733     073D  1803               	skipnc
  4734     073E  3001               	movlw	1
  4735     073F  07F5               	addwf	___fldiv@b+1,f
  4736     0740  3000               	movlw	0
  4737     0741  1803               	skipnc
  4738     0742  3001               	movlw	1
  4739     0743  07F6               	addwf	___fldiv@b+2,f
  4740     0744  3000               	movlw	0
  4741     0745  1803               	skipnc
  4742     0746  3001               	movlw	1
  4743     0747  07F7               	addwf	___fldiv@b+3,f
  4744     0748                     i1l1773:
  4745     0748  1C77               	btfss	___fldiv@b+3,0
  4746     0749  2F4B               	goto	u236_21
  4747     074A  2F4C               	goto	u236_20
  4748     074B                     u236_21:
  4749     074B  2F6B               	goto	i1l1779
  4750     074C                     u236_20:
  4751     074C                     i1l1775:
  4752     074C  0874               	movf	___fldiv@b,w
  4753     074D  00F8               	movwf	??___fldiv
  4754     074E  0875               	movf	___fldiv@b+1,w
  4755     074F  00F9               	movwf	??___fldiv+1
  4756     0750  0876               	movf	___fldiv@b+2,w
  4757     0751  00FA               	movwf	??___fldiv+2
  4758     0752  0877               	movf	___fldiv@b+3,w
  4759     0753  00FB               	movwf	??___fldiv+3
  4760     0754  3001               	movlw	1
  4761     0755  00FC               	movwf	??___fldiv+4
  4762     0756                     u237_25:
  4763     0756  0D7B               	rlf	??___fldiv+3,w
  4764     0757  0CFB               	rrf	??___fldiv+3,f
  4765     0758  0CFA               	rrf	??___fldiv+2,f
  4766     0759  0CF9               	rrf	??___fldiv+1,f
  4767     075A  0CF8               	rrf	??___fldiv,f
  4768     075B                     u237_20:
  4769     075B  0BFC               	decfsz	??___fldiv+4,f
  4770     075C  2F56               	goto	u237_25
  4771     075D  087B               	movf	??___fldiv+3,w
  4772     075E  00F7               	movwf	___fldiv@b+3
  4773     075F  087A               	movf	??___fldiv+2,w
  4774     0760  00F6               	movwf	___fldiv@b+2
  4775     0761  0879               	movf	??___fldiv+1,w
  4776     0762  00F5               	movwf	___fldiv@b+1
  4777     0763  0878               	movf	??___fldiv,w
  4778     0764  00F4               	movwf	___fldiv@b
  4779     0765                     i1l1777:
  4780     0765  3001               	movlw	1
  4781     0766  07A5               	addwf	___fldiv@new_exp,f
  4782     0767  1803               	skipnc
  4783     0768  0AA6               	incf	___fldiv@new_exp+1,f
  4784     0769  3000               	movlw	0
  4785     076A  07A6               	addwf	___fldiv@new_exp+1,f
  4786     076B                     i1l1779:
  4787     076B  0826               	movf	___fldiv@new_exp+1,w
  4788     076C  3A80               	xorlw	128
  4789     076D  00FF               	movwf	btemp+1
  4790     076E  3080               	movlw	128
  4791     076F  027F               	subwf	btemp+1,w
  4792     0770  1D03               	skipz
  4793     0771  2F74               	goto	u238_25
  4794     0772  30FF               	movlw	255
  4795     0773  0225               	subwf	___fldiv@new_exp,w
  4796     0774                     u238_25:
  4797     0774  1C03               	skipc
  4798     0775  2F77               	goto	u238_21
  4799     0776  2F78               	goto	u238_20
  4800     0777                     u238_21:
  4801     0777  2F86               	goto	i1l1783
  4802     0778                     u238_20:
  4803     0778                     i1l1781:
  4804     0778  30FF               	movlw	255
  4805     0779  1283               	bcf	3,5	;RP0=0, select bank0
  4806     077A  1303               	bcf	3,6	;RP1=0, select bank0
  4807     077B  00A5               	movwf	___fldiv@new_exp
  4808     077C  3000               	movlw	0
  4809     077D  00A6               	movwf	___fldiv@new_exp+1
  4810     077E  3000               	movlw	0
  4811     077F  00F7               	movwf	___fldiv@b+3
  4812     0780  3000               	movlw	0
  4813     0781  00F6               	movwf	___fldiv@b+2
  4814     0782  3000               	movlw	0
  4815     0783  00F5               	movwf	___fldiv@b+1
  4816     0784  3000               	movlw	0
  4817     0785  00F4               	movwf	___fldiv@b
  4818     0786                     i1l1783:
  4819     0786  1283               	bcf	3,5	;RP0=0, select bank0
  4820     0787  1303               	bcf	3,6	;RP1=0, select bank0
  4821     0788  0826               	movf	___fldiv@new_exp+1,w
  4822     0789  3A80               	xorlw	128
  4823     078A  00FF               	movwf	btemp+1
  4824     078B  3080               	movlw	128
  4825     078C  027F               	subwf	btemp+1,w
  4826     078D  1D03               	skipz
  4827     078E  2F91               	goto	u239_25
  4828     078F  3001               	movlw	1
  4829     0790  0225               	subwf	___fldiv@new_exp,w
  4830     0791                     u239_25:
  4831     0791  1803               	skipnc
  4832     0792  2F94               	goto	u239_21
  4833     0793  2F95               	goto	u239_20
  4834     0794                     u239_21:
  4835     0794  2FA2               	goto	i1l554
  4836     0795                     u239_20:
  4837     0795                     i1l1785:
  4838     0795  1283               	bcf	3,5	;RP0=0, select bank0
  4839     0796  1303               	bcf	3,6	;RP1=0, select bank0
  4840     0797  01A5               	clrf	___fldiv@new_exp
  4841     0798  01A6               	clrf	___fldiv@new_exp+1
  4842     0799                     i1l1787:
  4843     0799  3000               	movlw	0
  4844     079A  00F7               	movwf	___fldiv@b+3
  4845     079B  3000               	movlw	0
  4846     079C  00F6               	movwf	___fldiv@b+2
  4847     079D  3000               	movlw	0
  4848     079E  00F5               	movwf	___fldiv@b+1
  4849     079F  3000               	movlw	0
  4850     07A0  00F4               	movwf	___fldiv@b
  4851     07A1                     i1l1789:
  4852     07A1  01A4               	clrf	___fldiv@sign
  4853     07A2                     i1l554:
  4854     07A2  1283               	bcf	3,5	;RP0=0, select bank0
  4855     07A3  1303               	bcf	3,6	;RP1=0, select bank0
  4856     07A4  0825               	movf	___fldiv@new_exp,w
  4857     07A5  00AB               	movwf	___fldiv@bexp
  4858     07A6                     i1l1791:
  4859     07A6  1C2B               	btfss	___fldiv@bexp,0
  4860     07A7  2FA9               	goto	u240_21
  4861     07A8  2FAA               	goto	u240_20
  4862     07A9                     u240_21:
  4863     07A9  2FAC               	goto	i1l1795
  4864     07AA                     u240_20:
  4865     07AA                     i1l1793:
  4866     07AA  17F6               	bsf	___fldiv@b+2,7
  4867     07AB  2FB0               	goto	i1l556
  4868     07AC                     i1l1795:
  4869     07AC  307F               	movlw	127
  4870     07AD  00F8               	movwf	??___fldiv
  4871     07AE  0878               	movf	??___fldiv,w
  4872     07AF  05F6               	andwf	___fldiv@b+2,f
  4873     07B0                     i1l556:
  4874     07B0  082B               	movf	___fldiv@bexp,w
  4875     07B1  00F8               	movwf	??___fldiv
  4876     07B2  1003               	clrc
  4877     07B3  0C78               	rrf	??___fldiv,w
  4878     07B4  00F7               	movwf	___fldiv@b+3
  4879     07B5  0824               	movf	___fldiv@sign,w
  4880     07B6  00F8               	movwf	??___fldiv
  4881     07B7  0878               	movf	??___fldiv,w
  4882     07B8  04F7               	iorwf	___fldiv@b+3,f
  4883     07B9  2E50               	goto	i1l1703
  4884     07BA                     i1l534:
  4885     07BA  0008               	return
  4886     07BB                     __end_of___fldiv:
  4887     007E                     btemp	set	126	;btemp
  4888     007E                     wtemp0	set	126
  4889                           
  4890                           	psect	idloc
  4891                           
  4892                           ;Config register IDLOC0 @ 0x2000
  4893                           ;	unspecified, using default values
  4894     2000                     	org	8192
  4895     2000  3FFF               	dw	16383
  4896                           
  4897                           ;Config register IDLOC1 @ 0x2001
  4898                           ;	unspecified, using default values
  4899     2001                     	org	8193
  4900     2001  3FFF               	dw	16383
  4901                           
  4902                           ;Config register IDLOC2 @ 0x2002
  4903                           ;	unspecified, using default values
  4904     2002                     	org	8194
  4905     2002  3FFF               	dw	16383
  4906                           
  4907                           ;Config register IDLOC3 @ 0x2003
  4908                           ;	unspecified, using default values
  4909     2003                     	org	8195
  4910     2003  3FFF               	dw	16383
  4911                           
  4912                           	psect	config
  4913                           
  4914                           ;Config register CONFIG1 @ 0x2007
  4915                           ;	Oscillator Selection bits
  4916                           ;	FOSC = INTRC_NOCLKOUT, INTOSCIO oscillator: I/O function on RA6/OSC2/CLKOUT pin, I/O f
      +                          unction on RA7/OSC1/CLKIN
  4917                           ;	Watchdog Timer Enable bit
  4918                           ;	WDTE = OFF, WDT disabled and can be enabled by SWDTEN bit of the WDTCON register
  4919                           ;	Power-up Timer Enable bit
  4920                           ;	PWRTE = OFF, PWRT disabled
  4921                           ;	RE3/MCLR pin function select bit
  4922                           ;	MCLRE = OFF, RE3/MCLR pin function is digital input, MCLR internally tied to VDD
  4923                           ;	Code Protection bit
  4924                           ;	CP = OFF, Program memory code protection is disabled
  4925                           ;	Data Code Protection bit
  4926                           ;	CPD = OFF, Data memory code protection is disabled
  4927                           ;	Brown Out Reset Selection bits
  4928                           ;	BOREN = OFF, BOR disabled
  4929                           ;	Internal External Switchover bit
  4930                           ;	IESO = OFF, Internal/External Switchover mode is disabled
  4931                           ;	Fail-Safe Clock Monitor Enabled bit
  4932                           ;	FCMEN = OFF, Fail-Safe Clock Monitor is disabled
  4933                           ;	Low Voltage Programming Enable bit
  4934                           ;	LVP = OFF, RB3 pin has digital I/O, HV on MCLR must be used for programming
  4935                           ;	In-Circuit Debugger Mode bit
  4936                           ;	DEBUG = 0x1, unprogramme  4937     2007                     	org	8199
  4938     2007  20D4               	dw	8404
  4939                           
  4940                           ;Config register CONFIG2 @ 0x2008
  4941                           ;	Brown-out Reset Selection bit
  4942                           ;	BOR4V = BOR40V, Brown-out Reset set to 4.0V
  4943                           ;	Flash Program Memory Self Write Enable bits
  4944                           ;	WRT = OFF, Write protection off
  4945     2008                     	org	8200
  4946     2008  3FFF               	dw	16383

Data Sizes:
    Strings     0
    Constant    32
    Data        3
    BSS         12
    Persistent  0
    Stack       0

Auto Spaces:
    Space          Size  Autos    Used
    COMMON           14     13      13
    BANK0            80     64      79
    BANK1            80      4       4
    BANK3            96      0       0
    BANK2            96      0       0

Pointer List with Targets:

    pHundreds	PTR int  size(1) Largest target is 2
		 -> hundreds(BANK0[2]), 

    pTens	PTR int  size(1) Largest target is 2
		 -> tens(BANK0[2]), 

    pUnit	PTR int  size(1) Largest target is 2
		 -> unit(BANK0[2]), 


Critical Paths under _main in COMMON

    None.

Critical Paths under _isr in COMMON

    _getDigits->___fldiv
    ___xxtofl->___fladd
    ___fltol->___fldiv
    ___flsub->___fladd

Critical Paths under _main in BANK0

    None.

Critical Paths under _isr in BANK0

    _isr->_getDigits
    _getDigits->___flmul
    ___xxtofl->___fladd
    ___fltol->___flsub
    ___flsub->___xxtofl
    ___flmul->___xxtofl

Critical Paths under _main in BANK1

    _main->_setup

Critical Paths under _isr in BANK1

    None.

Critical Paths under _main in BANK3

    None.

Critical Paths under _isr in BANK3

    None.

Critical Paths under _main in BANK2

    None.

Critical Paths under _isr in BANK2

    None.

Call Graph Tables:

 ---------------------------------------------------------------------------------
 (Depth) Function   	        Calls       Base Space   Used Autos Params    Refs
 ---------------------------------------------------------------------------------
 (0) _main                                                 2     2      0       0
                                              2 BANK1      2     2      0
                              _setup
 ---------------------------------------------------------------------------------
 (1) _setup                                                2     2      0       0
                                              0 BANK1      2     2      0
 ---------------------------------------------------------------------------------
 Estimated maximum stack depth 1
 ---------------------------------------------------------------------------------
 (Depth) Function   	        Calls       Base Space   Used Autos Params    Refs
 ---------------------------------------------------------------------------------
 (2) _isr                                                  6     6      0    8693
                                             58 BANK0      6     6      0
                          _getDigits
                              _table
 ---------------------------------------------------------------------------------
 (4) _table                                                3     1      2     250
                                              0 COMMON     3     1      2
 ---------------------------------------------------------------------------------
 (3) _getDigits                                           10     8      2    8443
                                             48 BANK0     10     8      2
                            ___fldiv
                            ___flmul
                            ___flsub
                            ___fltol
                             ___wmul
                           ___xxtofl
 ---------------------------------------------------------------------------------
 (4) ___xxtofl                                            14    10      4     702
                                              8 BANK0     14    10      4
                            ___fladd (ARG)
                             ___wmul (ARG)
 ---------------------------------------------------------------------------------
 (4) ___wmul                                               6     2      4     548
                                              0 COMMON     6     2      4
 ---------------------------------------------------------------------------------
 (4) ___fltol                                             10     6      4     609
                                             30 BANK0     10     6      4
                            ___fldiv (ARG)
                            ___flsub (ARG)
                             ___wmul (ARG)
                           ___xxtofl (ARG)
 ---------------------------------------------------------------------------------
 (4) ___flsub                                              8     0      8    2485
                                             22 BANK0      8     0      8
                            ___fladd
                             ___wmul (ARG)
                           ___xxtofl (ARG)
 ---------------------------------------------------------------------------------
 (5) ___fladd                                             20    12      8    2136
                                              0 COMMON    12     4      8
                                              0 BANK0      8     8      0
 ---------------------------------------------------------------------------------
 (4) ___flmul                                             26    18      8    2417
                                             22 BANK0     26    18      8
                          __Umul8_16
                             ___wmul (ARG)
                           ___xxtofl (ARG)
 ---------------------------------------------------------------------------------
 (5) __Umul8_16                                            9     7      2     799
                                              0 COMMON     9     7      2
 ---------------------------------------------------------------------------------
 (4) ___fldiv                                             26    18      8    1425
                                              0 COMMON    13     5      8
                                              0 BANK0     13    13      0
 ---------------------------------------------------------------------------------
 Estimated maximum stack depth 5
 ---------------------------------------------------------------------------------

 Call Graph Graphs:

 _main (ROOT)
   _setup

 _isr (ROOT)
   _getDigits
     ___fldiv
     ___flmul
       __Umul8_16
       ___wmul (ARG)
       ___xxtofl (ARG)
         ___fladd (ARG)
         ___wmul (ARG)
     ___flsub
       ___fladd
       ___wmul (ARG)
       ___xxtofl (ARG)
     ___fltol
       ___fldiv (ARG)
       ___flsub (ARG)
       ___wmul (ARG)
       ___xxtofl (ARG)
     ___wmul
     ___xxtofl
   _table

 Address spaces:
Name               Size   Autos  Total    Cost      Usage
BANK3               60      0       0       9        0.0%
BITBANK3            60      0       0       8        0.0%
SFR3                 0      0       0       4        0.0%
BITSFR3              0      0       0       4        0.0%
BANK2               60      0       0      11        0.0%
BITBANK2            60      0       0      10        0.0%
SFR2                 0      0       0       5        0.0%
BITSFR2              0      0       0       5        0.0%
BANK1               50      4       4       7        5.0%
BITBANK1            50      0       0       6        0.0%
SFR1                 0      0       0       2        0.0%
BITSFR1              0      0       0       2        0.0%
BANK0               50     40      4F       5       98.8%
BITBANK0            50      0       0       4        0.0%
SFR0                 0      0       0       1        0.0%
BITSFR0              0      0       0       1        0.0%
COMMON               E      D       D       1       92.9%
BITCOMMON            E      0       0       0        0.0%
CODE                 0      0       0       0        0.0%
DATA                 0      0      60      12        0.0%
ABS                  0      0      60       3        0.0%
NULL                 0      0       0       0        0.0%
STACK                0      0       0       2        0.0%
EEDATA             100      0       0       0        0.0%


Microchip Technology PIC Macro Assembler V2.40 build 20220703182018 
Symbol Table                                                                                   Fri Mar 24 19:44:22 2023

           ___fldiv@aexp 002C             ___fldiv@bexp 002B                        pc 0002  
           ___fldiv@sign 0024                       l80 0C74                       l91 0C69  
                     l83 0CA6                       fsr 0004      ___wmul@multiplicand 0072  
    __Umul8_16@word_mpld 0076                      _isr 0D39                      fsr0 0004  
                    indf 0000             ___flmul@aexp 0048             ___flmul@bexp 0049  
           ___flmul@sign 0043             ___flmul@temp 004E             ___flmul@prod 004A  
           ___fltol@exp1 0047                     l2011 0C2B                     l2021 0C34  
                   l2013 0C2C                     l2005 0C1F                     l2031 0C40  
                   l2023 0C35                     l2015 0C2D                     l2007 0C28  
                   l2041 0C60                     l2033 0C4A                     l2025 0C36  
                   l2017 0C2F                     l2009 0C2A                     l2043 0C63  
                   l2035 0C4D                     l2027 0C39                     l2019 0C33  
                   l2045 0C64                     l2037 0C50                     l2029 0C3C  
                   l2047 0C65                     l2039 0C56                     l2049 0C68  
                   l2091 0C73                     l2093 0C78                     l2095 0C9F  
                   l2087 0C6A                     l2097 0CA5                     l2089 0C6F  
                   l2099 0CAA                     _ADIF 0066                     ?_isr 0070  
                   _T0IF 005A                     u2930 0C78                     u2931 0C77  
                   u2940 0CAA                     u2941 0CA9                     u2957 0C9A  
                   u2967 0CB8                     u2977 0C46                     i1l74 0DB0  
                   u2987 0C5C                     i1l94 07EC                     i1l97 0FFF  
                   _TMR0 0001                     _adc1 0062                     _adc2 0060  
                   _main 0C6A                     _tens 0068                     _unit 006A  
                   btemp 007E                     start 0012          ___fldiv@new_exp 0025  
                  ??_isr 005A            ___fltol@sign1 0046          __end_of___fladd 05E2  
                  ?_main 0070          __end_of___fldiv 07BB          __end_of___flmul 037C  
        __end_of___flsub 0BFA          __end_of___fltol 0D39                    _ANSEL 0188  
                  i1l501 054F                    i1l510 05B1                    i1l183 0C06  
                  i1l185 0C1E                    i1l522 0BF9                    i1l507 0571  
                  i1l532 0638                    i1l534 07BA                    i1l518 05D5  
                  i1l630 0E4C                    i1l622 0E24                    i1l519 05E1  
                  i1l480 045A                    i1l376 0D23                    i1l616 0DE1  
                  i1l369 0D38                    i1l554 07A2                    i1l482 0431  
                  i1l618 0E76                    i1l379 0D38                    i1l556 07B0  
                  i1l548 0730                    i1l572 037B                    i1l476 03D7  
                  i1l629 0E40                    i1l591 07CF                    i1l584 036F  
                  i1l593 07E1                    i1l497 0529                    i1l489 05E1  
                  i1l578 02EB                    _PORTB 0006                    _PORTC 0007  
                  _PORTD 0008                    _TRISB 0086                    _TRISC 0087  
                  _TRISD 0088                    _pTens 006D                    _pUnit 006E  
                  _table 07E2                    _setup 0C1F                    pclath 000A  
                  status 0003                    wtemp0 007E          __initialization 0015  
           __end_of_main 0CC1                   ??_main 00A2                   ?_table 0070  
                 _ADRESH 001E                   _ADRESL 009E                   ?_setup 0070  
                 _ANSELH 0189                   i1l2001 07E2                   i1l1401 0389  
                 i1l1411 039D                   i1l1403 038A                   i1l2051 0D39  
                 i1l1501 0483                   i1l1421 03B1                   i1l1405 038F  
                 i1l1413 039F                   i1l2061 0D5C                   i1l2053 0D3D  
                 i1l1511 049A                   i1l1503 0487                   i1l1431 03C4  
                 i1l1423 03B5                   i1l1415 03A7                   i1l1407 0394  
                 i1l2071 0D7F                   i1l2063 0D5E                   i1l2055 0D46  
                 u200_20 0C1A                   i1l1521 0501                   i1l1513 049B  
                 i1l1505 048B                   i1l1441 03E1                   i1l1433 03CC  
                 i1l1425 03B9                   i1l1417 03AA                   i1l1409 039C  
                 u200_21 0C19                   i1l2081 0DA2                   i1l2073 0D81  
                 i1l2065 0D69                   i1l2057 0D49                   i1l1531 0536  
                 i1l1523 0507                   i1l1515 04A6                   i1l1507 0494  
                 i1l1451 03ED                   i1l1443 03E5                   i1l1435 03CD  
                 i1l1427 03BA                   i1l1419 03B0                   i1l1611 0C14  
                 i1l1603 0BFA                   i1l2083 0DA4                   i1l2075 0D8C  
                 i1l2067 0D6C                   i1l2059 0D5A                   i1l1701 064C  
                 i1l1541 0553                   i1l1525 050C                   i1l1509 0496  
                 i1l1517 04AB                   i1l1461 03F7                   i1l1453 03EF  
                 i1l1445 03E7                   i1l1429 03BF                   i1l1437 03CF  
                 i1l1613 0C1A                   i1l1605 0BFC                   i1l2085 0DAF  
                 i1l2077 0D8F                   i1l2069 0D7D                   i1l1703 0650  
                 i1l1543 0556                   i1l1535 053F                   i1l1519 04C1  
                 i1l1527 051B                   i1l1551 0563                   i1l1471 0401  
                 i1l1463 03F9                   i1l1455 03F1                   i1l1447 03E9  
                 i1l1439 03DD                   i1l1631 0CF3                   i1l1623 0CD5  
                 i1l1607 0C00                   i1l2079 0DA0                   u201_20 0CCC  
                 i1l1721 0691                   i1l1713 0667                   i1l1801 0037  
                 i1l1561 0576                   i1l1553 0564                   i1l1545 0558  
                 i1l1537 054A                   i1l1529 0531                   i1l1481 043E  
                 i1l1465 03FB                   i1l1457 03F3                   i1l1449 03EB  
                 i1l1473 0403                   i1l1633 0CF7                   i1l1641 0D11  
                 i1l1625 0CE8                   u201_21 0CCB                   i1l1617 0CC1  
                 i1l1609 0C0D                   i1l1731 06AF                   i1l1723 0693  
                 i1l1715 0679                   i1l1707 0659                   i1l1811 004A  
                 i1l1803 003C                   i1l1571 05B6                   i1l1563 057B  
                 i1l1555 0568                   i1l1547 055D                   i1l1539 054E  
                 i1l1483 0440                   i1l1491 0454                   i1l1475 0404  
                 i1l1467 03FD                   i1l1459 03F5                   i1l1395 037C  
                 i1l1651 0D2D                   i1l1627 0CE9                   i1l1619 0CCC  
                 i1l1725 0698                   i1l1733 06B8                   i1l1741 06E3  
                 i1l1717 0681                   i1l1709 065E                   i1l1661 05E7  
                 i1l1901 02D0                   i1l1821 0066                   i1l1813 004F  
                 i1l1805 0040                   i1l1581 05CD                   i1l1573 05BB  
                 i1l1565 0589                   i1l1557 056E                   i1l1549 055F  
                 i1l1493 045E                   i1l1485 0444                   i1l1477 041B  
                 i1l1469 03FF                   i1l1397 037F                   i1l1653 0BD6  
                 i1l1629 0CF1                   i1l1751 0700                   i1l1743 06E9  
                 i1l1735 06CA                   i1l1727 06AA                   i1l1719 0689  
                 i1l1671 05FA                   i1l1663 05EB                   i1l1591 07BE  
                 i1l1911 02F5                   i1l1903 02D4                   i1l1831 0079  
                 i1l1823 006A                   i1l1815 0057                   i1l1807 0044  
                 i1l1583 05CF                   i1l1575 05C3                   i1l1567 058D  
                 i1l1495 0463                   i1l1487 0445                   i1l1479 0435  
                 i1l1399 0385                   i1l1655 0BDA                   i1l1647 0D18  
                 i1l1639 0CFF                   u210_20 0D2D                   u202_20 0CE3  
                 i1l1761 0715                   i1l1753 0701                   i1l1745 06F1  
                 i1l1737 06CB                   i1l1729 06AE                   i1l1681 0612  
                 i1l1673 0602                   i1l1665 05EF                   i1l1593 07C5  
                 i1l1921 0333                   i1l1913 0303                   i1l1905 02E8  
                 i1l1841 0095                   i1l1833 0081                   i1l1825 006E  
                 i1l1817 0059                   i1l1809 0045                   i1l1585 05DC  
                 i1l1577 05C8                   i1l1569 05AD                   i1l1489 0450  
                 u210_21 0D2C                   i1l1649 0D28                   i1l1771 073A  
                 i1l1763 0719                   i1l1755 070A                   i1l1747 06F3  
                 i1l1739 06DF                   i1l1691 0625                   i1l1683 0616  
                 i1l1675 0603                   i1l1667 05F0                   i1l1659 05E2  
                 i1l1595 07C9                   i1l1931 0365                   i1l1923 033E  
                 i1l1915 0307                   i1l1851 00D4                   i1l1835 0083  
                 i1l1827 006F                   i1l1819 0061                   i1l1587 05E0  
                 i1l1579 05C9                   i1l1499 046C                   i1l1781 0778  
                 i1l1773 0748                   i1l1765 072D                   i1l1749 06FC  
                 i1l1757 0710                   i1l1693 062D                   i1l1685 061A  
                 i1l1669 05F5                   i1l1677 0605                   i1l1597 07D8  
                 i1l1589 07BC                   i1l1933 0369                   i1l1925 034D  
                 i1l1917 0320                   i1l1909 02F0                   i1l1861 015B  
                 i1l1853 00F0                   i1l1845 009E                   i1l1837 008B  
                 i1l1829 0074                   u202_25 0CDE                   i1l1941 0DC0  
                 i1l1791 07A6                   i1l1783 0786                   i1l1775 074C  
                 i1l1759 0714                   i1l1695 062E                   i1l1687 061B  
                 i1l1679 060D                   i1l1599 07DD                   i1l1935 036A  
                 i1l1927 0357                   i1l1919 0326                   i1l1871 01C8  
                 i1l1863 0169                   i1l1855 011A                   i1l1847 00AC  
                 i1l1839 0090                   i1l1943 0DC5                   u211_20 05EF  
                 u203_20 0CF7                   i1l1793 07AA                   i1l1785 0795  
                 i1l1777 0765                   i1l1769 0735                   i1l1689 0620  
                 i1l1697 0630                   u211_21 05EE                   i1l1937 0373  
                 i1l1929 0359                   i1l1881 026F                   i1l1873 01E5  
                 i1l1865 0186                   i1l1857 0136                   i1l1849 00B9  
                 u203_21 0CF6                   i1l1961 0E0D                   i1l1953 0DF2  
                 i1l1945 0DC9                   i1l1795 07AC                   i1l1787 0799  
                 i1l1779 076B                   i1l1699 0640                   i1l1891 02BB  
                 i1l1883 0297                   i1l1875 0210                   i1l1867 0194  
                 i1l1859 0152                   i1l1971 0E44                   i1l1963 0E1B  
                 i1l1955 0DF5                   i1l1947 0DD9                   i1l1789 07A1  
                 i1l1893 02BC                   i1l1885 02A0                   i1l1877 021E  
                 i1l1869 01B1                   i1l1981 0E6E                   i1l1973 0E4E  
                 i1l1965 0E2B                   i1l1957 0E02                   i1l1949 0DE9  
                 i1l1895 02C5                   i1l1887 02AE                   i1l1879 0249  
                 i1l1975 0E64                   i1l1967 0E36                   i1l1959 0E09  
                 i1l1991 0F38                   u212_20 05F5                   u204_20 0CFE  
                 u212_21 05F4                   i1l1889 02B7                   i1l1897 02CB  
                 u204_21 0CFD                   i1l1977 0E69                   i1l1969 0E3A  
                 i1l1993 0F50                   i1l1985 0E77                   i1l1899 02CF  
                 i1l1979 0E6D                   i1l1995 0F7E                   i1l1987 0EB8  
                 u220_25 069A                   i1l1997 0FD0                   i1l1989 0EE6  
                 i1l1999 0FE8                   u300_27 0D87                   u213_20 05FA  
                 u213_21 05F9                   u221_25 06A3                   u205_25 0D00  
                 u301_27 0DAA                   u222_20 06AE                   u214_20 061A  
                 u150_20 0394                   u206_20 0D10                   u222_21 06AD  
                 u214_21 0619                   u150_21 0393                   u206_21 0D0F  
                 u230_25 0703                   u231_20 0714                   u215_20 0620  
                 u151_20 03B0                   u207_20 0D17                   u231_21 0713  
                 u215_21 061F                   u151_21 03AF                   u207_21 0D16  
                 u223_25 06B1                   u240_20 07AA                   u232_20 0719  
                 u224_20 06CA                   u216_20 0625                   u160_20 0435  
                 u152_20 03B9                   u240_21 07A9                   u232_21 0718  
                 u224_21 06C9                   u216_21 0624                   u160_21 0434  
                 u152_21 03B8                   u224_25 06C6                   u208_25 0D1A  
                 u233_20 072D                   u225_20 06DF                   u217_20 0640  
                 u241_20 0044                   u161_20 0444                   u153_20 03BF  
                 u209_20 0D28                   u233_21 072C                   u217_21 063F  
                 u241_21 0043                   u161_21 0443                   u153_21 03BE  
                 u209_21 0D27                   u225_25 06D2                   u225_26 06D3  
                 u225_27 06D8                   u234_20 0734                   u226_20 06E9  
                 u225_28 06D9                   u218_20 065E                   u242_20 004A  
                 u154_20 03C4                   u234_21 0733                   u226_21 06E8  
                 u225_29 06DE                   u218_21 065D                   u250_21 00FE  
                 u242_21 0049                   u154_21 03C3                   u250_22 0105  
                 u250_23 010C                   u170_25 049F                   u162_25 0449  
                 u235_20 073A                   u227_20 06F1                   u219_20 0698  
                 u243_20 004F                   u171_20 04C1                   u163_20 045A  
                 u155_20 03DD                   u235_21 0739                   u227_21 06F0  
                 u219_21 0697                   u251_21 0128                   u243_21 004E  
                 u171_21 04C0                   u163_21 0459                   u155_21 03DC  
                 u251_22 012F                   u251_23 0136                   u171_23 04BD  
                 u236_20 074C                   u260_20 0255                   u244_20 006E  
                 u180_20 055D                   u164_20 045E                   u156_20 03E1  
                 u148_20 0389                   u236_21 074B                   u252_21 0144  
                 u244_21 006D                   u180_21 055C                   u172_21 04DA  
                 u164_21 045D                   u156_21 03E0                   u148_21 0388  
                 u252_22 014B                   u172_22 04DB                   u252_23 0152  
                 u172_23 04E0                   u172_24 04E1                   u228_25 06F5  
                 u260_25 0250                   u172_25 04E6                   u172_26 04E7  
                 u237_20 075B                   u229_20 0700                   u245_20 0074  
                 u181_20 0563                   u173_20 04EE                   u165_20 0463  
                 u157_20 041B                   u149_20 038F                   u229_21 06FF  
                 u261_21 0261                   u245_21 0073                   u181_21 0562  
                 u173_21 04EF                   u165_21 0462                   u157_21 041A  
                 u149_21 038E                   u261_22 0268                   u173_22 04F4  
                 u261_23 026F                   u173_23 04F5                   u237_25 0756  
                 u253_25 0154                   u157_25 0417                   u238_20 0778  
                 u270_20 02E8                   u262_20 027D                   u246_20 0079  
                 u190_20 05BB                   u182_20 0568                   u174_20 050C  
                 u158_20 0424                   u238_21 0777                   u270_21 02E7  
                 u254_21 0178                   u246_21 0078                   u190_21 05BA  
                 u182_21 0567                   u174_21 050B                   u166_21 0475  
                 u158_21 0422                   u254_22 017F                   u166_22 047C  
                 u254_23 0186                   u166_23 0483                   u238_25 0774  
                 u262_25 0278                   u239_20 0795                   u271_20 02EF  
                 u247_20 0090                   u191_20 05C8                   u183_20 056E  
                 u175_20 0531                   u167_20 0487                   u159_20 0425  
                 u239_21 0794                   u271_21 02EE                   u263_21 0289  
                 u255_21 01A3                   u247_21 008F                   u191_21 05C7  
                 u183_21 056D                   u175_21 0530                   u167_21 0486  
                 u263_22 0290                   u255_22 01AA                   u263_23 0297  
                 u255_23 01B1                   u239_25 0791                   u272_20 02F5  
                 u248_20 0095                   u192_20 05CD                   u184_20 0575  
                 u176_20 0536                   u168_20 048B                   u280_20 0DE9  
                 u272_21 02F4                   u248_21 0094                   u192_21 05CC  
                 u184_21 0574                   u176_21 0535                   u168_21 048A  
                 u280_21 0DE8                   u264_25 0299                   u256_25 01B3  
                 u273_20 0307                   u193_20 05E0                   u185_20 057B  
                 u169_20 049A                   u273_21 0306                   u257_21 01D7  
                 u249_21 00E2                   u193_21 05DF                   u185_21 057A  
                 u169_21 0499                   u257_22 01DE                   u249_22 00E9  
                 u257_23 01E5                   u249_23 00F0                   u265_25 02B0  
                 u177_25 0543                   u281_25 0DFA                   u194_20 07C9  
                 u274_20 0316                   u266_20 02BB                   u186_20 058D  
                 u178_20 054E                   u290_20 0E69                   u282_20 0E08  
                 u194_21 07C8                   u266_21 02BA                   u258_21 0202  
                 u186_21 058C                   u178_21 054D                   u290_21 0E68  
                 u282_21 0E07                   u258_22 0209                   u258_23 0210  
                 u274_25 0311                   u275_20 0333                   u187_20 059E  
                 u179_20 0553                   u291_20 0E6D                   u275_21 0332  
                 u259_21 022D                   u179_21 0552                   u291_21 0E6C  
                 u259_22 0234                   u259_23 023B                   u195_25 07D0  
                 u275_25 032F                   u267_25 02BE                   u187_25 0599  
                 u283_25 0E1C                   u196_20 07DD                   u276_20 034D  
                 u268_20 02CF                   u188_20 05AD                   u284_20 0E2A  
                 u292_20 0D3D                   u196_21 07DC                   u276_21 034C  
                 u268_21 02CE                   u188_21 05AC                   u284_21 0E29  
                 u292_21 0D3C                   u276_25 0349                   u277_20 0369  
                 u269_20 02D4                   u189_20 05B6                   u197_20 0C00  
                 u277_21 0368                   u269_21 02D3                   u189_21 05B5  
                 u197_21 0BFF                   u285_25 0E2F                   u286_20 0E3A  
                 u278_20 0DC5                   u286_21 0E39                   u278_21 0DC4  
                 u198_25 0C07                   u287_20 0E40                   u279_20 0DC9  
                 u287_21 0E3F                   u279_21 0DC8                   u199_25 0C0E  
                 u288_20 0E44                   u288_21 0E43                   u289_20 0E59  
                 u289_25 0E54                   u299_27 0D64         __end_of___xxtofl 0E77  
              ??___fladd 0020                   ___wmul 0BFA                ??___fldiv 0078  
              ??___flmul 003E                ??___flsub 007C                ??___fltol 0042  
                 saved_w 007E             ___xxtofl@arg 0032             ___xxtofl@exp 0031  
           ___xxtofl@val 0028  __end_of__initialization 0033               ___fltol@f1 003E  
         __pcstackCOMMON 0070             __pidataBANK0 07ED            __end_of_table 07ED  
          __end_of_setup 0C6A           _OPTION_REGbits 0081                  ??_table 0072  
                ??_setup 00A0               __pbssBANK0 0060        __end_of__Umul8_16 07E2  
             __pmaintext 0C6A                  ?___wmul 0070               __pintentry 0004  
              ?___xxtofl 0028               __stringtab 0800        __end_of_getDigits 1000  
                ___fladd 037C                  ___fldiv 05E2                  ___flmul 0037  
                ___flsub 0BD6                  ___fltol 0CC1                _ANSELbits 0188  
                __ptext1 0C1F                  __ptext2 0D39                  __ptext3 07E2  
                __ptext4 0E77                  __ptext5 0DBD                  __ptext6 0BFA  
                __ptext7 0CC1                  __ptext8 0BD6                  __ptext9 037C  
          _table_display 0806               ??___xxtofl 002C     end_of_initialization 0033  
            ___fladd@grs 007B            ___xxtofl@sign 0030                _TRISAbits 0085  
            ___fldiv@grs 0027              ___fldiv@rem 0020              ___flmul@grs 0044  
         __end_of___wmul 0C1F      start_initialization 0015              __end_of_isr 0DBD  
               ??___wmul 0074                __Umul8_16 07BB              __pdataBANK0 006C  
             table@digit 0070                ___fladd@a 0074                ___fladd@b 0070  
              ___fldiv@a 0070                ___fldiv@b 0074                ___flmul@a 003A  
              ___flmul@b 0036                ___flsub@a 0036                ___flsub@b 003A  
              ___latbits 0002            __pcstackBANK0 0020            __pcstackBANK1 00A0  
          getDigits@num2 0056                _pHundreds 006C                _getDigits 0E77  
               ?___fladd 0070                 ?___fldiv 0070                 ?___flmul 0036  
               ?___flsub 0036                 ?___fltol 003E            _getDigits$901 0052  
             ?__Umul8_16 0070                __pstrings 0800        interrupt_function 0004  
         ___wmul@product 0074               ?_getDigits 0050               _ADCON0bits 001F  
            __stringbase 0805               _ADCON1bits 009F        ___wmul@multiplier 0070  
          _value_display 0064              ??__Umul8_16 0072       __end_of__stringtab 0806  
           getDigits@num 0050                 ___xxtofl 0DBD                 __ptext10 0037  
               __ptext11 07BB                 __ptext12 05E2                 _hundreds 0066  
            ??_getDigits 007D               _INTCONbits 000B                 intlevel1 0000  
              stringcode 0800               _OSCCONbits 008F    __end_of_table_display 0826  
 __Umul8_16@multiplicand 0070                 stringdir 0800                 stringtab 0800  
          ___fladd@signs 0078             ___fladd@aexp 0079             ___fladd@bexp 007A  
   __Umul8_16@multiplier 0078        __Umul8_16@product 0074  
